
kernel/kernel:     file format elf64-littleriscv


Disassembly of section .text:

0000000080000000 <_entry>:
    80000000:	0000d117          	auipc	sp,0xd
    80000004:	03010113          	addi	sp,sp,48 # 8000d030 <stack0>
    80000008:	6505                	lui	a0,0x1
    8000000a:	f14025f3          	csrr	a1,mhartid
    8000000e:	0585                	addi	a1,a1,1
    80000010:	02b50533          	mul	a0,a0,a1
    80000014:	912a                	add	sp,sp,a0
    80000016:	1a4000ef          	jal	800001ba <start>

000000008000001a <spin>:
    8000001a:	a001                	j	8000001a <spin>

000000008000001c <r_mhartid>:
    8000001c:	1101                	addi	sp,sp,-32
    8000001e:	ec22                	sd	s0,24(sp)
    80000020:	1000                	addi	s0,sp,32
    80000022:	f14027f3          	csrr	a5,mhartid
    80000026:	fef43423          	sd	a5,-24(s0)
    8000002a:	fe843783          	ld	a5,-24(s0)
    8000002e:	853e                	mv	a0,a5
    80000030:	6462                	ld	s0,24(sp)
    80000032:	6105                	addi	sp,sp,32
    80000034:	8082                	ret

0000000080000036 <r_mstatus>:
    80000036:	1101                	addi	sp,sp,-32
    80000038:	ec22                	sd	s0,24(sp)
    8000003a:	1000                	addi	s0,sp,32
    8000003c:	300027f3          	csrr	a5,mstatus
    80000040:	fef43423          	sd	a5,-24(s0)
    80000044:	fe843783          	ld	a5,-24(s0)
    80000048:	853e                	mv	a0,a5
    8000004a:	6462                	ld	s0,24(sp)
    8000004c:	6105                	addi	sp,sp,32
    8000004e:	8082                	ret

0000000080000050 <w_mstatus>:
    80000050:	1101                	addi	sp,sp,-32
    80000052:	ec22                	sd	s0,24(sp)
    80000054:	1000                	addi	s0,sp,32
    80000056:	fea43423          	sd	a0,-24(s0)
    8000005a:	fe843783          	ld	a5,-24(s0)
    8000005e:	30079073          	csrw	mstatus,a5
    80000062:	0001                	nop
    80000064:	6462                	ld	s0,24(sp)
    80000066:	6105                	addi	sp,sp,32
    80000068:	8082                	ret

000000008000006a <w_mepc>:
    8000006a:	1101                	addi	sp,sp,-32
    8000006c:	ec22                	sd	s0,24(sp)
    8000006e:	1000                	addi	s0,sp,32
    80000070:	fea43423          	sd	a0,-24(s0)
    80000074:	fe843783          	ld	a5,-24(s0)
    80000078:	34179073          	csrw	mepc,a5
    8000007c:	0001                	nop
    8000007e:	6462                	ld	s0,24(sp)
    80000080:	6105                	addi	sp,sp,32
    80000082:	8082                	ret

0000000080000084 <r_sie>:
    80000084:	1101                	addi	sp,sp,-32
    80000086:	ec22                	sd	s0,24(sp)
    80000088:	1000                	addi	s0,sp,32
    8000008a:	104027f3          	csrr	a5,sie
    8000008e:	fef43423          	sd	a5,-24(s0)
    80000092:	fe843783          	ld	a5,-24(s0)
    80000096:	853e                	mv	a0,a5
    80000098:	6462                	ld	s0,24(sp)
    8000009a:	6105                	addi	sp,sp,32
    8000009c:	8082                	ret

000000008000009e <w_sie>:
    8000009e:	1101                	addi	sp,sp,-32
    800000a0:	ec22                	sd	s0,24(sp)
    800000a2:	1000                	addi	s0,sp,32
    800000a4:	fea43423          	sd	a0,-24(s0)
    800000a8:	fe843783          	ld	a5,-24(s0)
    800000ac:	10479073          	csrw	sie,a5
    800000b0:	0001                	nop
    800000b2:	6462                	ld	s0,24(sp)
    800000b4:	6105                	addi	sp,sp,32
    800000b6:	8082                	ret

00000000800000b8 <r_mie>:
    800000b8:	1101                	addi	sp,sp,-32
    800000ba:	ec22                	sd	s0,24(sp)
    800000bc:	1000                	addi	s0,sp,32
    800000be:	304027f3          	csrr	a5,mie
    800000c2:	fef43423          	sd	a5,-24(s0)
    800000c6:	fe843783          	ld	a5,-24(s0)
    800000ca:	853e                	mv	a0,a5
    800000cc:	6462                	ld	s0,24(sp)
    800000ce:	6105                	addi	sp,sp,32
    800000d0:	8082                	ret

00000000800000d2 <w_mie>:
    800000d2:	1101                	addi	sp,sp,-32
    800000d4:	ec22                	sd	s0,24(sp)
    800000d6:	1000                	addi	s0,sp,32
    800000d8:	fea43423          	sd	a0,-24(s0)
    800000dc:	fe843783          	ld	a5,-24(s0)
    800000e0:	30479073          	csrw	mie,a5
    800000e4:	0001                	nop
    800000e6:	6462                	ld	s0,24(sp)
    800000e8:	6105                	addi	sp,sp,32
    800000ea:	8082                	ret

00000000800000ec <w_medeleg>:
    800000ec:	1101                	addi	sp,sp,-32
    800000ee:	ec22                	sd	s0,24(sp)
    800000f0:	1000                	addi	s0,sp,32
    800000f2:	fea43423          	sd	a0,-24(s0)
    800000f6:	fe843783          	ld	a5,-24(s0)
    800000fa:	30279073          	csrw	medeleg,a5
    800000fe:	0001                	nop
    80000100:	6462                	ld	s0,24(sp)
    80000102:	6105                	addi	sp,sp,32
    80000104:	8082                	ret

0000000080000106 <w_mideleg>:
    80000106:	1101                	addi	sp,sp,-32
    80000108:	ec22                	sd	s0,24(sp)
    8000010a:	1000                	addi	s0,sp,32
    8000010c:	fea43423          	sd	a0,-24(s0)
    80000110:	fe843783          	ld	a5,-24(s0)
    80000114:	30379073          	csrw	mideleg,a5
    80000118:	0001                	nop
    8000011a:	6462                	ld	s0,24(sp)
    8000011c:	6105                	addi	sp,sp,32
    8000011e:	8082                	ret

0000000080000120 <w_mtvec>:
    80000120:	1101                	addi	sp,sp,-32
    80000122:	ec22                	sd	s0,24(sp)
    80000124:	1000                	addi	s0,sp,32
    80000126:	fea43423          	sd	a0,-24(s0)
    8000012a:	fe843783          	ld	a5,-24(s0)
    8000012e:	30579073          	csrw	mtvec,a5
    80000132:	0001                	nop
    80000134:	6462                	ld	s0,24(sp)
    80000136:	6105                	addi	sp,sp,32
    80000138:	8082                	ret

000000008000013a <w_pmpcfg0>:
    8000013a:	1101                	addi	sp,sp,-32
    8000013c:	ec22                	sd	s0,24(sp)
    8000013e:	1000                	addi	s0,sp,32
    80000140:	fea43423          	sd	a0,-24(s0)
    80000144:	fe843783          	ld	a5,-24(s0)
    80000148:	3a079073          	csrw	pmpcfg0,a5
    8000014c:	0001                	nop
    8000014e:	6462                	ld	s0,24(sp)
    80000150:	6105                	addi	sp,sp,32
    80000152:	8082                	ret

0000000080000154 <w_pmpaddr0>:
    80000154:	1101                	addi	sp,sp,-32
    80000156:	ec22                	sd	s0,24(sp)
    80000158:	1000                	addi	s0,sp,32
    8000015a:	fea43423          	sd	a0,-24(s0)
    8000015e:	fe843783          	ld	a5,-24(s0)
    80000162:	3b079073          	csrw	pmpaddr0,a5
    80000166:	0001                	nop
    80000168:	6462                	ld	s0,24(sp)
    8000016a:	6105                	addi	sp,sp,32
    8000016c:	8082                	ret

000000008000016e <w_satp>:
    8000016e:	1101                	addi	sp,sp,-32
    80000170:	ec22                	sd	s0,24(sp)
    80000172:	1000                	addi	s0,sp,32
    80000174:	fea43423          	sd	a0,-24(s0)
    80000178:	fe843783          	ld	a5,-24(s0)
    8000017c:	18079073          	csrw	satp,a5
    80000180:	0001                	nop
    80000182:	6462                	ld	s0,24(sp)
    80000184:	6105                	addi	sp,sp,32
    80000186:	8082                	ret

0000000080000188 <w_mscratch>:
    80000188:	1101                	addi	sp,sp,-32
    8000018a:	ec22                	sd	s0,24(sp)
    8000018c:	1000                	addi	s0,sp,32
    8000018e:	fea43423          	sd	a0,-24(s0)
    80000192:	fe843783          	ld	a5,-24(s0)
    80000196:	34079073          	csrw	mscratch,a5
    8000019a:	0001                	nop
    8000019c:	6462                	ld	s0,24(sp)
    8000019e:	6105                	addi	sp,sp,32
    800001a0:	8082                	ret

00000000800001a2 <w_tp>:
    800001a2:	1101                	addi	sp,sp,-32
    800001a4:	ec22                	sd	s0,24(sp)
    800001a6:	1000                	addi	s0,sp,32
    800001a8:	fea43423          	sd	a0,-24(s0)
    800001ac:	fe843783          	ld	a5,-24(s0)
    800001b0:	823e                	mv	tp,a5
    800001b2:	0001                	nop
    800001b4:	6462                	ld	s0,24(sp)
    800001b6:	6105                	addi	sp,sp,32
    800001b8:	8082                	ret

00000000800001ba <start>:
    800001ba:	1101                	addi	sp,sp,-32
    800001bc:	ec06                	sd	ra,24(sp)
    800001be:	e822                	sd	s0,16(sp)
    800001c0:	1000                	addi	s0,sp,32
    800001c2:	00000097          	auipc	ra,0x0
    800001c6:	e74080e7          	jalr	-396(ra) # 80000036 <r_mstatus>
    800001ca:	fea43423          	sd	a0,-24(s0)
    800001ce:	fe843703          	ld	a4,-24(s0)
    800001d2:	77f9                	lui	a5,0xffffe
    800001d4:	7ff78793          	addi	a5,a5,2047 # ffffffffffffe7ff <end+0xffffffff7ffd37d7>
    800001d8:	8ff9                	and	a5,a5,a4
    800001da:	fef43423          	sd	a5,-24(s0)
    800001de:	fe843703          	ld	a4,-24(s0)
    800001e2:	6785                	lui	a5,0x1
    800001e4:	80078793          	addi	a5,a5,-2048 # 800 <_entry-0x7ffff800>
    800001e8:	8fd9                	or	a5,a5,a4
    800001ea:	fef43423          	sd	a5,-24(s0)
    800001ee:	fe843503          	ld	a0,-24(s0)
    800001f2:	00000097          	auipc	ra,0x0
    800001f6:	e5e080e7          	jalr	-418(ra) # 80000050 <w_mstatus>
    800001fa:	00001797          	auipc	a5,0x1
    800001fe:	65478793          	addi	a5,a5,1620 # 8000184e <main>
    80000202:	853e                	mv	a0,a5
    80000204:	00000097          	auipc	ra,0x0
    80000208:	e66080e7          	jalr	-410(ra) # 8000006a <w_mepc>
    8000020c:	4501                	li	a0,0
    8000020e:	00000097          	auipc	ra,0x0
    80000212:	f60080e7          	jalr	-160(ra) # 8000016e <w_satp>
    80000216:	67c1                	lui	a5,0x10
    80000218:	fff78513          	addi	a0,a5,-1 # ffff <_entry-0x7fff0001>
    8000021c:	00000097          	auipc	ra,0x0
    80000220:	ed0080e7          	jalr	-304(ra) # 800000ec <w_medeleg>
    80000224:	67c1                	lui	a5,0x10
    80000226:	fff78513          	addi	a0,a5,-1 # ffff <_entry-0x7fff0001>
    8000022a:	00000097          	auipc	ra,0x0
    8000022e:	edc080e7          	jalr	-292(ra) # 80000106 <w_mideleg>
    80000232:	00000097          	auipc	ra,0x0
    80000236:	e52080e7          	jalr	-430(ra) # 80000084 <r_sie>
    8000023a:	87aa                	mv	a5,a0
    8000023c:	2227e793          	ori	a5,a5,546
    80000240:	853e                	mv	a0,a5
    80000242:	00000097          	auipc	ra,0x0
    80000246:	e5c080e7          	jalr	-420(ra) # 8000009e <w_sie>
    8000024a:	57fd                	li	a5,-1
    8000024c:	00b7d513          	srli	a0,a5,0xb
    80000250:	00000097          	auipc	ra,0x0
    80000254:	f04080e7          	jalr	-252(ra) # 80000154 <w_pmpaddr0>
    80000258:	457d                	li	a0,31
    8000025a:	00000097          	auipc	ra,0x0
    8000025e:	ee0080e7          	jalr	-288(ra) # 8000013a <w_pmpcfg0>
    80000262:	00000097          	auipc	ra,0x0
    80000266:	032080e7          	jalr	50(ra) # 80000294 <timerinit>
    8000026a:	00000097          	auipc	ra,0x0
    8000026e:	db2080e7          	jalr	-590(ra) # 8000001c <r_mhartid>
    80000272:	87aa                	mv	a5,a0
    80000274:	fef42223          	sw	a5,-28(s0)
    80000278:	fe442783          	lw	a5,-28(s0)
    8000027c:	853e                	mv	a0,a5
    8000027e:	00000097          	auipc	ra,0x0
    80000282:	f24080e7          	jalr	-220(ra) # 800001a2 <w_tp>
    80000286:	30200073          	mret
    8000028a:	0001                	nop
    8000028c:	60e2                	ld	ra,24(sp)
    8000028e:	6442                	ld	s0,16(sp)
    80000290:	6105                	addi	sp,sp,32
    80000292:	8082                	ret

0000000080000294 <timerinit>:
    80000294:	1101                	addi	sp,sp,-32
    80000296:	ec06                	sd	ra,24(sp)
    80000298:	e822                	sd	s0,16(sp)
    8000029a:	1000                	addi	s0,sp,32
    8000029c:	00000097          	auipc	ra,0x0
    800002a0:	d80080e7          	jalr	-640(ra) # 8000001c <r_mhartid>
    800002a4:	87aa                	mv	a5,a0
    800002a6:	fef42623          	sw	a5,-20(s0)
    800002aa:	000f47b7          	lui	a5,0xf4
    800002ae:	24078793          	addi	a5,a5,576 # f4240 <_entry-0x7ff0bdc0>
    800002b2:	fef42423          	sw	a5,-24(s0)
    800002b6:	0200c7b7          	lui	a5,0x200c
    800002ba:	17e1                	addi	a5,a5,-8 # 200bff8 <_entry-0x7dff4008>
    800002bc:	6398                	ld	a4,0(a5)
    800002be:	fe842783          	lw	a5,-24(s0)
    800002c2:	fec42683          	lw	a3,-20(s0)
    800002c6:	0036969b          	slliw	a3,a3,0x3
    800002ca:	2681                	sext.w	a3,a3
    800002cc:	8636                	mv	a2,a3
    800002ce:	020046b7          	lui	a3,0x2004
    800002d2:	96b2                	add	a3,a3,a2
    800002d4:	97ba                	add	a5,a5,a4
    800002d6:	e29c                	sd	a5,0(a3)
    800002d8:	fec42783          	lw	a5,-20(s0)
    800002dc:	0057979b          	slliw	a5,a5,0x5
    800002e0:	2781                	sext.w	a5,a5
    800002e2:	00379713          	slli	a4,a5,0x3
    800002e6:	00015797          	auipc	a5,0x15
    800002ea:	d4a78793          	addi	a5,a5,-694 # 80015030 <mscratch0>
    800002ee:	97ba                	add	a5,a5,a4
    800002f0:	fef43023          	sd	a5,-32(s0)
    800002f4:	fec42783          	lw	a5,-20(s0)
    800002f8:	0037979b          	slliw	a5,a5,0x3
    800002fc:	2781                	sext.w	a5,a5
    800002fe:	873e                	mv	a4,a5
    80000300:	020047b7          	lui	a5,0x2004
    80000304:	973e                	add	a4,a4,a5
    80000306:	fe043783          	ld	a5,-32(s0)
    8000030a:	02078793          	addi	a5,a5,32 # 2004020 <_entry-0x7dffbfe0>
    8000030e:	e398                	sd	a4,0(a5)
    80000310:	fe043783          	ld	a5,-32(s0)
    80000314:	02878793          	addi	a5,a5,40
    80000318:	fe842703          	lw	a4,-24(s0)
    8000031c:	e398                	sd	a4,0(a5)
    8000031e:	fe043783          	ld	a5,-32(s0)
    80000322:	853e                	mv	a0,a5
    80000324:	00000097          	auipc	ra,0x0
    80000328:	e64080e7          	jalr	-412(ra) # 80000188 <w_mscratch>
    8000032c:	00009797          	auipc	a5,0x9
    80000330:	c7478793          	addi	a5,a5,-908 # 80008fa0 <timervec>
    80000334:	853e                	mv	a0,a5
    80000336:	00000097          	auipc	ra,0x0
    8000033a:	dea080e7          	jalr	-534(ra) # 80000120 <w_mtvec>
    8000033e:	00000097          	auipc	ra,0x0
    80000342:	cf8080e7          	jalr	-776(ra) # 80000036 <r_mstatus>
    80000346:	87aa                	mv	a5,a0
    80000348:	0087e793          	ori	a5,a5,8
    8000034c:	853e                	mv	a0,a5
    8000034e:	00000097          	auipc	ra,0x0
    80000352:	d02080e7          	jalr	-766(ra) # 80000050 <w_mstatus>
    80000356:	00000097          	auipc	ra,0x0
    8000035a:	d62080e7          	jalr	-670(ra) # 800000b8 <r_mie>
    8000035e:	87aa                	mv	a5,a0
    80000360:	0807e793          	ori	a5,a5,128
    80000364:	853e                	mv	a0,a5
    80000366:	00000097          	auipc	ra,0x0
    8000036a:	d6c080e7          	jalr	-660(ra) # 800000d2 <w_mie>
    8000036e:	0001                	nop
    80000370:	60e2                	ld	ra,24(sp)
    80000372:	6442                	ld	s0,16(sp)
    80000374:	6105                	addi	sp,sp,32
    80000376:	8082                	ret

0000000080000378 <consputc>:
    80000378:	1101                	addi	sp,sp,-32
    8000037a:	ec06                	sd	ra,24(sp)
    8000037c:	e822                	sd	s0,16(sp)
    8000037e:	1000                	addi	s0,sp,32
    80000380:	87aa                	mv	a5,a0
    80000382:	fef42623          	sw	a5,-20(s0)
    80000386:	fec42783          	lw	a5,-20(s0)
    8000038a:	0007871b          	sext.w	a4,a5
    8000038e:	10000793          	li	a5,256
    80000392:	02f71363          	bne	a4,a5,800003b8 <consputc+0x40>
    80000396:	4521                	li	a0,8
    80000398:	00001097          	auipc	ra,0x1
    8000039c:	af6080e7          	jalr	-1290(ra) # 80000e8e <uartputc_sync>
    800003a0:	02000513          	li	a0,32
    800003a4:	00001097          	auipc	ra,0x1
    800003a8:	aea080e7          	jalr	-1302(ra) # 80000e8e <uartputc_sync>
    800003ac:	4521                	li	a0,8
    800003ae:	00001097          	auipc	ra,0x1
    800003b2:	ae0080e7          	jalr	-1312(ra) # 80000e8e <uartputc_sync>
    800003b6:	a801                	j	800003c6 <consputc+0x4e>
    800003b8:	fec42783          	lw	a5,-20(s0)
    800003bc:	853e                	mv	a0,a5
    800003be:	00001097          	auipc	ra,0x1
    800003c2:	ad0080e7          	jalr	-1328(ra) # 80000e8e <uartputc_sync>
    800003c6:	0001                	nop
    800003c8:	60e2                	ld	ra,24(sp)
    800003ca:	6442                	ld	s0,16(sp)
    800003cc:	6105                	addi	sp,sp,32
    800003ce:	8082                	ret

00000000800003d0 <consolewrite>:
    800003d0:	7179                	addi	sp,sp,-48
    800003d2:	f406                	sd	ra,40(sp)
    800003d4:	f022                	sd	s0,32(sp)
    800003d6:	1800                	addi	s0,sp,48
    800003d8:	87aa                	mv	a5,a0
    800003da:	fcb43823          	sd	a1,-48(s0)
    800003de:	8732                	mv	a4,a2
    800003e0:	fcf42e23          	sw	a5,-36(s0)
    800003e4:	87ba                	mv	a5,a4
    800003e6:	fcf42c23          	sw	a5,-40(s0)
    800003ea:	00015517          	auipc	a0,0x15
    800003ee:	44650513          	addi	a0,a0,1094 # 80015830 <cons>
    800003f2:	00001097          	auipc	ra,0x1
    800003f6:	ee0080e7          	jalr	-288(ra) # 800012d2 <acquire>
    800003fa:	fe042623          	sw	zero,-20(s0)
    800003fe:	a0a1                	j	80000446 <consolewrite+0x76>
    80000400:	fec42703          	lw	a4,-20(s0)
    80000404:	fd043783          	ld	a5,-48(s0)
    80000408:	00f70633          	add	a2,a4,a5
    8000040c:	fdc42703          	lw	a4,-36(s0)
    80000410:	feb40793          	addi	a5,s0,-21
    80000414:	4685                	li	a3,1
    80000416:	85ba                	mv	a1,a4
    80000418:	853e                	mv	a0,a5
    8000041a:	00003097          	auipc	ra,0x3
    8000041e:	77e080e7          	jalr	1918(ra) # 80003b98 <either_copyin>
    80000422:	87aa                	mv	a5,a0
    80000424:	873e                	mv	a4,a5
    80000426:	57fd                	li	a5,-1
    80000428:	02f70963          	beq	a4,a5,8000045a <consolewrite+0x8a>
    8000042c:	feb44783          	lbu	a5,-21(s0)
    80000430:	2781                	sext.w	a5,a5
    80000432:	853e                	mv	a0,a5
    80000434:	00001097          	auipc	ra,0x1
    80000438:	96e080e7          	jalr	-1682(ra) # 80000da2 <uartputc>
    8000043c:	fec42783          	lw	a5,-20(s0)
    80000440:	2785                	addiw	a5,a5,1
    80000442:	fef42623          	sw	a5,-20(s0)
    80000446:	fec42783          	lw	a5,-20(s0)
    8000044a:	873e                	mv	a4,a5
    8000044c:	fd842783          	lw	a5,-40(s0)
    80000450:	2701                	sext.w	a4,a4
    80000452:	2781                	sext.w	a5,a5
    80000454:	faf746e3          	blt	a4,a5,80000400 <consolewrite+0x30>
    80000458:	a011                	j	8000045c <consolewrite+0x8c>
    8000045a:	0001                	nop
    8000045c:	00015517          	auipc	a0,0x15
    80000460:	3d450513          	addi	a0,a0,980 # 80015830 <cons>
    80000464:	00001097          	auipc	ra,0x1
    80000468:	ed2080e7          	jalr	-302(ra) # 80001336 <release>
    8000046c:	fec42783          	lw	a5,-20(s0)
    80000470:	853e                	mv	a0,a5
    80000472:	70a2                	ld	ra,40(sp)
    80000474:	7402                	ld	s0,32(sp)
    80000476:	6145                	addi	sp,sp,48
    80000478:	8082                	ret

000000008000047a <consoleread>:
    8000047a:	7179                	addi	sp,sp,-48
    8000047c:	f406                	sd	ra,40(sp)
    8000047e:	f022                	sd	s0,32(sp)
    80000480:	1800                	addi	s0,sp,48
    80000482:	87aa                	mv	a5,a0
    80000484:	fcb43823          	sd	a1,-48(s0)
    80000488:	8732                	mv	a4,a2
    8000048a:	fcf42e23          	sw	a5,-36(s0)
    8000048e:	87ba                	mv	a5,a4
    80000490:	fcf42c23          	sw	a5,-40(s0)
    80000494:	fd842783          	lw	a5,-40(s0)
    80000498:	fef42623          	sw	a5,-20(s0)
    8000049c:	00015517          	auipc	a0,0x15
    800004a0:	39450513          	addi	a0,a0,916 # 80015830 <cons>
    800004a4:	00001097          	auipc	ra,0x1
    800004a8:	e2e080e7          	jalr	-466(ra) # 800012d2 <acquire>
    800004ac:	a215                	j	800005d0 <consoleread+0x156>
    800004ae:	00002097          	auipc	ra,0x2
    800004b2:	4a4080e7          	jalr	1188(ra) # 80002952 <myproc>
    800004b6:	87aa                	mv	a5,a0
    800004b8:	5b9c                	lw	a5,48(a5)
    800004ba:	cb99                	beqz	a5,800004d0 <consoleread+0x56>
    800004bc:	00015517          	auipc	a0,0x15
    800004c0:	37450513          	addi	a0,a0,884 # 80015830 <cons>
    800004c4:	00001097          	auipc	ra,0x1
    800004c8:	e72080e7          	jalr	-398(ra) # 80001336 <release>
    800004cc:	57fd                	li	a5,-1
    800004ce:	aa25                	j	80000606 <consoleread+0x18c>
    800004d0:	00015597          	auipc	a1,0x15
    800004d4:	36058593          	addi	a1,a1,864 # 80015830 <cons>
    800004d8:	00015517          	auipc	a0,0x15
    800004dc:	3f050513          	addi	a0,a0,1008 # 800158c8 <cons+0x98>
    800004e0:	00003097          	auipc	ra,0x3
    800004e4:	432080e7          	jalr	1074(ra) # 80003912 <sleep>
    800004e8:	00015797          	auipc	a5,0x15
    800004ec:	34878793          	addi	a5,a5,840 # 80015830 <cons>
    800004f0:	0987a703          	lw	a4,152(a5)
    800004f4:	00015797          	auipc	a5,0x15
    800004f8:	33c78793          	addi	a5,a5,828 # 80015830 <cons>
    800004fc:	09c7a783          	lw	a5,156(a5)
    80000500:	faf707e3          	beq	a4,a5,800004ae <consoleread+0x34>
    80000504:	00015797          	auipc	a5,0x15
    80000508:	32c78793          	addi	a5,a5,812 # 80015830 <cons>
    8000050c:	0987a783          	lw	a5,152(a5)
    80000510:	2781                	sext.w	a5,a5
    80000512:	0017871b          	addiw	a4,a5,1
    80000516:	0007069b          	sext.w	a3,a4
    8000051a:	00015717          	auipc	a4,0x15
    8000051e:	31670713          	addi	a4,a4,790 # 80015830 <cons>
    80000522:	08d72c23          	sw	a3,152(a4)
    80000526:	07f7f793          	andi	a5,a5,127
    8000052a:	2781                	sext.w	a5,a5
    8000052c:	00015717          	auipc	a4,0x15
    80000530:	30470713          	addi	a4,a4,772 # 80015830 <cons>
    80000534:	1782                	slli	a5,a5,0x20
    80000536:	9381                	srli	a5,a5,0x20
    80000538:	97ba                	add	a5,a5,a4
    8000053a:	0187c783          	lbu	a5,24(a5)
    8000053e:	fef42423          	sw	a5,-24(s0)
    80000542:	fe842783          	lw	a5,-24(s0)
    80000546:	0007871b          	sext.w	a4,a5
    8000054a:	4791                	li	a5,4
    8000054c:	02f71963          	bne	a4,a5,8000057e <consoleread+0x104>
    80000550:	fd842703          	lw	a4,-40(s0)
    80000554:	fec42783          	lw	a5,-20(s0)
    80000558:	2781                	sext.w	a5,a5
    8000055a:	08f77163          	bgeu	a4,a5,800005dc <consoleread+0x162>
    8000055e:	00015797          	auipc	a5,0x15
    80000562:	2d278793          	addi	a5,a5,722 # 80015830 <cons>
    80000566:	0987a783          	lw	a5,152(a5)
    8000056a:	37fd                	addiw	a5,a5,-1
    8000056c:	0007871b          	sext.w	a4,a5
    80000570:	00015797          	auipc	a5,0x15
    80000574:	2c078793          	addi	a5,a5,704 # 80015830 <cons>
    80000578:	08e7ac23          	sw	a4,152(a5)
    8000057c:	a085                	j	800005dc <consoleread+0x162>
    8000057e:	fe842783          	lw	a5,-24(s0)
    80000582:	0ff7f793          	zext.b	a5,a5
    80000586:	fef403a3          	sb	a5,-25(s0)
    8000058a:	fe740713          	addi	a4,s0,-25
    8000058e:	fdc42783          	lw	a5,-36(s0)
    80000592:	4685                	li	a3,1
    80000594:	863a                	mv	a2,a4
    80000596:	fd043583          	ld	a1,-48(s0)
    8000059a:	853e                	mv	a0,a5
    8000059c:	00003097          	auipc	ra,0x3
    800005a0:	588080e7          	jalr	1416(ra) # 80003b24 <either_copyout>
    800005a4:	87aa                	mv	a5,a0
    800005a6:	873e                	mv	a4,a5
    800005a8:	57fd                	li	a5,-1
    800005aa:	02f70b63          	beq	a4,a5,800005e0 <consoleread+0x166>
    800005ae:	fd043783          	ld	a5,-48(s0)
    800005b2:	0785                	addi	a5,a5,1
    800005b4:	fcf43823          	sd	a5,-48(s0)
    800005b8:	fd842783          	lw	a5,-40(s0)
    800005bc:	37fd                	addiw	a5,a5,-1
    800005be:	fcf42c23          	sw	a5,-40(s0)
    800005c2:	fe842783          	lw	a5,-24(s0)
    800005c6:	0007871b          	sext.w	a4,a5
    800005ca:	47a9                	li	a5,10
    800005cc:	00f70c63          	beq	a4,a5,800005e4 <consoleread+0x16a>
    800005d0:	fd842783          	lw	a5,-40(s0)
    800005d4:	2781                	sext.w	a5,a5
    800005d6:	f0f049e3          	bgtz	a5,800004e8 <consoleread+0x6e>
    800005da:	a031                	j	800005e6 <consoleread+0x16c>
    800005dc:	0001                	nop
    800005de:	a021                	j	800005e6 <consoleread+0x16c>
    800005e0:	0001                	nop
    800005e2:	a011                	j	800005e6 <consoleread+0x16c>
    800005e4:	0001                	nop
    800005e6:	00015517          	auipc	a0,0x15
    800005ea:	24a50513          	addi	a0,a0,586 # 80015830 <cons>
    800005ee:	00001097          	auipc	ra,0x1
    800005f2:	d48080e7          	jalr	-696(ra) # 80001336 <release>
    800005f6:	fd842783          	lw	a5,-40(s0)
    800005fa:	fec42703          	lw	a4,-20(s0)
    800005fe:	40f707bb          	subw	a5,a4,a5
    80000602:	2781                	sext.w	a5,a5
    80000604:	2781                	sext.w	a5,a5
    80000606:	853e                	mv	a0,a5
    80000608:	70a2                	ld	ra,40(sp)
    8000060a:	7402                	ld	s0,32(sp)
    8000060c:	6145                	addi	sp,sp,48
    8000060e:	8082                	ret

0000000080000610 <consoleintr>:
    80000610:	1101                	addi	sp,sp,-32
    80000612:	ec06                	sd	ra,24(sp)
    80000614:	e822                	sd	s0,16(sp)
    80000616:	1000                	addi	s0,sp,32
    80000618:	87aa                	mv	a5,a0
    8000061a:	fef42623          	sw	a5,-20(s0)
    8000061e:	00015517          	auipc	a0,0x15
    80000622:	21250513          	addi	a0,a0,530 # 80015830 <cons>
    80000626:	00001097          	auipc	ra,0x1
    8000062a:	cac080e7          	jalr	-852(ra) # 800012d2 <acquire>
    8000062e:	fec42783          	lw	a5,-20(s0)
    80000632:	0007871b          	sext.w	a4,a5
    80000636:	07f00793          	li	a5,127
    8000063a:	0cf70763          	beq	a4,a5,80000708 <consoleintr+0xf8>
    8000063e:	fec42783          	lw	a5,-20(s0)
    80000642:	0007871b          	sext.w	a4,a5
    80000646:	07f00793          	li	a5,127
    8000064a:	10e7c363          	blt	a5,a4,80000750 <consoleintr+0x140>
    8000064e:	fec42783          	lw	a5,-20(s0)
    80000652:	0007871b          	sext.w	a4,a5
    80000656:	47d5                	li	a5,21
    80000658:	06f70163          	beq	a4,a5,800006ba <consoleintr+0xaa>
    8000065c:	fec42783          	lw	a5,-20(s0)
    80000660:	0007871b          	sext.w	a4,a5
    80000664:	47d5                	li	a5,21
    80000666:	0ee7c563          	blt	a5,a4,80000750 <consoleintr+0x140>
    8000066a:	fec42783          	lw	a5,-20(s0)
    8000066e:	0007871b          	sext.w	a4,a5
    80000672:	47a1                	li	a5,8
    80000674:	08f70a63          	beq	a4,a5,80000708 <consoleintr+0xf8>
    80000678:	fec42783          	lw	a5,-20(s0)
    8000067c:	0007871b          	sext.w	a4,a5
    80000680:	47c1                	li	a5,16
    80000682:	0cf71763          	bne	a4,a5,80000750 <consoleintr+0x140>
    80000686:	00003097          	auipc	ra,0x3
    8000068a:	586080e7          	jalr	1414(ra) # 80003c0c <procdump>
    8000068e:	aac1                	j	8000085e <consoleintr+0x24e>
    80000690:	00015797          	auipc	a5,0x15
    80000694:	1a078793          	addi	a5,a5,416 # 80015830 <cons>
    80000698:	0a07a783          	lw	a5,160(a5)
    8000069c:	37fd                	addiw	a5,a5,-1
    8000069e:	0007871b          	sext.w	a4,a5
    800006a2:	00015797          	auipc	a5,0x15
    800006a6:	18e78793          	addi	a5,a5,398 # 80015830 <cons>
    800006aa:	0ae7a023          	sw	a4,160(a5)
    800006ae:	10000513          	li	a0,256
    800006b2:	00000097          	auipc	ra,0x0
    800006b6:	cc6080e7          	jalr	-826(ra) # 80000378 <consputc>
    800006ba:	00015797          	auipc	a5,0x15
    800006be:	17678793          	addi	a5,a5,374 # 80015830 <cons>
    800006c2:	0a07a703          	lw	a4,160(a5)
    800006c6:	00015797          	auipc	a5,0x15
    800006ca:	16a78793          	addi	a5,a5,362 # 80015830 <cons>
    800006ce:	09c7a783          	lw	a5,156(a5)
    800006d2:	18f70163          	beq	a4,a5,80000854 <consoleintr+0x244>
    800006d6:	00015797          	auipc	a5,0x15
    800006da:	15a78793          	addi	a5,a5,346 # 80015830 <cons>
    800006de:	0a07a783          	lw	a5,160(a5)
    800006e2:	37fd                	addiw	a5,a5,-1
    800006e4:	2781                	sext.w	a5,a5
    800006e6:	07f7f793          	andi	a5,a5,127
    800006ea:	2781                	sext.w	a5,a5
    800006ec:	00015717          	auipc	a4,0x15
    800006f0:	14470713          	addi	a4,a4,324 # 80015830 <cons>
    800006f4:	1782                	slli	a5,a5,0x20
    800006f6:	9381                	srli	a5,a5,0x20
    800006f8:	97ba                	add	a5,a5,a4
    800006fa:	0187c783          	lbu	a5,24(a5)
    800006fe:	873e                	mv	a4,a5
    80000700:	47a9                	li	a5,10
    80000702:	f8f717e3          	bne	a4,a5,80000690 <consoleintr+0x80>
    80000706:	a2b9                	j	80000854 <consoleintr+0x244>
    80000708:	00015797          	auipc	a5,0x15
    8000070c:	12878793          	addi	a5,a5,296 # 80015830 <cons>
    80000710:	0a07a703          	lw	a4,160(a5)
    80000714:	00015797          	auipc	a5,0x15
    80000718:	11c78793          	addi	a5,a5,284 # 80015830 <cons>
    8000071c:	09c7a783          	lw	a5,156(a5)
    80000720:	12f70c63          	beq	a4,a5,80000858 <consoleintr+0x248>
    80000724:	00015797          	auipc	a5,0x15
    80000728:	10c78793          	addi	a5,a5,268 # 80015830 <cons>
    8000072c:	0a07a783          	lw	a5,160(a5)
    80000730:	37fd                	addiw	a5,a5,-1
    80000732:	0007871b          	sext.w	a4,a5
    80000736:	00015797          	auipc	a5,0x15
    8000073a:	0fa78793          	addi	a5,a5,250 # 80015830 <cons>
    8000073e:	0ae7a023          	sw	a4,160(a5)
    80000742:	10000513          	li	a0,256
    80000746:	00000097          	auipc	ra,0x0
    8000074a:	c32080e7          	jalr	-974(ra) # 80000378 <consputc>
    8000074e:	a229                	j	80000858 <consoleintr+0x248>
    80000750:	fec42783          	lw	a5,-20(s0)
    80000754:	2781                	sext.w	a5,a5
    80000756:	10078363          	beqz	a5,8000085c <consoleintr+0x24c>
    8000075a:	00015797          	auipc	a5,0x15
    8000075e:	0d678793          	addi	a5,a5,214 # 80015830 <cons>
    80000762:	0a07a703          	lw	a4,160(a5)
    80000766:	00015797          	auipc	a5,0x15
    8000076a:	0ca78793          	addi	a5,a5,202 # 80015830 <cons>
    8000076e:	0987a783          	lw	a5,152(a5)
    80000772:	40f707bb          	subw	a5,a4,a5
    80000776:	2781                	sext.w	a5,a5
    80000778:	873e                	mv	a4,a5
    8000077a:	07f00793          	li	a5,127
    8000077e:	0ce7ef63          	bltu	a5,a4,8000085c <consoleintr+0x24c>
    80000782:	fec42783          	lw	a5,-20(s0)
    80000786:	0007871b          	sext.w	a4,a5
    8000078a:	47b5                	li	a5,13
    8000078c:	00f70563          	beq	a4,a5,80000796 <consoleintr+0x186>
    80000790:	fec42783          	lw	a5,-20(s0)
    80000794:	a011                	j	80000798 <consoleintr+0x188>
    80000796:	47a9                	li	a5,10
    80000798:	fef42623          	sw	a5,-20(s0)
    8000079c:	fec42783          	lw	a5,-20(s0)
    800007a0:	853e                	mv	a0,a5
    800007a2:	00000097          	auipc	ra,0x0
    800007a6:	bd6080e7          	jalr	-1066(ra) # 80000378 <consputc>
    800007aa:	00015797          	auipc	a5,0x15
    800007ae:	08678793          	addi	a5,a5,134 # 80015830 <cons>
    800007b2:	0a07a783          	lw	a5,160(a5)
    800007b6:	2781                	sext.w	a5,a5
    800007b8:	0017871b          	addiw	a4,a5,1
    800007bc:	0007069b          	sext.w	a3,a4
    800007c0:	00015717          	auipc	a4,0x15
    800007c4:	07070713          	addi	a4,a4,112 # 80015830 <cons>
    800007c8:	0ad72023          	sw	a3,160(a4)
    800007cc:	07f7f793          	andi	a5,a5,127
    800007d0:	2781                	sext.w	a5,a5
    800007d2:	fec42703          	lw	a4,-20(s0)
    800007d6:	0ff77713          	zext.b	a4,a4
    800007da:	00015697          	auipc	a3,0x15
    800007de:	05668693          	addi	a3,a3,86 # 80015830 <cons>
    800007e2:	1782                	slli	a5,a5,0x20
    800007e4:	9381                	srli	a5,a5,0x20
    800007e6:	97b6                	add	a5,a5,a3
    800007e8:	00e78c23          	sb	a4,24(a5)
    800007ec:	fec42783          	lw	a5,-20(s0)
    800007f0:	0007871b          	sext.w	a4,a5
    800007f4:	47a9                	li	a5,10
    800007f6:	02f70a63          	beq	a4,a5,8000082a <consoleintr+0x21a>
    800007fa:	fec42783          	lw	a5,-20(s0)
    800007fe:	0007871b          	sext.w	a4,a5
    80000802:	4791                	li	a5,4
    80000804:	02f70363          	beq	a4,a5,8000082a <consoleintr+0x21a>
    80000808:	00015797          	auipc	a5,0x15
    8000080c:	02878793          	addi	a5,a5,40 # 80015830 <cons>
    80000810:	0a07a703          	lw	a4,160(a5)
    80000814:	00015797          	auipc	a5,0x15
    80000818:	01c78793          	addi	a5,a5,28 # 80015830 <cons>
    8000081c:	0987a783          	lw	a5,152(a5)
    80000820:	0807879b          	addiw	a5,a5,128
    80000824:	2781                	sext.w	a5,a5
    80000826:	02f71b63          	bne	a4,a5,8000085c <consoleintr+0x24c>
    8000082a:	00015797          	auipc	a5,0x15
    8000082e:	00678793          	addi	a5,a5,6 # 80015830 <cons>
    80000832:	0a07a703          	lw	a4,160(a5)
    80000836:	00015797          	auipc	a5,0x15
    8000083a:	ffa78793          	addi	a5,a5,-6 # 80015830 <cons>
    8000083e:	08e7ae23          	sw	a4,156(a5)
    80000842:	00015517          	auipc	a0,0x15
    80000846:	08650513          	addi	a0,a0,134 # 800158c8 <cons+0x98>
    8000084a:	00003097          	auipc	ra,0x3
    8000084e:	15c080e7          	jalr	348(ra) # 800039a6 <wakeup>
    80000852:	a029                	j	8000085c <consoleintr+0x24c>
    80000854:	0001                	nop
    80000856:	a021                	j	8000085e <consoleintr+0x24e>
    80000858:	0001                	nop
    8000085a:	a011                	j	8000085e <consoleintr+0x24e>
    8000085c:	0001                	nop
    8000085e:	00015517          	auipc	a0,0x15
    80000862:	fd250513          	addi	a0,a0,-46 # 80015830 <cons>
    80000866:	00001097          	auipc	ra,0x1
    8000086a:	ad0080e7          	jalr	-1328(ra) # 80001336 <release>
    8000086e:	0001                	nop
    80000870:	60e2                	ld	ra,24(sp)
    80000872:	6442                	ld	s0,16(sp)
    80000874:	6105                	addi	sp,sp,32
    80000876:	8082                	ret

0000000080000878 <consoleinit>:
    80000878:	1141                	addi	sp,sp,-16
    8000087a:	e406                	sd	ra,8(sp)
    8000087c:	e022                	sd	s0,0(sp)
    8000087e:	0800                	addi	s0,sp,16
    80000880:	0000b597          	auipc	a1,0xb
    80000884:	78058593          	addi	a1,a1,1920 # 8000c000 <etext>
    80000888:	00015517          	auipc	a0,0x15
    8000088c:	fa850513          	addi	a0,a0,-88 # 80015830 <cons>
    80000890:	00001097          	auipc	ra,0x1
    80000894:	a12080e7          	jalr	-1518(ra) # 800012a2 <initlock>
    80000898:	00000097          	auipc	ra,0x0
    8000089c:	490080e7          	jalr	1168(ra) # 80000d28 <uartinit>
    800008a0:	00025797          	auipc	a5,0x25
    800008a4:	11878793          	addi	a5,a5,280 # 800259b8 <devsw>
    800008a8:	00000717          	auipc	a4,0x0
    800008ac:	bd270713          	addi	a4,a4,-1070 # 8000047a <consoleread>
    800008b0:	eb98                	sd	a4,16(a5)
    800008b2:	00025797          	auipc	a5,0x25
    800008b6:	10678793          	addi	a5,a5,262 # 800259b8 <devsw>
    800008ba:	00000717          	auipc	a4,0x0
    800008be:	b1670713          	addi	a4,a4,-1258 # 800003d0 <consolewrite>
    800008c2:	ef98                	sd	a4,24(a5)
    800008c4:	0001                	nop
    800008c6:	60a2                	ld	ra,8(sp)
    800008c8:	6402                	ld	s0,0(sp)
    800008ca:	0141                	addi	sp,sp,16
    800008cc:	8082                	ret

00000000800008ce <printint>:
    800008ce:	7139                	addi	sp,sp,-64
    800008d0:	fc06                	sd	ra,56(sp)
    800008d2:	f822                	sd	s0,48(sp)
    800008d4:	0080                	addi	s0,sp,64
    800008d6:	87aa                	mv	a5,a0
    800008d8:	86ae                	mv	a3,a1
    800008da:	8732                	mv	a4,a2
    800008dc:	fcf42623          	sw	a5,-52(s0)
    800008e0:	87b6                	mv	a5,a3
    800008e2:	fcf42423          	sw	a5,-56(s0)
    800008e6:	87ba                	mv	a5,a4
    800008e8:	fcf42223          	sw	a5,-60(s0)
    800008ec:	fc442783          	lw	a5,-60(s0)
    800008f0:	2781                	sext.w	a5,a5
    800008f2:	c78d                	beqz	a5,8000091c <printint+0x4e>
    800008f4:	fcc42783          	lw	a5,-52(s0)
    800008f8:	01f7d79b          	srliw	a5,a5,0x1f
    800008fc:	0ff7f793          	zext.b	a5,a5
    80000900:	fcf42223          	sw	a5,-60(s0)
    80000904:	fc442783          	lw	a5,-60(s0)
    80000908:	2781                	sext.w	a5,a5
    8000090a:	cb89                	beqz	a5,8000091c <printint+0x4e>
    8000090c:	fcc42783          	lw	a5,-52(s0)
    80000910:	40f007bb          	negw	a5,a5
    80000914:	2781                	sext.w	a5,a5
    80000916:	fef42423          	sw	a5,-24(s0)
    8000091a:	a029                	j	80000924 <printint+0x56>
    8000091c:	fcc42783          	lw	a5,-52(s0)
    80000920:	fef42423          	sw	a5,-24(s0)
    80000924:	fe042623          	sw	zero,-20(s0)
    80000928:	fc842783          	lw	a5,-56(s0)
    8000092c:	fe842703          	lw	a4,-24(s0)
    80000930:	02f777bb          	remuw	a5,a4,a5
    80000934:	0007861b          	sext.w	a2,a5
    80000938:	fec42783          	lw	a5,-20(s0)
    8000093c:	0017871b          	addiw	a4,a5,1
    80000940:	fee42623          	sw	a4,-20(s0)
    80000944:	0000c697          	auipc	a3,0xc
    80000948:	f2c68693          	addi	a3,a3,-212 # 8000c870 <digits>
    8000094c:	02061713          	slli	a4,a2,0x20
    80000950:	9301                	srli	a4,a4,0x20
    80000952:	9736                	add	a4,a4,a3
    80000954:	00074703          	lbu	a4,0(a4)
    80000958:	17c1                	addi	a5,a5,-16
    8000095a:	97a2                	add	a5,a5,s0
    8000095c:	fee78423          	sb	a4,-24(a5)
    80000960:	fc842783          	lw	a5,-56(s0)
    80000964:	fe842703          	lw	a4,-24(s0)
    80000968:	02f757bb          	divuw	a5,a4,a5
    8000096c:	fef42423          	sw	a5,-24(s0)
    80000970:	fe842783          	lw	a5,-24(s0)
    80000974:	2781                	sext.w	a5,a5
    80000976:	fbcd                	bnez	a5,80000928 <printint+0x5a>
    80000978:	fc442783          	lw	a5,-60(s0)
    8000097c:	2781                	sext.w	a5,a5
    8000097e:	cb95                	beqz	a5,800009b2 <printint+0xe4>
    80000980:	fec42783          	lw	a5,-20(s0)
    80000984:	0017871b          	addiw	a4,a5,1
    80000988:	fee42623          	sw	a4,-20(s0)
    8000098c:	17c1                	addi	a5,a5,-16
    8000098e:	97a2                	add	a5,a5,s0
    80000990:	02d00713          	li	a4,45
    80000994:	fee78423          	sb	a4,-24(a5)
    80000998:	a829                	j	800009b2 <printint+0xe4>
    8000099a:	fec42783          	lw	a5,-20(s0)
    8000099e:	17c1                	addi	a5,a5,-16
    800009a0:	97a2                	add	a5,a5,s0
    800009a2:	fe87c783          	lbu	a5,-24(a5)
    800009a6:	2781                	sext.w	a5,a5
    800009a8:	853e                	mv	a0,a5
    800009aa:	00000097          	auipc	ra,0x0
    800009ae:	9ce080e7          	jalr	-1586(ra) # 80000378 <consputc>
    800009b2:	fec42783          	lw	a5,-20(s0)
    800009b6:	37fd                	addiw	a5,a5,-1
    800009b8:	fef42623          	sw	a5,-20(s0)
    800009bc:	fec42783          	lw	a5,-20(s0)
    800009c0:	2781                	sext.w	a5,a5
    800009c2:	fc07dce3          	bgez	a5,8000099a <printint+0xcc>
    800009c6:	0001                	nop
    800009c8:	0001                	nop
    800009ca:	70e2                	ld	ra,56(sp)
    800009cc:	7442                	ld	s0,48(sp)
    800009ce:	6121                	addi	sp,sp,64
    800009d0:	8082                	ret

00000000800009d2 <printptr>:
    800009d2:	7179                	addi	sp,sp,-48
    800009d4:	f406                	sd	ra,40(sp)
    800009d6:	f022                	sd	s0,32(sp)
    800009d8:	1800                	addi	s0,sp,48
    800009da:	fca43c23          	sd	a0,-40(s0)
    800009de:	03000513          	li	a0,48
    800009e2:	00000097          	auipc	ra,0x0
    800009e6:	996080e7          	jalr	-1642(ra) # 80000378 <consputc>
    800009ea:	07800513          	li	a0,120
    800009ee:	00000097          	auipc	ra,0x0
    800009f2:	98a080e7          	jalr	-1654(ra) # 80000378 <consputc>
    800009f6:	fe042623          	sw	zero,-20(s0)
    800009fa:	a81d                	j	80000a30 <printptr+0x5e>
    800009fc:	fd843783          	ld	a5,-40(s0)
    80000a00:	93f1                	srli	a5,a5,0x3c
    80000a02:	0000c717          	auipc	a4,0xc
    80000a06:	e6e70713          	addi	a4,a4,-402 # 8000c870 <digits>
    80000a0a:	97ba                	add	a5,a5,a4
    80000a0c:	0007c783          	lbu	a5,0(a5)
    80000a10:	2781                	sext.w	a5,a5
    80000a12:	853e                	mv	a0,a5
    80000a14:	00000097          	auipc	ra,0x0
    80000a18:	964080e7          	jalr	-1692(ra) # 80000378 <consputc>
    80000a1c:	fec42783          	lw	a5,-20(s0)
    80000a20:	2785                	addiw	a5,a5,1
    80000a22:	fef42623          	sw	a5,-20(s0)
    80000a26:	fd843783          	ld	a5,-40(s0)
    80000a2a:	0792                	slli	a5,a5,0x4
    80000a2c:	fcf43c23          	sd	a5,-40(s0)
    80000a30:	fec42783          	lw	a5,-20(s0)
    80000a34:	873e                	mv	a4,a5
    80000a36:	47bd                	li	a5,15
    80000a38:	fce7f2e3          	bgeu	a5,a4,800009fc <printptr+0x2a>
    80000a3c:	0001                	nop
    80000a3e:	0001                	nop
    80000a40:	70a2                	ld	ra,40(sp)
    80000a42:	7402                	ld	s0,32(sp)
    80000a44:	6145                	addi	sp,sp,48
    80000a46:	8082                	ret

0000000080000a48 <printf>:
    80000a48:	7119                	addi	sp,sp,-128
    80000a4a:	fc06                	sd	ra,56(sp)
    80000a4c:	f822                	sd	s0,48(sp)
    80000a4e:	0080                	addi	s0,sp,64
    80000a50:	fca43423          	sd	a0,-56(s0)
    80000a54:	e40c                	sd	a1,8(s0)
    80000a56:	e810                	sd	a2,16(s0)
    80000a58:	ec14                	sd	a3,24(s0)
    80000a5a:	f018                	sd	a4,32(s0)
    80000a5c:	f41c                	sd	a5,40(s0)
    80000a5e:	03043823          	sd	a6,48(s0)
    80000a62:	03143c23          	sd	a7,56(s0)
    80000a66:	00015797          	auipc	a5,0x15
    80000a6a:	e7278793          	addi	a5,a5,-398 # 800158d8 <pr>
    80000a6e:	4f9c                	lw	a5,24(a5)
    80000a70:	fcf42e23          	sw	a5,-36(s0)
    80000a74:	fdc42783          	lw	a5,-36(s0)
    80000a78:	2781                	sext.w	a5,a5
    80000a7a:	cb89                	beqz	a5,80000a8c <printf+0x44>
    80000a7c:	00015517          	auipc	a0,0x15
    80000a80:	e5c50513          	addi	a0,a0,-420 # 800158d8 <pr>
    80000a84:	00001097          	auipc	ra,0x1
    80000a88:	84e080e7          	jalr	-1970(ra) # 800012d2 <acquire>
    80000a8c:	fc843783          	ld	a5,-56(s0)
    80000a90:	eb89                	bnez	a5,80000aa2 <printf+0x5a>
    80000a92:	0000b517          	auipc	a0,0xb
    80000a96:	57650513          	addi	a0,a0,1398 # 8000c008 <etext+0x8>
    80000a9a:	00000097          	auipc	ra,0x0
    80000a9e:	204080e7          	jalr	516(ra) # 80000c9e <panic>
    80000aa2:	04040793          	addi	a5,s0,64
    80000aa6:	fcf43023          	sd	a5,-64(s0)
    80000aaa:	fc043783          	ld	a5,-64(s0)
    80000aae:	fc878793          	addi	a5,a5,-56
    80000ab2:	fcf43823          	sd	a5,-48(s0)
    80000ab6:	fe042623          	sw	zero,-20(s0)
    80000aba:	a24d                	j	80000c5c <printf+0x214>
    80000abc:	fd842783          	lw	a5,-40(s0)
    80000ac0:	0007871b          	sext.w	a4,a5
    80000ac4:	02500793          	li	a5,37
    80000ac8:	00f70a63          	beq	a4,a5,80000adc <printf+0x94>
    80000acc:	fd842783          	lw	a5,-40(s0)
    80000ad0:	853e                	mv	a0,a5
    80000ad2:	00000097          	auipc	ra,0x0
    80000ad6:	8a6080e7          	jalr	-1882(ra) # 80000378 <consputc>
    80000ada:	aaa5                	j	80000c52 <printf+0x20a>
    80000adc:	fec42783          	lw	a5,-20(s0)
    80000ae0:	2785                	addiw	a5,a5,1
    80000ae2:	fef42623          	sw	a5,-20(s0)
    80000ae6:	fec42783          	lw	a5,-20(s0)
    80000aea:	fc843703          	ld	a4,-56(s0)
    80000aee:	97ba                	add	a5,a5,a4
    80000af0:	0007c783          	lbu	a5,0(a5)
    80000af4:	fcf42c23          	sw	a5,-40(s0)
    80000af8:	fd842783          	lw	a5,-40(s0)
    80000afc:	2781                	sext.w	a5,a5
    80000afe:	16078e63          	beqz	a5,80000c7a <printf+0x232>
    80000b02:	fd842783          	lw	a5,-40(s0)
    80000b06:	0007871b          	sext.w	a4,a5
    80000b0a:	07800793          	li	a5,120
    80000b0e:	08f70963          	beq	a4,a5,80000ba0 <printf+0x158>
    80000b12:	fd842783          	lw	a5,-40(s0)
    80000b16:	0007871b          	sext.w	a4,a5
    80000b1a:	07800793          	li	a5,120
    80000b1e:	10e7cc63          	blt	a5,a4,80000c36 <printf+0x1ee>
    80000b22:	fd842783          	lw	a5,-40(s0)
    80000b26:	0007871b          	sext.w	a4,a5
    80000b2a:	07300793          	li	a5,115
    80000b2e:	0af70563          	beq	a4,a5,80000bd8 <printf+0x190>
    80000b32:	fd842783          	lw	a5,-40(s0)
    80000b36:	0007871b          	sext.w	a4,a5
    80000b3a:	07300793          	li	a5,115
    80000b3e:	0ee7cc63          	blt	a5,a4,80000c36 <printf+0x1ee>
    80000b42:	fd842783          	lw	a5,-40(s0)
    80000b46:	0007871b          	sext.w	a4,a5
    80000b4a:	07000793          	li	a5,112
    80000b4e:	06f70863          	beq	a4,a5,80000bbe <printf+0x176>
    80000b52:	fd842783          	lw	a5,-40(s0)
    80000b56:	0007871b          	sext.w	a4,a5
    80000b5a:	07000793          	li	a5,112
    80000b5e:	0ce7cc63          	blt	a5,a4,80000c36 <printf+0x1ee>
    80000b62:	fd842783          	lw	a5,-40(s0)
    80000b66:	0007871b          	sext.w	a4,a5
    80000b6a:	02500793          	li	a5,37
    80000b6e:	0af70d63          	beq	a4,a5,80000c28 <printf+0x1e0>
    80000b72:	fd842783          	lw	a5,-40(s0)
    80000b76:	0007871b          	sext.w	a4,a5
    80000b7a:	06400793          	li	a5,100
    80000b7e:	0af71c63          	bne	a4,a5,80000c36 <printf+0x1ee>
    80000b82:	fd043783          	ld	a5,-48(s0)
    80000b86:	00878713          	addi	a4,a5,8
    80000b8a:	fce43823          	sd	a4,-48(s0)
    80000b8e:	439c                	lw	a5,0(a5)
    80000b90:	4605                	li	a2,1
    80000b92:	45a9                	li	a1,10
    80000b94:	853e                	mv	a0,a5
    80000b96:	00000097          	auipc	ra,0x0
    80000b9a:	d38080e7          	jalr	-712(ra) # 800008ce <printint>
    80000b9e:	a855                	j	80000c52 <printf+0x20a>
    80000ba0:	fd043783          	ld	a5,-48(s0)
    80000ba4:	00878713          	addi	a4,a5,8
    80000ba8:	fce43823          	sd	a4,-48(s0)
    80000bac:	439c                	lw	a5,0(a5)
    80000bae:	4605                	li	a2,1
    80000bb0:	45c1                	li	a1,16
    80000bb2:	853e                	mv	a0,a5
    80000bb4:	00000097          	auipc	ra,0x0
    80000bb8:	d1a080e7          	jalr	-742(ra) # 800008ce <printint>
    80000bbc:	a859                	j	80000c52 <printf+0x20a>
    80000bbe:	fd043783          	ld	a5,-48(s0)
    80000bc2:	00878713          	addi	a4,a5,8
    80000bc6:	fce43823          	sd	a4,-48(s0)
    80000bca:	639c                	ld	a5,0(a5)
    80000bcc:	853e                	mv	a0,a5
    80000bce:	00000097          	auipc	ra,0x0
    80000bd2:	e04080e7          	jalr	-508(ra) # 800009d2 <printptr>
    80000bd6:	a8b5                	j	80000c52 <printf+0x20a>
    80000bd8:	fd043783          	ld	a5,-48(s0)
    80000bdc:	00878713          	addi	a4,a5,8
    80000be0:	fce43823          	sd	a4,-48(s0)
    80000be4:	639c                	ld	a5,0(a5)
    80000be6:	fef43023          	sd	a5,-32(s0)
    80000bea:	fe043783          	ld	a5,-32(s0)
    80000bee:	e79d                	bnez	a5,80000c1c <printf+0x1d4>
    80000bf0:	0000b797          	auipc	a5,0xb
    80000bf4:	42878793          	addi	a5,a5,1064 # 8000c018 <etext+0x18>
    80000bf8:	fef43023          	sd	a5,-32(s0)
    80000bfc:	a005                	j	80000c1c <printf+0x1d4>
    80000bfe:	fe043783          	ld	a5,-32(s0)
    80000c02:	0007c783          	lbu	a5,0(a5)
    80000c06:	2781                	sext.w	a5,a5
    80000c08:	853e                	mv	a0,a5
    80000c0a:	fffff097          	auipc	ra,0xfffff
    80000c0e:	76e080e7          	jalr	1902(ra) # 80000378 <consputc>
    80000c12:	fe043783          	ld	a5,-32(s0)
    80000c16:	0785                	addi	a5,a5,1
    80000c18:	fef43023          	sd	a5,-32(s0)
    80000c1c:	fe043783          	ld	a5,-32(s0)
    80000c20:	0007c783          	lbu	a5,0(a5)
    80000c24:	ffe9                	bnez	a5,80000bfe <printf+0x1b6>
    80000c26:	a035                	j	80000c52 <printf+0x20a>
    80000c28:	02500513          	li	a0,37
    80000c2c:	fffff097          	auipc	ra,0xfffff
    80000c30:	74c080e7          	jalr	1868(ra) # 80000378 <consputc>
    80000c34:	a839                	j	80000c52 <printf+0x20a>
    80000c36:	02500513          	li	a0,37
    80000c3a:	fffff097          	auipc	ra,0xfffff
    80000c3e:	73e080e7          	jalr	1854(ra) # 80000378 <consputc>
    80000c42:	fd842783          	lw	a5,-40(s0)
    80000c46:	853e                	mv	a0,a5
    80000c48:	fffff097          	auipc	ra,0xfffff
    80000c4c:	730080e7          	jalr	1840(ra) # 80000378 <consputc>
    80000c50:	0001                	nop
    80000c52:	fec42783          	lw	a5,-20(s0)
    80000c56:	2785                	addiw	a5,a5,1
    80000c58:	fef42623          	sw	a5,-20(s0)
    80000c5c:	fec42783          	lw	a5,-20(s0)
    80000c60:	fc843703          	ld	a4,-56(s0)
    80000c64:	97ba                	add	a5,a5,a4
    80000c66:	0007c783          	lbu	a5,0(a5)
    80000c6a:	fcf42c23          	sw	a5,-40(s0)
    80000c6e:	fd842783          	lw	a5,-40(s0)
    80000c72:	2781                	sext.w	a5,a5
    80000c74:	e40794e3          	bnez	a5,80000abc <printf+0x74>
    80000c78:	a011                	j	80000c7c <printf+0x234>
    80000c7a:	0001                	nop
    80000c7c:	fdc42783          	lw	a5,-36(s0)
    80000c80:	2781                	sext.w	a5,a5
    80000c82:	cb89                	beqz	a5,80000c94 <printf+0x24c>
    80000c84:	00015517          	auipc	a0,0x15
    80000c88:	c5450513          	addi	a0,a0,-940 # 800158d8 <pr>
    80000c8c:	00000097          	auipc	ra,0x0
    80000c90:	6aa080e7          	jalr	1706(ra) # 80001336 <release>
    80000c94:	0001                	nop
    80000c96:	70e2                	ld	ra,56(sp)
    80000c98:	7442                	ld	s0,48(sp)
    80000c9a:	6109                	addi	sp,sp,128
    80000c9c:	8082                	ret

0000000080000c9e <panic>:
    80000c9e:	1101                	addi	sp,sp,-32
    80000ca0:	ec06                	sd	ra,24(sp)
    80000ca2:	e822                	sd	s0,16(sp)
    80000ca4:	1000                	addi	s0,sp,32
    80000ca6:	fea43423          	sd	a0,-24(s0)
    80000caa:	00015797          	auipc	a5,0x15
    80000cae:	c2e78793          	addi	a5,a5,-978 # 800158d8 <pr>
    80000cb2:	0007ac23          	sw	zero,24(a5)
    80000cb6:	0000b517          	auipc	a0,0xb
    80000cba:	36a50513          	addi	a0,a0,874 # 8000c020 <etext+0x20>
    80000cbe:	00000097          	auipc	ra,0x0
    80000cc2:	d8a080e7          	jalr	-630(ra) # 80000a48 <printf>
    80000cc6:	fe843503          	ld	a0,-24(s0)
    80000cca:	00000097          	auipc	ra,0x0
    80000cce:	d7e080e7          	jalr	-642(ra) # 80000a48 <printf>
    80000cd2:	0000b517          	auipc	a0,0xb
    80000cd6:	35650513          	addi	a0,a0,854 # 8000c028 <etext+0x28>
    80000cda:	00000097          	auipc	ra,0x0
    80000cde:	d6e080e7          	jalr	-658(ra) # 80000a48 <printf>
    80000ce2:	0000c797          	auipc	a5,0xc
    80000ce6:	31e78793          	addi	a5,a5,798 # 8000d000 <panicked>
    80000cea:	4705                	li	a4,1
    80000cec:	c398                	sw	a4,0(a5)
    80000cee:	0001                	nop
    80000cf0:	bffd                	j	80000cee <panic+0x50>

0000000080000cf2 <printfinit>:
    80000cf2:	1141                	addi	sp,sp,-16
    80000cf4:	e406                	sd	ra,8(sp)
    80000cf6:	e022                	sd	s0,0(sp)
    80000cf8:	0800                	addi	s0,sp,16
    80000cfa:	0000b597          	auipc	a1,0xb
    80000cfe:	33658593          	addi	a1,a1,822 # 8000c030 <etext+0x30>
    80000d02:	00015517          	auipc	a0,0x15
    80000d06:	bd650513          	addi	a0,a0,-1066 # 800158d8 <pr>
    80000d0a:	00000097          	auipc	ra,0x0
    80000d0e:	598080e7          	jalr	1432(ra) # 800012a2 <initlock>
    80000d12:	00015797          	auipc	a5,0x15
    80000d16:	bc678793          	addi	a5,a5,-1082 # 800158d8 <pr>
    80000d1a:	4705                	li	a4,1
    80000d1c:	cf98                	sw	a4,24(a5)
    80000d1e:	0001                	nop
    80000d20:	60a2                	ld	ra,8(sp)
    80000d22:	6402                	ld	s0,0(sp)
    80000d24:	0141                	addi	sp,sp,16
    80000d26:	8082                	ret

0000000080000d28 <uartinit>:
    80000d28:	1141                	addi	sp,sp,-16
    80000d2a:	e406                	sd	ra,8(sp)
    80000d2c:	e022                	sd	s0,0(sp)
    80000d2e:	0800                	addi	s0,sp,16
    80000d30:	100007b7          	lui	a5,0x10000
    80000d34:	0785                	addi	a5,a5,1 # 10000001 <_entry-0x6fffffff>
    80000d36:	00078023          	sb	zero,0(a5)
    80000d3a:	100007b7          	lui	a5,0x10000
    80000d3e:	078d                	addi	a5,a5,3 # 10000003 <_entry-0x6ffffffd>
    80000d40:	f8000713          	li	a4,-128
    80000d44:	00e78023          	sb	a4,0(a5)
    80000d48:	100007b7          	lui	a5,0x10000
    80000d4c:	470d                	li	a4,3
    80000d4e:	00e78023          	sb	a4,0(a5) # 10000000 <_entry-0x70000000>
    80000d52:	100007b7          	lui	a5,0x10000
    80000d56:	0785                	addi	a5,a5,1 # 10000001 <_entry-0x6fffffff>
    80000d58:	00078023          	sb	zero,0(a5)
    80000d5c:	100007b7          	lui	a5,0x10000
    80000d60:	078d                	addi	a5,a5,3 # 10000003 <_entry-0x6ffffffd>
    80000d62:	470d                	li	a4,3
    80000d64:	00e78023          	sb	a4,0(a5)
    80000d68:	100007b7          	lui	a5,0x10000
    80000d6c:	0789                	addi	a5,a5,2 # 10000002 <_entry-0x6ffffffe>
    80000d6e:	471d                	li	a4,7
    80000d70:	00e78023          	sb	a4,0(a5)
    80000d74:	100007b7          	lui	a5,0x10000
    80000d78:	0785                	addi	a5,a5,1 # 10000001 <_entry-0x6fffffff>
    80000d7a:	470d                	li	a4,3
    80000d7c:	00e78023          	sb	a4,0(a5)
    80000d80:	0000b597          	auipc	a1,0xb
    80000d84:	2b858593          	addi	a1,a1,696 # 8000c038 <etext+0x38>
    80000d88:	00015517          	auipc	a0,0x15
    80000d8c:	b7050513          	addi	a0,a0,-1168 # 800158f8 <uart_tx_lock>
    80000d90:	00000097          	auipc	ra,0x0
    80000d94:	512080e7          	jalr	1298(ra) # 800012a2 <initlock>
    80000d98:	0001                	nop
    80000d9a:	60a2                	ld	ra,8(sp)
    80000d9c:	6402                	ld	s0,0(sp)
    80000d9e:	0141                	addi	sp,sp,16
    80000da0:	8082                	ret

0000000080000da2 <uartputc>:
    80000da2:	1101                	addi	sp,sp,-32
    80000da4:	ec06                	sd	ra,24(sp)
    80000da6:	e822                	sd	s0,16(sp)
    80000da8:	1000                	addi	s0,sp,32
    80000daa:	87aa                	mv	a5,a0
    80000dac:	fef42623          	sw	a5,-20(s0)
    80000db0:	00015517          	auipc	a0,0x15
    80000db4:	b4850513          	addi	a0,a0,-1208 # 800158f8 <uart_tx_lock>
    80000db8:	00000097          	auipc	ra,0x0
    80000dbc:	51a080e7          	jalr	1306(ra) # 800012d2 <acquire>
    80000dc0:	0000c797          	auipc	a5,0xc
    80000dc4:	24078793          	addi	a5,a5,576 # 8000d000 <panicked>
    80000dc8:	439c                	lw	a5,0(a5)
    80000dca:	2781                	sext.w	a5,a5
    80000dcc:	c399                	beqz	a5,80000dd2 <uartputc+0x30>
    80000dce:	0001                	nop
    80000dd0:	bffd                	j	80000dce <uartputc+0x2c>
    80000dd2:	0000c797          	auipc	a5,0xc
    80000dd6:	23278793          	addi	a5,a5,562 # 8000d004 <uart_tx_w>
    80000dda:	439c                	lw	a5,0(a5)
    80000ddc:	2785                	addiw	a5,a5,1
    80000dde:	2781                	sext.w	a5,a5
    80000de0:	873e                	mv	a4,a5
    80000de2:	41f7579b          	sraiw	a5,a4,0x1f
    80000de6:	01b7d79b          	srliw	a5,a5,0x1b
    80000dea:	9f3d                	addw	a4,a4,a5
    80000dec:	8b7d                	andi	a4,a4,31
    80000dee:	40f707bb          	subw	a5,a4,a5
    80000df2:	0007871b          	sext.w	a4,a5
    80000df6:	0000c797          	auipc	a5,0xc
    80000dfa:	21278793          	addi	a5,a5,530 # 8000d008 <uart_tx_r>
    80000dfe:	439c                	lw	a5,0(a5)
    80000e00:	00f71f63          	bne	a4,a5,80000e1e <uartputc+0x7c>
    80000e04:	00015597          	auipc	a1,0x15
    80000e08:	af458593          	addi	a1,a1,-1292 # 800158f8 <uart_tx_lock>
    80000e0c:	0000c517          	auipc	a0,0xc
    80000e10:	1fc50513          	addi	a0,a0,508 # 8000d008 <uart_tx_r>
    80000e14:	00003097          	auipc	ra,0x3
    80000e18:	afe080e7          	jalr	-1282(ra) # 80003912 <sleep>
    80000e1c:	bf5d                	j	80000dd2 <uartputc+0x30>
    80000e1e:	0000c797          	auipc	a5,0xc
    80000e22:	1e678793          	addi	a5,a5,486 # 8000d004 <uart_tx_w>
    80000e26:	439c                	lw	a5,0(a5)
    80000e28:	fec42703          	lw	a4,-20(s0)
    80000e2c:	0ff77713          	zext.b	a4,a4
    80000e30:	00015697          	auipc	a3,0x15
    80000e34:	ae068693          	addi	a3,a3,-1312 # 80015910 <uart_tx_buf>
    80000e38:	97b6                	add	a5,a5,a3
    80000e3a:	00e78023          	sb	a4,0(a5)
    80000e3e:	0000c797          	auipc	a5,0xc
    80000e42:	1c678793          	addi	a5,a5,454 # 8000d004 <uart_tx_w>
    80000e46:	439c                	lw	a5,0(a5)
    80000e48:	2785                	addiw	a5,a5,1
    80000e4a:	2781                	sext.w	a5,a5
    80000e4c:	873e                	mv	a4,a5
    80000e4e:	41f7579b          	sraiw	a5,a4,0x1f
    80000e52:	01b7d79b          	srliw	a5,a5,0x1b
    80000e56:	9f3d                	addw	a4,a4,a5
    80000e58:	8b7d                	andi	a4,a4,31
    80000e5a:	40f707bb          	subw	a5,a4,a5
    80000e5e:	0007871b          	sext.w	a4,a5
    80000e62:	0000c797          	auipc	a5,0xc
    80000e66:	1a278793          	addi	a5,a5,418 # 8000d004 <uart_tx_w>
    80000e6a:	c398                	sw	a4,0(a5)
    80000e6c:	00000097          	auipc	ra,0x0
    80000e70:	086080e7          	jalr	134(ra) # 80000ef2 <uartstart>
    80000e74:	00015517          	auipc	a0,0x15
    80000e78:	a8450513          	addi	a0,a0,-1404 # 800158f8 <uart_tx_lock>
    80000e7c:	00000097          	auipc	ra,0x0
    80000e80:	4ba080e7          	jalr	1210(ra) # 80001336 <release>
    80000e84:	0001                	nop
    80000e86:	60e2                	ld	ra,24(sp)
    80000e88:	6442                	ld	s0,16(sp)
    80000e8a:	6105                	addi	sp,sp,32
    80000e8c:	8082                	ret

0000000080000e8e <uartputc_sync>:
    80000e8e:	1101                	addi	sp,sp,-32
    80000e90:	ec06                	sd	ra,24(sp)
    80000e92:	e822                	sd	s0,16(sp)
    80000e94:	1000                	addi	s0,sp,32
    80000e96:	87aa                	mv	a5,a0
    80000e98:	fef42623          	sw	a5,-20(s0)
    80000e9c:	00000097          	auipc	ra,0x0
    80000ea0:	534080e7          	jalr	1332(ra) # 800013d0 <push_off>
    80000ea4:	0000c797          	auipc	a5,0xc
    80000ea8:	15c78793          	addi	a5,a5,348 # 8000d000 <panicked>
    80000eac:	439c                	lw	a5,0(a5)
    80000eae:	2781                	sext.w	a5,a5
    80000eb0:	c399                	beqz	a5,80000eb6 <uartputc_sync+0x28>
    80000eb2:	0001                	nop
    80000eb4:	bffd                	j	80000eb2 <uartputc_sync+0x24>
    80000eb6:	0001                	nop
    80000eb8:	100007b7          	lui	a5,0x10000
    80000ebc:	0795                	addi	a5,a5,5 # 10000005 <_entry-0x6ffffffb>
    80000ebe:	0007c783          	lbu	a5,0(a5)
    80000ec2:	0ff7f793          	zext.b	a5,a5
    80000ec6:	2781                	sext.w	a5,a5
    80000ec8:	0207f793          	andi	a5,a5,32
    80000ecc:	2781                	sext.w	a5,a5
    80000ece:	d7ed                	beqz	a5,80000eb8 <uartputc_sync+0x2a>
    80000ed0:	100007b7          	lui	a5,0x10000
    80000ed4:	fec42703          	lw	a4,-20(s0)
    80000ed8:	0ff77713          	zext.b	a4,a4
    80000edc:	00e78023          	sb	a4,0(a5) # 10000000 <_entry-0x70000000>
    80000ee0:	00000097          	auipc	ra,0x0
    80000ee4:	548080e7          	jalr	1352(ra) # 80001428 <pop_off>
    80000ee8:	0001                	nop
    80000eea:	60e2                	ld	ra,24(sp)
    80000eec:	6442                	ld	s0,16(sp)
    80000eee:	6105                	addi	sp,sp,32
    80000ef0:	8082                	ret

0000000080000ef2 <uartstart>:
    80000ef2:	1101                	addi	sp,sp,-32
    80000ef4:	ec06                	sd	ra,24(sp)
    80000ef6:	e822                	sd	s0,16(sp)
    80000ef8:	1000                	addi	s0,sp,32
    80000efa:	0000c797          	auipc	a5,0xc
    80000efe:	10a78793          	addi	a5,a5,266 # 8000d004 <uart_tx_w>
    80000f02:	4398                	lw	a4,0(a5)
    80000f04:	0000c797          	auipc	a5,0xc
    80000f08:	10478793          	addi	a5,a5,260 # 8000d008 <uart_tx_r>
    80000f0c:	439c                	lw	a5,0(a5)
    80000f0e:	08f70463          	beq	a4,a5,80000f96 <uartstart+0xa4>
    80000f12:	100007b7          	lui	a5,0x10000
    80000f16:	0795                	addi	a5,a5,5 # 10000005 <_entry-0x6ffffffb>
    80000f18:	0007c783          	lbu	a5,0(a5)
    80000f1c:	0ff7f793          	zext.b	a5,a5
    80000f20:	2781                	sext.w	a5,a5
    80000f22:	0207f793          	andi	a5,a5,32
    80000f26:	2781                	sext.w	a5,a5
    80000f28:	cbad                	beqz	a5,80000f9a <uartstart+0xa8>
    80000f2a:	0000c797          	auipc	a5,0xc
    80000f2e:	0de78793          	addi	a5,a5,222 # 8000d008 <uart_tx_r>
    80000f32:	439c                	lw	a5,0(a5)
    80000f34:	00015717          	auipc	a4,0x15
    80000f38:	9dc70713          	addi	a4,a4,-1572 # 80015910 <uart_tx_buf>
    80000f3c:	97ba                	add	a5,a5,a4
    80000f3e:	0007c783          	lbu	a5,0(a5)
    80000f42:	fef42623          	sw	a5,-20(s0)
    80000f46:	0000c797          	auipc	a5,0xc
    80000f4a:	0c278793          	addi	a5,a5,194 # 8000d008 <uart_tx_r>
    80000f4e:	439c                	lw	a5,0(a5)
    80000f50:	2785                	addiw	a5,a5,1
    80000f52:	2781                	sext.w	a5,a5
    80000f54:	873e                	mv	a4,a5
    80000f56:	41f7579b          	sraiw	a5,a4,0x1f
    80000f5a:	01b7d79b          	srliw	a5,a5,0x1b
    80000f5e:	9f3d                	addw	a4,a4,a5
    80000f60:	8b7d                	andi	a4,a4,31
    80000f62:	40f707bb          	subw	a5,a4,a5
    80000f66:	0007871b          	sext.w	a4,a5
    80000f6a:	0000c797          	auipc	a5,0xc
    80000f6e:	09e78793          	addi	a5,a5,158 # 8000d008 <uart_tx_r>
    80000f72:	c398                	sw	a4,0(a5)
    80000f74:	0000c517          	auipc	a0,0xc
    80000f78:	09450513          	addi	a0,a0,148 # 8000d008 <uart_tx_r>
    80000f7c:	00003097          	auipc	ra,0x3
    80000f80:	a2a080e7          	jalr	-1494(ra) # 800039a6 <wakeup>
    80000f84:	100007b7          	lui	a5,0x10000
    80000f88:	fec42703          	lw	a4,-20(s0)
    80000f8c:	0ff77713          	zext.b	a4,a4
    80000f90:	00e78023          	sb	a4,0(a5) # 10000000 <_entry-0x70000000>
    80000f94:	b79d                	j	80000efa <uartstart+0x8>
    80000f96:	0001                	nop
    80000f98:	a011                	j	80000f9c <uartstart+0xaa>
    80000f9a:	0001                	nop
    80000f9c:	60e2                	ld	ra,24(sp)
    80000f9e:	6442                	ld	s0,16(sp)
    80000fa0:	6105                	addi	sp,sp,32
    80000fa2:	8082                	ret

0000000080000fa4 <uartgetc>:
    80000fa4:	1141                	addi	sp,sp,-16
    80000fa6:	e422                	sd	s0,8(sp)
    80000fa8:	0800                	addi	s0,sp,16
    80000faa:	100007b7          	lui	a5,0x10000
    80000fae:	0795                	addi	a5,a5,5 # 10000005 <_entry-0x6ffffffb>
    80000fb0:	0007c783          	lbu	a5,0(a5)
    80000fb4:	0ff7f793          	zext.b	a5,a5
    80000fb8:	2781                	sext.w	a5,a5
    80000fba:	8b85                	andi	a5,a5,1
    80000fbc:	2781                	sext.w	a5,a5
    80000fbe:	cb89                	beqz	a5,80000fd0 <uartgetc+0x2c>
    80000fc0:	100007b7          	lui	a5,0x10000
    80000fc4:	0007c783          	lbu	a5,0(a5) # 10000000 <_entry-0x70000000>
    80000fc8:	0ff7f793          	zext.b	a5,a5
    80000fcc:	2781                	sext.w	a5,a5
    80000fce:	a011                	j	80000fd2 <uartgetc+0x2e>
    80000fd0:	57fd                	li	a5,-1
    80000fd2:	853e                	mv	a0,a5
    80000fd4:	6422                	ld	s0,8(sp)
    80000fd6:	0141                	addi	sp,sp,16
    80000fd8:	8082                	ret

0000000080000fda <uartintr>:
    80000fda:	1101                	addi	sp,sp,-32
    80000fdc:	ec06                	sd	ra,24(sp)
    80000fde:	e822                	sd	s0,16(sp)
    80000fe0:	1000                	addi	s0,sp,32
    80000fe2:	00000097          	auipc	ra,0x0
    80000fe6:	fc2080e7          	jalr	-62(ra) # 80000fa4 <uartgetc>
    80000fea:	87aa                	mv	a5,a0
    80000fec:	fef42623          	sw	a5,-20(s0)
    80000ff0:	fec42783          	lw	a5,-20(s0)
    80000ff4:	0007871b          	sext.w	a4,a5
    80000ff8:	57fd                	li	a5,-1
    80000ffa:	00f70a63          	beq	a4,a5,8000100e <uartintr+0x34>
    80000ffe:	fec42783          	lw	a5,-20(s0)
    80001002:	853e                	mv	a0,a5
    80001004:	fffff097          	auipc	ra,0xfffff
    80001008:	60c080e7          	jalr	1548(ra) # 80000610 <consoleintr>
    8000100c:	bfd9                	j	80000fe2 <uartintr+0x8>
    8000100e:	0001                	nop
    80001010:	00015517          	auipc	a0,0x15
    80001014:	8e850513          	addi	a0,a0,-1816 # 800158f8 <uart_tx_lock>
    80001018:	00000097          	auipc	ra,0x0
    8000101c:	2ba080e7          	jalr	698(ra) # 800012d2 <acquire>
    80001020:	00000097          	auipc	ra,0x0
    80001024:	ed2080e7          	jalr	-302(ra) # 80000ef2 <uartstart>
    80001028:	00015517          	auipc	a0,0x15
    8000102c:	8d050513          	addi	a0,a0,-1840 # 800158f8 <uart_tx_lock>
    80001030:	00000097          	auipc	ra,0x0
    80001034:	306080e7          	jalr	774(ra) # 80001336 <release>
    80001038:	0001                	nop
    8000103a:	60e2                	ld	ra,24(sp)
    8000103c:	6442                	ld	s0,16(sp)
    8000103e:	6105                	addi	sp,sp,32
    80001040:	8082                	ret

0000000080001042 <kinit>:
    80001042:	1141                	addi	sp,sp,-16
    80001044:	e406                	sd	ra,8(sp)
    80001046:	e022                	sd	s0,0(sp)
    80001048:	0800                	addi	s0,sp,16
    8000104a:	0000b597          	auipc	a1,0xb
    8000104e:	ff658593          	addi	a1,a1,-10 # 8000c040 <etext+0x40>
    80001052:	00015517          	auipc	a0,0x15
    80001056:	8de50513          	addi	a0,a0,-1826 # 80015930 <kmem>
    8000105a:	00000097          	auipc	ra,0x0
    8000105e:	248080e7          	jalr	584(ra) # 800012a2 <initlock>
    80001062:	47c5                	li	a5,17
    80001064:	01b79593          	slli	a1,a5,0x1b
    80001068:	0002a517          	auipc	a0,0x2a
    8000106c:	fc050513          	addi	a0,a0,-64 # 8002b028 <end>
    80001070:	00000097          	auipc	ra,0x0
    80001074:	012080e7          	jalr	18(ra) # 80001082 <freerange>
    80001078:	0001                	nop
    8000107a:	60a2                	ld	ra,8(sp)
    8000107c:	6402                	ld	s0,0(sp)
    8000107e:	0141                	addi	sp,sp,16
    80001080:	8082                	ret

0000000080001082 <freerange>:
    80001082:	7179                	addi	sp,sp,-48
    80001084:	f406                	sd	ra,40(sp)
    80001086:	f022                	sd	s0,32(sp)
    80001088:	1800                	addi	s0,sp,48
    8000108a:	fca43c23          	sd	a0,-40(s0)
    8000108e:	fcb43823          	sd	a1,-48(s0)
    80001092:	fd843703          	ld	a4,-40(s0)
    80001096:	6785                	lui	a5,0x1
    80001098:	17fd                	addi	a5,a5,-1 # fff <_entry-0x7ffff001>
    8000109a:	973e                	add	a4,a4,a5
    8000109c:	77fd                	lui	a5,0xfffff
    8000109e:	8ff9                	and	a5,a5,a4
    800010a0:	fef43423          	sd	a5,-24(s0)
    800010a4:	a829                	j	800010be <freerange+0x3c>
    800010a6:	fe843503          	ld	a0,-24(s0)
    800010aa:	00000097          	auipc	ra,0x0
    800010ae:	030080e7          	jalr	48(ra) # 800010da <kfree>
    800010b2:	fe843703          	ld	a4,-24(s0)
    800010b6:	6785                	lui	a5,0x1
    800010b8:	97ba                	add	a5,a5,a4
    800010ba:	fef43423          	sd	a5,-24(s0)
    800010be:	fe843703          	ld	a4,-24(s0)
    800010c2:	6785                	lui	a5,0x1
    800010c4:	97ba                	add	a5,a5,a4
    800010c6:	fd043703          	ld	a4,-48(s0)
    800010ca:	fcf77ee3          	bgeu	a4,a5,800010a6 <freerange+0x24>
    800010ce:	0001                	nop
    800010d0:	0001                	nop
    800010d2:	70a2                	ld	ra,40(sp)
    800010d4:	7402                	ld	s0,32(sp)
    800010d6:	6145                	addi	sp,sp,48
    800010d8:	8082                	ret

00000000800010da <kfree>:
    800010da:	7179                	addi	sp,sp,-48
    800010dc:	f406                	sd	ra,40(sp)
    800010de:	f022                	sd	s0,32(sp)
    800010e0:	1800                	addi	s0,sp,48
    800010e2:	fca43c23          	sd	a0,-40(s0)
    800010e6:	fd843703          	ld	a4,-40(s0)
    800010ea:	6785                	lui	a5,0x1
    800010ec:	17fd                	addi	a5,a5,-1 # fff <_entry-0x7ffff001>
    800010ee:	8ff9                	and	a5,a5,a4
    800010f0:	ef99                	bnez	a5,8000110e <kfree+0x34>
    800010f2:	fd843703          	ld	a4,-40(s0)
    800010f6:	0002a797          	auipc	a5,0x2a
    800010fa:	f3278793          	addi	a5,a5,-206 # 8002b028 <end>
    800010fe:	00f76863          	bltu	a4,a5,8000110e <kfree+0x34>
    80001102:	fd843703          	ld	a4,-40(s0)
    80001106:	47c5                	li	a5,17
    80001108:	07ee                	slli	a5,a5,0x1b
    8000110a:	00f76a63          	bltu	a4,a5,8000111e <kfree+0x44>
    8000110e:	0000b517          	auipc	a0,0xb
    80001112:	f3a50513          	addi	a0,a0,-198 # 8000c048 <etext+0x48>
    80001116:	00000097          	auipc	ra,0x0
    8000111a:	b88080e7          	jalr	-1144(ra) # 80000c9e <panic>
    8000111e:	6605                	lui	a2,0x1
    80001120:	4585                	li	a1,1
    80001122:	fd843503          	ld	a0,-40(s0)
    80001126:	00000097          	auipc	ra,0x0
    8000112a:	380080e7          	jalr	896(ra) # 800014a6 <memset>
    8000112e:	fd843783          	ld	a5,-40(s0)
    80001132:	fef43423          	sd	a5,-24(s0)
    80001136:	00014517          	auipc	a0,0x14
    8000113a:	7fa50513          	addi	a0,a0,2042 # 80015930 <kmem>
    8000113e:	00000097          	auipc	ra,0x0
    80001142:	194080e7          	jalr	404(ra) # 800012d2 <acquire>
    80001146:	00014797          	auipc	a5,0x14
    8000114a:	7ea78793          	addi	a5,a5,2026 # 80015930 <kmem>
    8000114e:	6f98                	ld	a4,24(a5)
    80001150:	fe843783          	ld	a5,-24(s0)
    80001154:	e398                	sd	a4,0(a5)
    80001156:	00014797          	auipc	a5,0x14
    8000115a:	7da78793          	addi	a5,a5,2010 # 80015930 <kmem>
    8000115e:	fe843703          	ld	a4,-24(s0)
    80001162:	ef98                	sd	a4,24(a5)
    80001164:	00014517          	auipc	a0,0x14
    80001168:	7cc50513          	addi	a0,a0,1996 # 80015930 <kmem>
    8000116c:	00000097          	auipc	ra,0x0
    80001170:	1ca080e7          	jalr	458(ra) # 80001336 <release>
    80001174:	0001                	nop
    80001176:	70a2                	ld	ra,40(sp)
    80001178:	7402                	ld	s0,32(sp)
    8000117a:	6145                	addi	sp,sp,48
    8000117c:	8082                	ret

000000008000117e <kalloc>:
    8000117e:	1101                	addi	sp,sp,-32
    80001180:	ec06                	sd	ra,24(sp)
    80001182:	e822                	sd	s0,16(sp)
    80001184:	1000                	addi	s0,sp,32
    80001186:	00014517          	auipc	a0,0x14
    8000118a:	7aa50513          	addi	a0,a0,1962 # 80015930 <kmem>
    8000118e:	00000097          	auipc	ra,0x0
    80001192:	144080e7          	jalr	324(ra) # 800012d2 <acquire>
    80001196:	00014797          	auipc	a5,0x14
    8000119a:	79a78793          	addi	a5,a5,1946 # 80015930 <kmem>
    8000119e:	6f9c                	ld	a5,24(a5)
    800011a0:	fef43423          	sd	a5,-24(s0)
    800011a4:	fe843783          	ld	a5,-24(s0)
    800011a8:	cb89                	beqz	a5,800011ba <kalloc+0x3c>
    800011aa:	fe843783          	ld	a5,-24(s0)
    800011ae:	6398                	ld	a4,0(a5)
    800011b0:	00014797          	auipc	a5,0x14
    800011b4:	78078793          	addi	a5,a5,1920 # 80015930 <kmem>
    800011b8:	ef98                	sd	a4,24(a5)
    800011ba:	00014517          	auipc	a0,0x14
    800011be:	77650513          	addi	a0,a0,1910 # 80015930 <kmem>
    800011c2:	00000097          	auipc	ra,0x0
    800011c6:	174080e7          	jalr	372(ra) # 80001336 <release>
    800011ca:	fe843783          	ld	a5,-24(s0)
    800011ce:	cb89                	beqz	a5,800011e0 <kalloc+0x62>
    800011d0:	6605                	lui	a2,0x1
    800011d2:	4595                	li	a1,5
    800011d4:	fe843503          	ld	a0,-24(s0)
    800011d8:	00000097          	auipc	ra,0x0
    800011dc:	2ce080e7          	jalr	718(ra) # 800014a6 <memset>
    800011e0:	fe843783          	ld	a5,-24(s0)
    800011e4:	853e                	mv	a0,a5
    800011e6:	60e2                	ld	ra,24(sp)
    800011e8:	6442                	ld	s0,16(sp)
    800011ea:	6105                	addi	sp,sp,32
    800011ec:	8082                	ret

00000000800011ee <r_sstatus>:
    800011ee:	1101                	addi	sp,sp,-32
    800011f0:	ec22                	sd	s0,24(sp)
    800011f2:	1000                	addi	s0,sp,32
    800011f4:	100027f3          	csrr	a5,sstatus
    800011f8:	fef43423          	sd	a5,-24(s0)
    800011fc:	fe843783          	ld	a5,-24(s0)
    80001200:	853e                	mv	a0,a5
    80001202:	6462                	ld	s0,24(sp)
    80001204:	6105                	addi	sp,sp,32
    80001206:	8082                	ret

0000000080001208 <w_sstatus>:
    80001208:	1101                	addi	sp,sp,-32
    8000120a:	ec22                	sd	s0,24(sp)
    8000120c:	1000                	addi	s0,sp,32
    8000120e:	fea43423          	sd	a0,-24(s0)
    80001212:	fe843783          	ld	a5,-24(s0)
    80001216:	10079073          	csrw	sstatus,a5
    8000121a:	0001                	nop
    8000121c:	6462                	ld	s0,24(sp)
    8000121e:	6105                	addi	sp,sp,32
    80001220:	8082                	ret

0000000080001222 <intr_on>:
    80001222:	1141                	addi	sp,sp,-16
    80001224:	e406                	sd	ra,8(sp)
    80001226:	e022                	sd	s0,0(sp)
    80001228:	0800                	addi	s0,sp,16
    8000122a:	00000097          	auipc	ra,0x0
    8000122e:	fc4080e7          	jalr	-60(ra) # 800011ee <r_sstatus>
    80001232:	87aa                	mv	a5,a0
    80001234:	0027e793          	ori	a5,a5,2
    80001238:	853e                	mv	a0,a5
    8000123a:	00000097          	auipc	ra,0x0
    8000123e:	fce080e7          	jalr	-50(ra) # 80001208 <w_sstatus>
    80001242:	0001                	nop
    80001244:	60a2                	ld	ra,8(sp)
    80001246:	6402                	ld	s0,0(sp)
    80001248:	0141                	addi	sp,sp,16
    8000124a:	8082                	ret

000000008000124c <intr_off>:
    8000124c:	1141                	addi	sp,sp,-16
    8000124e:	e406                	sd	ra,8(sp)
    80001250:	e022                	sd	s0,0(sp)
    80001252:	0800                	addi	s0,sp,16
    80001254:	00000097          	auipc	ra,0x0
    80001258:	f9a080e7          	jalr	-102(ra) # 800011ee <r_sstatus>
    8000125c:	87aa                	mv	a5,a0
    8000125e:	9bf5                	andi	a5,a5,-3
    80001260:	853e                	mv	a0,a5
    80001262:	00000097          	auipc	ra,0x0
    80001266:	fa6080e7          	jalr	-90(ra) # 80001208 <w_sstatus>
    8000126a:	0001                	nop
    8000126c:	60a2                	ld	ra,8(sp)
    8000126e:	6402                	ld	s0,0(sp)
    80001270:	0141                	addi	sp,sp,16
    80001272:	8082                	ret

0000000080001274 <intr_get>:
    80001274:	1101                	addi	sp,sp,-32
    80001276:	ec06                	sd	ra,24(sp)
    80001278:	e822                	sd	s0,16(sp)
    8000127a:	1000                	addi	s0,sp,32
    8000127c:	00000097          	auipc	ra,0x0
    80001280:	f72080e7          	jalr	-142(ra) # 800011ee <r_sstatus>
    80001284:	fea43423          	sd	a0,-24(s0)
    80001288:	fe843783          	ld	a5,-24(s0)
    8000128c:	8b89                	andi	a5,a5,2
    8000128e:	00f037b3          	snez	a5,a5
    80001292:	0ff7f793          	zext.b	a5,a5
    80001296:	2781                	sext.w	a5,a5
    80001298:	853e                	mv	a0,a5
    8000129a:	60e2                	ld	ra,24(sp)
    8000129c:	6442                	ld	s0,16(sp)
    8000129e:	6105                	addi	sp,sp,32
    800012a0:	8082                	ret

00000000800012a2 <initlock>:
    800012a2:	1101                	addi	sp,sp,-32
    800012a4:	ec22                	sd	s0,24(sp)
    800012a6:	1000                	addi	s0,sp,32
    800012a8:	fea43423          	sd	a0,-24(s0)
    800012ac:	feb43023          	sd	a1,-32(s0)
    800012b0:	fe843783          	ld	a5,-24(s0)
    800012b4:	fe043703          	ld	a4,-32(s0)
    800012b8:	e798                	sd	a4,8(a5)
    800012ba:	fe843783          	ld	a5,-24(s0)
    800012be:	0007a023          	sw	zero,0(a5)
    800012c2:	fe843783          	ld	a5,-24(s0)
    800012c6:	0007b823          	sd	zero,16(a5)
    800012ca:	0001                	nop
    800012cc:	6462                	ld	s0,24(sp)
    800012ce:	6105                	addi	sp,sp,32
    800012d0:	8082                	ret

00000000800012d2 <acquire>:
    800012d2:	1101                	addi	sp,sp,-32
    800012d4:	ec06                	sd	ra,24(sp)
    800012d6:	e822                	sd	s0,16(sp)
    800012d8:	1000                	addi	s0,sp,32
    800012da:	fea43423          	sd	a0,-24(s0)
    800012de:	00000097          	auipc	ra,0x0
    800012e2:	0f2080e7          	jalr	242(ra) # 800013d0 <push_off>
    800012e6:	fe843503          	ld	a0,-24(s0)
    800012ea:	00000097          	auipc	ra,0x0
    800012ee:	0a2080e7          	jalr	162(ra) # 8000138c <holding>
    800012f2:	87aa                	mv	a5,a0
    800012f4:	cb89                	beqz	a5,80001306 <acquire+0x34>
    800012f6:	0000b517          	auipc	a0,0xb
    800012fa:	d5a50513          	addi	a0,a0,-678 # 8000c050 <etext+0x50>
    800012fe:	00000097          	auipc	ra,0x0
    80001302:	9a0080e7          	jalr	-1632(ra) # 80000c9e <panic>
    80001306:	0001                	nop
    80001308:	fe843783          	ld	a5,-24(s0)
    8000130c:	4705                	li	a4,1
    8000130e:	0ce7a72f          	amoswap.w.aq	a4,a4,(a5)
    80001312:	0007079b          	sext.w	a5,a4
    80001316:	fbed                	bnez	a5,80001308 <acquire+0x36>
    80001318:	0330000f          	fence	rw,rw
    8000131c:	00001097          	auipc	ra,0x1
    80001320:	5fc080e7          	jalr	1532(ra) # 80002918 <mycpu>
    80001324:	872a                	mv	a4,a0
    80001326:	fe843783          	ld	a5,-24(s0)
    8000132a:	eb98                	sd	a4,16(a5)
    8000132c:	0001                	nop
    8000132e:	60e2                	ld	ra,24(sp)
    80001330:	6442                	ld	s0,16(sp)
    80001332:	6105                	addi	sp,sp,32
    80001334:	8082                	ret

0000000080001336 <release>:
    80001336:	1101                	addi	sp,sp,-32
    80001338:	ec06                	sd	ra,24(sp)
    8000133a:	e822                	sd	s0,16(sp)
    8000133c:	1000                	addi	s0,sp,32
    8000133e:	fea43423          	sd	a0,-24(s0)
    80001342:	fe843503          	ld	a0,-24(s0)
    80001346:	00000097          	auipc	ra,0x0
    8000134a:	046080e7          	jalr	70(ra) # 8000138c <holding>
    8000134e:	87aa                	mv	a5,a0
    80001350:	eb89                	bnez	a5,80001362 <release+0x2c>
    80001352:	0000b517          	auipc	a0,0xb
    80001356:	d0650513          	addi	a0,a0,-762 # 8000c058 <etext+0x58>
    8000135a:	00000097          	auipc	ra,0x0
    8000135e:	944080e7          	jalr	-1724(ra) # 80000c9e <panic>
    80001362:	fe843783          	ld	a5,-24(s0)
    80001366:	0007b823          	sd	zero,16(a5)
    8000136a:	0330000f          	fence	rw,rw
    8000136e:	fe843783          	ld	a5,-24(s0)
    80001372:	0310000f          	fence	rw,w
    80001376:	0007a023          	sw	zero,0(a5)
    8000137a:	00000097          	auipc	ra,0x0
    8000137e:	0ae080e7          	jalr	174(ra) # 80001428 <pop_off>
    80001382:	0001                	nop
    80001384:	60e2                	ld	ra,24(sp)
    80001386:	6442                	ld	s0,16(sp)
    80001388:	6105                	addi	sp,sp,32
    8000138a:	8082                	ret

000000008000138c <holding>:
    8000138c:	7139                	addi	sp,sp,-64
    8000138e:	fc06                	sd	ra,56(sp)
    80001390:	f822                	sd	s0,48(sp)
    80001392:	f426                	sd	s1,40(sp)
    80001394:	0080                	addi	s0,sp,64
    80001396:	fca43423          	sd	a0,-56(s0)
    8000139a:	fc843783          	ld	a5,-56(s0)
    8000139e:	439c                	lw	a5,0(a5)
    800013a0:	cf89                	beqz	a5,800013ba <holding+0x2e>
    800013a2:	fc843783          	ld	a5,-56(s0)
    800013a6:	6b84                	ld	s1,16(a5)
    800013a8:	00001097          	auipc	ra,0x1
    800013ac:	570080e7          	jalr	1392(ra) # 80002918 <mycpu>
    800013b0:	87aa                	mv	a5,a0
    800013b2:	00f49463          	bne	s1,a5,800013ba <holding+0x2e>
    800013b6:	4785                	li	a5,1
    800013b8:	a011                	j	800013bc <holding+0x30>
    800013ba:	4781                	li	a5,0
    800013bc:	fcf42e23          	sw	a5,-36(s0)
    800013c0:	fdc42783          	lw	a5,-36(s0)
    800013c4:	853e                	mv	a0,a5
    800013c6:	70e2                	ld	ra,56(sp)
    800013c8:	7442                	ld	s0,48(sp)
    800013ca:	74a2                	ld	s1,40(sp)
    800013cc:	6121                	addi	sp,sp,64
    800013ce:	8082                	ret

00000000800013d0 <push_off>:
    800013d0:	1101                	addi	sp,sp,-32
    800013d2:	ec06                	sd	ra,24(sp)
    800013d4:	e822                	sd	s0,16(sp)
    800013d6:	1000                	addi	s0,sp,32
    800013d8:	00000097          	auipc	ra,0x0
    800013dc:	e9c080e7          	jalr	-356(ra) # 80001274 <intr_get>
    800013e0:	87aa                	mv	a5,a0
    800013e2:	fef42623          	sw	a5,-20(s0)
    800013e6:	00000097          	auipc	ra,0x0
    800013ea:	e66080e7          	jalr	-410(ra) # 8000124c <intr_off>
    800013ee:	00001097          	auipc	ra,0x1
    800013f2:	52a080e7          	jalr	1322(ra) # 80002918 <mycpu>
    800013f6:	87aa                	mv	a5,a0
    800013f8:	5fbc                	lw	a5,120(a5)
    800013fa:	eb89                	bnez	a5,8000140c <push_off+0x3c>
    800013fc:	00001097          	auipc	ra,0x1
    80001400:	51c080e7          	jalr	1308(ra) # 80002918 <mycpu>
    80001404:	872a                	mv	a4,a0
    80001406:	fec42783          	lw	a5,-20(s0)
    8000140a:	df7c                	sw	a5,124(a4)
    8000140c:	00001097          	auipc	ra,0x1
    80001410:	50c080e7          	jalr	1292(ra) # 80002918 <mycpu>
    80001414:	87aa                	mv	a5,a0
    80001416:	5fb8                	lw	a4,120(a5)
    80001418:	2705                	addiw	a4,a4,1
    8000141a:	2701                	sext.w	a4,a4
    8000141c:	dfb8                	sw	a4,120(a5)
    8000141e:	0001                	nop
    80001420:	60e2                	ld	ra,24(sp)
    80001422:	6442                	ld	s0,16(sp)
    80001424:	6105                	addi	sp,sp,32
    80001426:	8082                	ret

0000000080001428 <pop_off>:
    80001428:	1101                	addi	sp,sp,-32
    8000142a:	ec06                	sd	ra,24(sp)
    8000142c:	e822                	sd	s0,16(sp)
    8000142e:	1000                	addi	s0,sp,32
    80001430:	00001097          	auipc	ra,0x1
    80001434:	4e8080e7          	jalr	1256(ra) # 80002918 <mycpu>
    80001438:	fea43423          	sd	a0,-24(s0)
    8000143c:	00000097          	auipc	ra,0x0
    80001440:	e38080e7          	jalr	-456(ra) # 80001274 <intr_get>
    80001444:	87aa                	mv	a5,a0
    80001446:	cb89                	beqz	a5,80001458 <pop_off+0x30>
    80001448:	0000b517          	auipc	a0,0xb
    8000144c:	c1850513          	addi	a0,a0,-1000 # 8000c060 <etext+0x60>
    80001450:	00000097          	auipc	ra,0x0
    80001454:	84e080e7          	jalr	-1970(ra) # 80000c9e <panic>
    80001458:	fe843783          	ld	a5,-24(s0)
    8000145c:	5fbc                	lw	a5,120(a5)
    8000145e:	00f04a63          	bgtz	a5,80001472 <pop_off+0x4a>
    80001462:	0000b517          	auipc	a0,0xb
    80001466:	c1650513          	addi	a0,a0,-1002 # 8000c078 <etext+0x78>
    8000146a:	00000097          	auipc	ra,0x0
    8000146e:	834080e7          	jalr	-1996(ra) # 80000c9e <panic>
    80001472:	fe843783          	ld	a5,-24(s0)
    80001476:	5fbc                	lw	a5,120(a5)
    80001478:	37fd                	addiw	a5,a5,-1
    8000147a:	0007871b          	sext.w	a4,a5
    8000147e:	fe843783          	ld	a5,-24(s0)
    80001482:	dfb8                	sw	a4,120(a5)
    80001484:	fe843783          	ld	a5,-24(s0)
    80001488:	5fbc                	lw	a5,120(a5)
    8000148a:	eb89                	bnez	a5,8000149c <pop_off+0x74>
    8000148c:	fe843783          	ld	a5,-24(s0)
    80001490:	5ffc                	lw	a5,124(a5)
    80001492:	c789                	beqz	a5,8000149c <pop_off+0x74>
    80001494:	00000097          	auipc	ra,0x0
    80001498:	d8e080e7          	jalr	-626(ra) # 80001222 <intr_on>
    8000149c:	0001                	nop
    8000149e:	60e2                	ld	ra,24(sp)
    800014a0:	6442                	ld	s0,16(sp)
    800014a2:	6105                	addi	sp,sp,32
    800014a4:	8082                	ret

00000000800014a6 <memset>:
    800014a6:	7179                	addi	sp,sp,-48
    800014a8:	f422                	sd	s0,40(sp)
    800014aa:	1800                	addi	s0,sp,48
    800014ac:	fca43c23          	sd	a0,-40(s0)
    800014b0:	87ae                	mv	a5,a1
    800014b2:	8732                	mv	a4,a2
    800014b4:	fcf42a23          	sw	a5,-44(s0)
    800014b8:	87ba                	mv	a5,a4
    800014ba:	fcf42823          	sw	a5,-48(s0)
    800014be:	fd843783          	ld	a5,-40(s0)
    800014c2:	fef43023          	sd	a5,-32(s0)
    800014c6:	fe042623          	sw	zero,-20(s0)
    800014ca:	a00d                	j	800014ec <memset+0x46>
    800014cc:	fec42783          	lw	a5,-20(s0)
    800014d0:	fe043703          	ld	a4,-32(s0)
    800014d4:	97ba                	add	a5,a5,a4
    800014d6:	fd442703          	lw	a4,-44(s0)
    800014da:	0ff77713          	zext.b	a4,a4
    800014de:	00e78023          	sb	a4,0(a5)
    800014e2:	fec42783          	lw	a5,-20(s0)
    800014e6:	2785                	addiw	a5,a5,1
    800014e8:	fef42623          	sw	a5,-20(s0)
    800014ec:	fec42703          	lw	a4,-20(s0)
    800014f0:	fd042783          	lw	a5,-48(s0)
    800014f4:	2781                	sext.w	a5,a5
    800014f6:	fcf76be3          	bltu	a4,a5,800014cc <memset+0x26>
    800014fa:	fd843783          	ld	a5,-40(s0)
    800014fe:	853e                	mv	a0,a5
    80001500:	7422                	ld	s0,40(sp)
    80001502:	6145                	addi	sp,sp,48
    80001504:	8082                	ret

0000000080001506 <memcmp>:
    80001506:	7139                	addi	sp,sp,-64
    80001508:	fc22                	sd	s0,56(sp)
    8000150a:	0080                	addi	s0,sp,64
    8000150c:	fca43c23          	sd	a0,-40(s0)
    80001510:	fcb43823          	sd	a1,-48(s0)
    80001514:	87b2                	mv	a5,a2
    80001516:	fcf42623          	sw	a5,-52(s0)
    8000151a:	fd843783          	ld	a5,-40(s0)
    8000151e:	fef43423          	sd	a5,-24(s0)
    80001522:	fd043783          	ld	a5,-48(s0)
    80001526:	fef43023          	sd	a5,-32(s0)
    8000152a:	a0a1                	j	80001572 <memcmp+0x6c>
    8000152c:	fe843783          	ld	a5,-24(s0)
    80001530:	0007c703          	lbu	a4,0(a5)
    80001534:	fe043783          	ld	a5,-32(s0)
    80001538:	0007c783          	lbu	a5,0(a5)
    8000153c:	02f70163          	beq	a4,a5,8000155e <memcmp+0x58>
    80001540:	fe843783          	ld	a5,-24(s0)
    80001544:	0007c783          	lbu	a5,0(a5)
    80001548:	0007871b          	sext.w	a4,a5
    8000154c:	fe043783          	ld	a5,-32(s0)
    80001550:	0007c783          	lbu	a5,0(a5)
    80001554:	2781                	sext.w	a5,a5
    80001556:	40f707bb          	subw	a5,a4,a5
    8000155a:	2781                	sext.w	a5,a5
    8000155c:	a01d                	j	80001582 <memcmp+0x7c>
    8000155e:	fe843783          	ld	a5,-24(s0)
    80001562:	0785                	addi	a5,a5,1
    80001564:	fef43423          	sd	a5,-24(s0)
    80001568:	fe043783          	ld	a5,-32(s0)
    8000156c:	0785                	addi	a5,a5,1
    8000156e:	fef43023          	sd	a5,-32(s0)
    80001572:	fcc42783          	lw	a5,-52(s0)
    80001576:	fff7871b          	addiw	a4,a5,-1
    8000157a:	fce42623          	sw	a4,-52(s0)
    8000157e:	f7dd                	bnez	a5,8000152c <memcmp+0x26>
    80001580:	4781                	li	a5,0
    80001582:	853e                	mv	a0,a5
    80001584:	7462                	ld	s0,56(sp)
    80001586:	6121                	addi	sp,sp,64
    80001588:	8082                	ret

000000008000158a <memmove>:
    8000158a:	7139                	addi	sp,sp,-64
    8000158c:	fc22                	sd	s0,56(sp)
    8000158e:	0080                	addi	s0,sp,64
    80001590:	fca43c23          	sd	a0,-40(s0)
    80001594:	fcb43823          	sd	a1,-48(s0)
    80001598:	87b2                	mv	a5,a2
    8000159a:	fcf42623          	sw	a5,-52(s0)
    8000159e:	fd043783          	ld	a5,-48(s0)
    800015a2:	fef43423          	sd	a5,-24(s0)
    800015a6:	fd843783          	ld	a5,-40(s0)
    800015aa:	fef43023          	sd	a5,-32(s0)
    800015ae:	fe843703          	ld	a4,-24(s0)
    800015b2:	fe043783          	ld	a5,-32(s0)
    800015b6:	08f77463          	bgeu	a4,a5,8000163e <memmove+0xb4>
    800015ba:	fcc46783          	lwu	a5,-52(s0)
    800015be:	fe843703          	ld	a4,-24(s0)
    800015c2:	97ba                	add	a5,a5,a4
    800015c4:	fe043703          	ld	a4,-32(s0)
    800015c8:	06f77b63          	bgeu	a4,a5,8000163e <memmove+0xb4>
    800015cc:	fcc46783          	lwu	a5,-52(s0)
    800015d0:	fe843703          	ld	a4,-24(s0)
    800015d4:	97ba                	add	a5,a5,a4
    800015d6:	fef43423          	sd	a5,-24(s0)
    800015da:	fcc46783          	lwu	a5,-52(s0)
    800015de:	fe043703          	ld	a4,-32(s0)
    800015e2:	97ba                	add	a5,a5,a4
    800015e4:	fef43023          	sd	a5,-32(s0)
    800015e8:	a01d                	j	8000160e <memmove+0x84>
    800015ea:	fe843783          	ld	a5,-24(s0)
    800015ee:	17fd                	addi	a5,a5,-1
    800015f0:	fef43423          	sd	a5,-24(s0)
    800015f4:	fe043783          	ld	a5,-32(s0)
    800015f8:	17fd                	addi	a5,a5,-1
    800015fa:	fef43023          	sd	a5,-32(s0)
    800015fe:	fe843783          	ld	a5,-24(s0)
    80001602:	0007c703          	lbu	a4,0(a5)
    80001606:	fe043783          	ld	a5,-32(s0)
    8000160a:	00e78023          	sb	a4,0(a5)
    8000160e:	fcc42783          	lw	a5,-52(s0)
    80001612:	fff7871b          	addiw	a4,a5,-1
    80001616:	fce42623          	sw	a4,-52(s0)
    8000161a:	fbe1                	bnez	a5,800015ea <memmove+0x60>
    8000161c:	a805                	j	8000164c <memmove+0xc2>
    8000161e:	fe843703          	ld	a4,-24(s0)
    80001622:	00170793          	addi	a5,a4,1
    80001626:	fef43423          	sd	a5,-24(s0)
    8000162a:	fe043783          	ld	a5,-32(s0)
    8000162e:	00178693          	addi	a3,a5,1
    80001632:	fed43023          	sd	a3,-32(s0)
    80001636:	00074703          	lbu	a4,0(a4)
    8000163a:	00e78023          	sb	a4,0(a5)
    8000163e:	fcc42783          	lw	a5,-52(s0)
    80001642:	fff7871b          	addiw	a4,a5,-1
    80001646:	fce42623          	sw	a4,-52(s0)
    8000164a:	fbf1                	bnez	a5,8000161e <memmove+0x94>
    8000164c:	fd843783          	ld	a5,-40(s0)
    80001650:	853e                	mv	a0,a5
    80001652:	7462                	ld	s0,56(sp)
    80001654:	6121                	addi	sp,sp,64
    80001656:	8082                	ret

0000000080001658 <memcpy>:
    80001658:	7179                	addi	sp,sp,-48
    8000165a:	f406                	sd	ra,40(sp)
    8000165c:	f022                	sd	s0,32(sp)
    8000165e:	1800                	addi	s0,sp,48
    80001660:	fea43423          	sd	a0,-24(s0)
    80001664:	feb43023          	sd	a1,-32(s0)
    80001668:	87b2                	mv	a5,a2
    8000166a:	fcf42e23          	sw	a5,-36(s0)
    8000166e:	fdc42783          	lw	a5,-36(s0)
    80001672:	863e                	mv	a2,a5
    80001674:	fe043583          	ld	a1,-32(s0)
    80001678:	fe843503          	ld	a0,-24(s0)
    8000167c:	00000097          	auipc	ra,0x0
    80001680:	f0e080e7          	jalr	-242(ra) # 8000158a <memmove>
    80001684:	87aa                	mv	a5,a0
    80001686:	853e                	mv	a0,a5
    80001688:	70a2                	ld	ra,40(sp)
    8000168a:	7402                	ld	s0,32(sp)
    8000168c:	6145                	addi	sp,sp,48
    8000168e:	8082                	ret

0000000080001690 <strncmp>:
    80001690:	7179                	addi	sp,sp,-48
    80001692:	f422                	sd	s0,40(sp)
    80001694:	1800                	addi	s0,sp,48
    80001696:	fea43423          	sd	a0,-24(s0)
    8000169a:	feb43023          	sd	a1,-32(s0)
    8000169e:	87b2                	mv	a5,a2
    800016a0:	fcf42e23          	sw	a5,-36(s0)
    800016a4:	a005                	j	800016c4 <strncmp+0x34>
    800016a6:	fdc42783          	lw	a5,-36(s0)
    800016aa:	37fd                	addiw	a5,a5,-1
    800016ac:	fcf42e23          	sw	a5,-36(s0)
    800016b0:	fe843783          	ld	a5,-24(s0)
    800016b4:	0785                	addi	a5,a5,1
    800016b6:	fef43423          	sd	a5,-24(s0)
    800016ba:	fe043783          	ld	a5,-32(s0)
    800016be:	0785                	addi	a5,a5,1
    800016c0:	fef43023          	sd	a5,-32(s0)
    800016c4:	fdc42783          	lw	a5,-36(s0)
    800016c8:	2781                	sext.w	a5,a5
    800016ca:	c385                	beqz	a5,800016ea <strncmp+0x5a>
    800016cc:	fe843783          	ld	a5,-24(s0)
    800016d0:	0007c783          	lbu	a5,0(a5)
    800016d4:	cb99                	beqz	a5,800016ea <strncmp+0x5a>
    800016d6:	fe843783          	ld	a5,-24(s0)
    800016da:	0007c703          	lbu	a4,0(a5)
    800016de:	fe043783          	ld	a5,-32(s0)
    800016e2:	0007c783          	lbu	a5,0(a5)
    800016e6:	fcf700e3          	beq	a4,a5,800016a6 <strncmp+0x16>
    800016ea:	fdc42783          	lw	a5,-36(s0)
    800016ee:	2781                	sext.w	a5,a5
    800016f0:	e399                	bnez	a5,800016f6 <strncmp+0x66>
    800016f2:	4781                	li	a5,0
    800016f4:	a839                	j	80001712 <strncmp+0x82>
    800016f6:	fe843783          	ld	a5,-24(s0)
    800016fa:	0007c783          	lbu	a5,0(a5)
    800016fe:	0007871b          	sext.w	a4,a5
    80001702:	fe043783          	ld	a5,-32(s0)
    80001706:	0007c783          	lbu	a5,0(a5)
    8000170a:	2781                	sext.w	a5,a5
    8000170c:	40f707bb          	subw	a5,a4,a5
    80001710:	2781                	sext.w	a5,a5
    80001712:	853e                	mv	a0,a5
    80001714:	7422                	ld	s0,40(sp)
    80001716:	6145                	addi	sp,sp,48
    80001718:	8082                	ret

000000008000171a <strncpy>:
    8000171a:	7139                	addi	sp,sp,-64
    8000171c:	fc22                	sd	s0,56(sp)
    8000171e:	0080                	addi	s0,sp,64
    80001720:	fca43c23          	sd	a0,-40(s0)
    80001724:	fcb43823          	sd	a1,-48(s0)
    80001728:	87b2                	mv	a5,a2
    8000172a:	fcf42623          	sw	a5,-52(s0)
    8000172e:	fd843783          	ld	a5,-40(s0)
    80001732:	fef43423          	sd	a5,-24(s0)
    80001736:	0001                	nop
    80001738:	fcc42783          	lw	a5,-52(s0)
    8000173c:	fff7871b          	addiw	a4,a5,-1
    80001740:	fce42623          	sw	a4,-52(s0)
    80001744:	02f05e63          	blez	a5,80001780 <strncpy+0x66>
    80001748:	fd043703          	ld	a4,-48(s0)
    8000174c:	00170793          	addi	a5,a4,1
    80001750:	fcf43823          	sd	a5,-48(s0)
    80001754:	fd843783          	ld	a5,-40(s0)
    80001758:	00178693          	addi	a3,a5,1
    8000175c:	fcd43c23          	sd	a3,-40(s0)
    80001760:	00074703          	lbu	a4,0(a4)
    80001764:	00e78023          	sb	a4,0(a5)
    80001768:	0007c783          	lbu	a5,0(a5)
    8000176c:	f7f1                	bnez	a5,80001738 <strncpy+0x1e>
    8000176e:	a809                	j	80001780 <strncpy+0x66>
    80001770:	fd843783          	ld	a5,-40(s0)
    80001774:	00178713          	addi	a4,a5,1
    80001778:	fce43c23          	sd	a4,-40(s0)
    8000177c:	00078023          	sb	zero,0(a5)
    80001780:	fcc42783          	lw	a5,-52(s0)
    80001784:	fff7871b          	addiw	a4,a5,-1
    80001788:	fce42623          	sw	a4,-52(s0)
    8000178c:	fef042e3          	bgtz	a5,80001770 <strncpy+0x56>
    80001790:	fe843783          	ld	a5,-24(s0)
    80001794:	853e                	mv	a0,a5
    80001796:	7462                	ld	s0,56(sp)
    80001798:	6121                	addi	sp,sp,64
    8000179a:	8082                	ret

000000008000179c <safestrcpy>:
    8000179c:	7139                	addi	sp,sp,-64
    8000179e:	fc22                	sd	s0,56(sp)
    800017a0:	0080                	addi	s0,sp,64
    800017a2:	fca43c23          	sd	a0,-40(s0)
    800017a6:	fcb43823          	sd	a1,-48(s0)
    800017aa:	87b2                	mv	a5,a2
    800017ac:	fcf42623          	sw	a5,-52(s0)
    800017b0:	fd843783          	ld	a5,-40(s0)
    800017b4:	fef43423          	sd	a5,-24(s0)
    800017b8:	fcc42783          	lw	a5,-52(s0)
    800017bc:	2781                	sext.w	a5,a5
    800017be:	00f04563          	bgtz	a5,800017c8 <safestrcpy+0x2c>
    800017c2:	fe843783          	ld	a5,-24(s0)
    800017c6:	a0a9                	j	80001810 <safestrcpy+0x74>
    800017c8:	0001                	nop
    800017ca:	fcc42783          	lw	a5,-52(s0)
    800017ce:	37fd                	addiw	a5,a5,-1
    800017d0:	fcf42623          	sw	a5,-52(s0)
    800017d4:	fcc42783          	lw	a5,-52(s0)
    800017d8:	2781                	sext.w	a5,a5
    800017da:	02f05563          	blez	a5,80001804 <safestrcpy+0x68>
    800017de:	fd043703          	ld	a4,-48(s0)
    800017e2:	00170793          	addi	a5,a4,1
    800017e6:	fcf43823          	sd	a5,-48(s0)
    800017ea:	fd843783          	ld	a5,-40(s0)
    800017ee:	00178693          	addi	a3,a5,1
    800017f2:	fcd43c23          	sd	a3,-40(s0)
    800017f6:	00074703          	lbu	a4,0(a4)
    800017fa:	00e78023          	sb	a4,0(a5)
    800017fe:	0007c783          	lbu	a5,0(a5)
    80001802:	f7e1                	bnez	a5,800017ca <safestrcpy+0x2e>
    80001804:	fd843783          	ld	a5,-40(s0)
    80001808:	00078023          	sb	zero,0(a5)
    8000180c:	fe843783          	ld	a5,-24(s0)
    80001810:	853e                	mv	a0,a5
    80001812:	7462                	ld	s0,56(sp)
    80001814:	6121                	addi	sp,sp,64
    80001816:	8082                	ret

0000000080001818 <strlen>:
    80001818:	7179                	addi	sp,sp,-48
    8000181a:	f422                	sd	s0,40(sp)
    8000181c:	1800                	addi	s0,sp,48
    8000181e:	fca43c23          	sd	a0,-40(s0)
    80001822:	fe042623          	sw	zero,-20(s0)
    80001826:	a031                	j	80001832 <strlen+0x1a>
    80001828:	fec42783          	lw	a5,-20(s0)
    8000182c:	2785                	addiw	a5,a5,1
    8000182e:	fef42623          	sw	a5,-20(s0)
    80001832:	fec42783          	lw	a5,-20(s0)
    80001836:	fd843703          	ld	a4,-40(s0)
    8000183a:	97ba                	add	a5,a5,a4
    8000183c:	0007c783          	lbu	a5,0(a5)
    80001840:	f7e5                	bnez	a5,80001828 <strlen+0x10>
    80001842:	fec42783          	lw	a5,-20(s0)
    80001846:	853e                	mv	a0,a5
    80001848:	7422                	ld	s0,40(sp)
    8000184a:	6145                	addi	sp,sp,48
    8000184c:	8082                	ret

000000008000184e <main>:
    8000184e:	1141                	addi	sp,sp,-16
    80001850:	e406                	sd	ra,8(sp)
    80001852:	e022                	sd	s0,0(sp)
    80001854:	0800                	addi	s0,sp,16
    80001856:	00001097          	auipc	ra,0x1
    8000185a:	09e080e7          	jalr	158(ra) # 800028f4 <cpuid>
    8000185e:	87aa                	mv	a5,a0
    80001860:	e3f1                	bnez	a5,80001924 <main+0xd6>
    80001862:	fffff097          	auipc	ra,0xfffff
    80001866:	016080e7          	jalr	22(ra) # 80000878 <consoleinit>
    8000186a:	00008097          	auipc	ra,0x8
    8000186e:	518080e7          	jalr	1304(ra) # 80009d82 <statsinit>
    80001872:	fffff097          	auipc	ra,0xfffff
    80001876:	480080e7          	jalr	1152(ra) # 80000cf2 <printfinit>
    8000187a:	0000b517          	auipc	a0,0xb
    8000187e:	80650513          	addi	a0,a0,-2042 # 8000c080 <etext+0x80>
    80001882:	fffff097          	auipc	ra,0xfffff
    80001886:	1c6080e7          	jalr	454(ra) # 80000a48 <printf>
    8000188a:	0000a517          	auipc	a0,0xa
    8000188e:	7fe50513          	addi	a0,a0,2046 # 8000c088 <etext+0x88>
    80001892:	fffff097          	auipc	ra,0xfffff
    80001896:	1b6080e7          	jalr	438(ra) # 80000a48 <printf>
    8000189a:	0000a517          	auipc	a0,0xa
    8000189e:	7e650513          	addi	a0,a0,2022 # 8000c080 <etext+0x80>
    800018a2:	fffff097          	auipc	ra,0xfffff
    800018a6:	1a6080e7          	jalr	422(ra) # 80000a48 <printf>
    800018aa:	fffff097          	auipc	ra,0xfffff
    800018ae:	798080e7          	jalr	1944(ra) # 80001042 <kinit>
    800018b2:	00000097          	auipc	ra,0x0
    800018b6:	108080e7          	jalr	264(ra) # 800019ba <g_space_init>
    800018ba:	00000097          	auipc	ra,0x0
    800018be:	2dc080e7          	jalr	732(ra) # 80001b96 <kvminithart>
    800018c2:	00001097          	auipc	ra,0x1
    800018c6:	f94080e7          	jalr	-108(ra) # 80002856 <procinit>
    800018ca:	00002097          	auipc	ra,0x2
    800018ce:	62a080e7          	jalr	1578(ra) # 80003ef4 <trapinit>
    800018d2:	00002097          	auipc	ra,0x2
    800018d6:	64c080e7          	jalr	1612(ra) # 80003f1e <trapinithart>
    800018da:	00007097          	auipc	ra,0x7
    800018de:	6f0080e7          	jalr	1776(ra) # 80008fca <plicinit>
    800018e2:	00007097          	auipc	ra,0x7
    800018e6:	70c080e7          	jalr	1804(ra) # 80008fee <plicinithart>
    800018ea:	00003097          	auipc	ra,0x3
    800018ee:	076080e7          	jalr	118(ra) # 80004960 <binit>
    800018f2:	00004097          	auipc	ra,0x4
    800018f6:	8aa080e7          	jalr	-1878(ra) # 8000519c <iinit>
    800018fa:	00005097          	auipc	ra,0x5
    800018fe:	246080e7          	jalr	582(ra) # 80006b40 <fileinit>
    80001902:	00007097          	auipc	ra,0x7
    80001906:	7c0080e7          	jalr	1984(ra) # 800090c2 <virtio_disk_init>
    8000190a:	00001097          	auipc	ra,0x1
    8000190e:	736080e7          	jalr	1846(ra) # 80003040 <userinit>
    80001912:	0330000f          	fence	rw,rw
    80001916:	00014797          	auipc	a5,0x14
    8000191a:	03a78793          	addi	a5,a5,58 # 80015950 <started>
    8000191e:	4705                	li	a4,1
    80001920:	c398                	sw	a4,0(a5)
    80001922:	a0a9                	j	8000196c <main+0x11e>
    80001924:	0001                	nop
    80001926:	00014797          	auipc	a5,0x14
    8000192a:	02a78793          	addi	a5,a5,42 # 80015950 <started>
    8000192e:	439c                	lw	a5,0(a5)
    80001930:	2781                	sext.w	a5,a5
    80001932:	dbf5                	beqz	a5,80001926 <main+0xd8>
    80001934:	0330000f          	fence	rw,rw
    80001938:	00001097          	auipc	ra,0x1
    8000193c:	fbc080e7          	jalr	-68(ra) # 800028f4 <cpuid>
    80001940:	87aa                	mv	a5,a0
    80001942:	85be                	mv	a1,a5
    80001944:	0000a517          	auipc	a0,0xa
    80001948:	75c50513          	addi	a0,a0,1884 # 8000c0a0 <etext+0xa0>
    8000194c:	fffff097          	auipc	ra,0xfffff
    80001950:	0fc080e7          	jalr	252(ra) # 80000a48 <printf>
    80001954:	00000097          	auipc	ra,0x0
    80001958:	242080e7          	jalr	578(ra) # 80001b96 <kvminithart>
    8000195c:	00002097          	auipc	ra,0x2
    80001960:	5c2080e7          	jalr	1474(ra) # 80003f1e <trapinithart>
    80001964:	00007097          	auipc	ra,0x7
    80001968:	68a080e7          	jalr	1674(ra) # 80008fee <plicinithart>
    8000196c:	00002097          	auipc	ra,0x2
    80001970:	d14080e7          	jalr	-748(ra) # 80003680 <scheduler>

0000000080001974 <w_satp>:
    80001974:	1101                	addi	sp,sp,-32
    80001976:	ec22                	sd	s0,24(sp)
    80001978:	1000                	addi	s0,sp,32
    8000197a:	fea43423          	sd	a0,-24(s0)
    8000197e:	fe843783          	ld	a5,-24(s0)
    80001982:	18079073          	csrw	satp,a5
    80001986:	0001                	nop
    80001988:	6462                	ld	s0,24(sp)
    8000198a:	6105                	addi	sp,sp,32
    8000198c:	8082                	ret

000000008000198e <r_satp>:
    8000198e:	1101                	addi	sp,sp,-32
    80001990:	ec22                	sd	s0,24(sp)
    80001992:	1000                	addi	s0,sp,32
    80001994:	180027f3          	csrr	a5,satp
    80001998:	fef43423          	sd	a5,-24(s0)
    8000199c:	fe843783          	ld	a5,-24(s0)
    800019a0:	853e                	mv	a0,a5
    800019a2:	6462                	ld	s0,24(sp)
    800019a4:	6105                	addi	sp,sp,32
    800019a6:	8082                	ret

00000000800019a8 <sfence_vma>:
    800019a8:	1141                	addi	sp,sp,-16
    800019aa:	e422                	sd	s0,8(sp)
    800019ac:	0800                	addi	s0,sp,16
    800019ae:	12000073          	sfence.vma
    800019b2:	0001                	nop
    800019b4:	6422                	ld	s0,8(sp)
    800019b6:	0141                	addi	sp,sp,16
    800019b8:	8082                	ret

00000000800019ba <g_space_init>:
    800019ba:	1141                	addi	sp,sp,-16
    800019bc:	e406                	sd	ra,8(sp)
    800019be:	e022                	sd	s0,0(sp)
    800019c0:	0800                	addi	s0,sp,16
    800019c2:	fffff097          	auipc	ra,0xfffff
    800019c6:	7bc080e7          	jalr	1980(ra) # 8000117e <kalloc>
    800019ca:	872a                	mv	a4,a0
    800019cc:	0000b797          	auipc	a5,0xb
    800019d0:	64478793          	addi	a5,a5,1604 # 8000d010 <g_space>
    800019d4:	e398                	sd	a4,0(a5)
    800019d6:	0000b797          	auipc	a5,0xb
    800019da:	63a78793          	addi	a5,a5,1594 # 8000d010 <g_space>
    800019de:	639c                	ld	a5,0(a5)
    800019e0:	6605                	lui	a2,0x1
    800019e2:	4581                	li	a1,0
    800019e4:	853e                	mv	a0,a5
    800019e6:	00000097          	auipc	ra,0x0
    800019ea:	ac0080e7          	jalr	-1344(ra) # 800014a6 <memset>
    800019ee:	0000b797          	auipc	a5,0xb
    800019f2:	62278793          	addi	a5,a5,1570 # 8000d010 <g_space>
    800019f6:	639c                	ld	a5,0(a5)
    800019f8:	4719                	li	a4,6
    800019fa:	100006b7          	lui	a3,0x10000
    800019fe:	6605                	lui	a2,0x1
    80001a00:	100005b7          	lui	a1,0x10000
    80001a04:	853e                	mv	a0,a5
    80001a06:	00000097          	auipc	ra,0x0
    80001a0a:	3bc080e7          	jalr	956(ra) # 80001dc2 <space_map>
    80001a0e:	87aa                	mv	a5,a0
    80001a10:	cb89                	beqz	a5,80001a22 <g_space_init+0x68>
    80001a12:	0000a517          	auipc	a0,0xa
    80001a16:	6a650513          	addi	a0,a0,1702 # 8000c0b8 <etext+0xb8>
    80001a1a:	fffff097          	auipc	ra,0xfffff
    80001a1e:	284080e7          	jalr	644(ra) # 80000c9e <panic>
    80001a22:	0000b797          	auipc	a5,0xb
    80001a26:	5ee78793          	addi	a5,a5,1518 # 8000d010 <g_space>
    80001a2a:	639c                	ld	a5,0(a5)
    80001a2c:	4719                	li	a4,6
    80001a2e:	100016b7          	lui	a3,0x10001
    80001a32:	6605                	lui	a2,0x1
    80001a34:	100015b7          	lui	a1,0x10001
    80001a38:	853e                	mv	a0,a5
    80001a3a:	00000097          	auipc	ra,0x0
    80001a3e:	388080e7          	jalr	904(ra) # 80001dc2 <space_map>
    80001a42:	87aa                	mv	a5,a0
    80001a44:	cb89                	beqz	a5,80001a56 <g_space_init+0x9c>
    80001a46:	0000a517          	auipc	a0,0xa
    80001a4a:	67250513          	addi	a0,a0,1650 # 8000c0b8 <etext+0xb8>
    80001a4e:	fffff097          	auipc	ra,0xfffff
    80001a52:	250080e7          	jalr	592(ra) # 80000c9e <panic>
    80001a56:	0000b797          	auipc	a5,0xb
    80001a5a:	5ba78793          	addi	a5,a5,1466 # 8000d010 <g_space>
    80001a5e:	639c                	ld	a5,0(a5)
    80001a60:	4719                	li	a4,6
    80001a62:	020006b7          	lui	a3,0x2000
    80001a66:	6641                	lui	a2,0x10
    80001a68:	020005b7          	lui	a1,0x2000
    80001a6c:	853e                	mv	a0,a5
    80001a6e:	00000097          	auipc	ra,0x0
    80001a72:	354080e7          	jalr	852(ra) # 80001dc2 <space_map>
    80001a76:	87aa                	mv	a5,a0
    80001a78:	cb89                	beqz	a5,80001a8a <g_space_init+0xd0>
    80001a7a:	0000a517          	auipc	a0,0xa
    80001a7e:	63e50513          	addi	a0,a0,1598 # 8000c0b8 <etext+0xb8>
    80001a82:	fffff097          	auipc	ra,0xfffff
    80001a86:	21c080e7          	jalr	540(ra) # 80000c9e <panic>
    80001a8a:	0000b797          	auipc	a5,0xb
    80001a8e:	58678793          	addi	a5,a5,1414 # 8000d010 <g_space>
    80001a92:	639c                	ld	a5,0(a5)
    80001a94:	4719                	li	a4,6
    80001a96:	0c0006b7          	lui	a3,0xc000
    80001a9a:	00400637          	lui	a2,0x400
    80001a9e:	0c0005b7          	lui	a1,0xc000
    80001aa2:	853e                	mv	a0,a5
    80001aa4:	00000097          	auipc	ra,0x0
    80001aa8:	31e080e7          	jalr	798(ra) # 80001dc2 <space_map>
    80001aac:	87aa                	mv	a5,a0
    80001aae:	cb89                	beqz	a5,80001ac0 <g_space_init+0x106>
    80001ab0:	0000a517          	auipc	a0,0xa
    80001ab4:	60850513          	addi	a0,a0,1544 # 8000c0b8 <etext+0xb8>
    80001ab8:	fffff097          	auipc	ra,0xfffff
    80001abc:	1e6080e7          	jalr	486(ra) # 80000c9e <panic>
    80001ac0:	0000b797          	auipc	a5,0xb
    80001ac4:	55078793          	addi	a5,a5,1360 # 8000d010 <g_space>
    80001ac8:	6388                	ld	a0,0(a5)
    80001aca:	0000a717          	auipc	a4,0xa
    80001ace:	53670713          	addi	a4,a4,1334 # 8000c000 <etext>
    80001ad2:	800007b7          	lui	a5,0x80000
    80001ad6:	00f70633          	add	a2,a4,a5
    80001ada:	4729                	li	a4,10
    80001adc:	4785                	li	a5,1
    80001ade:	01f79693          	slli	a3,a5,0x1f
    80001ae2:	4785                	li	a5,1
    80001ae4:	01f79593          	slli	a1,a5,0x1f
    80001ae8:	00000097          	auipc	ra,0x0
    80001aec:	2da080e7          	jalr	730(ra) # 80001dc2 <space_map>
    80001af0:	87aa                	mv	a5,a0
    80001af2:	cb89                	beqz	a5,80001b04 <g_space_init+0x14a>
    80001af4:	0000a517          	auipc	a0,0xa
    80001af8:	5c450513          	addi	a0,a0,1476 # 8000c0b8 <etext+0xb8>
    80001afc:	fffff097          	auipc	ra,0xfffff
    80001b00:	1a2080e7          	jalr	418(ra) # 80000c9e <panic>
    80001b04:	0000b797          	auipc	a5,0xb
    80001b08:	50c78793          	addi	a5,a5,1292 # 8000d010 <g_space>
    80001b0c:	6388                	ld	a0,0(a5)
    80001b0e:	0000a597          	auipc	a1,0xa
    80001b12:	4f258593          	addi	a1,a1,1266 # 8000c000 <etext>
    80001b16:	0000a797          	auipc	a5,0xa
    80001b1a:	4ea78793          	addi	a5,a5,1258 # 8000c000 <etext>
    80001b1e:	4745                	li	a4,17
    80001b20:	076e                	slli	a4,a4,0x1b
    80001b22:	40f707b3          	sub	a5,a4,a5
    80001b26:	0000a697          	auipc	a3,0xa
    80001b2a:	4da68693          	addi	a3,a3,1242 # 8000c000 <etext>
    80001b2e:	4719                	li	a4,6
    80001b30:	863e                	mv	a2,a5
    80001b32:	00000097          	auipc	ra,0x0
    80001b36:	290080e7          	jalr	656(ra) # 80001dc2 <space_map>
    80001b3a:	87aa                	mv	a5,a0
    80001b3c:	cb89                	beqz	a5,80001b4e <g_space_init+0x194>
    80001b3e:	0000a517          	auipc	a0,0xa
    80001b42:	57a50513          	addi	a0,a0,1402 # 8000c0b8 <etext+0xb8>
    80001b46:	fffff097          	auipc	ra,0xfffff
    80001b4a:	158080e7          	jalr	344(ra) # 80000c9e <panic>
    80001b4e:	0000b797          	auipc	a5,0xb
    80001b52:	4c278793          	addi	a5,a5,1218 # 8000d010 <g_space>
    80001b56:	6388                	ld	a0,0(a5)
    80001b58:	00009797          	auipc	a5,0x9
    80001b5c:	4a878793          	addi	a5,a5,1192 # 8000b000 <_trampoline>
    80001b60:	4729                	li	a4,10
    80001b62:	86be                	mv	a3,a5
    80001b64:	6605                	lui	a2,0x1
    80001b66:	040007b7          	lui	a5,0x4000
    80001b6a:	17fd                	addi	a5,a5,-1 # 3ffffff <_entry-0x7c000001>
    80001b6c:	00c79593          	slli	a1,a5,0xc
    80001b70:	00000097          	auipc	ra,0x0
    80001b74:	252080e7          	jalr	594(ra) # 80001dc2 <space_map>
    80001b78:	87aa                	mv	a5,a0
    80001b7a:	cb89                	beqz	a5,80001b8c <g_space_init+0x1d2>
    80001b7c:	0000a517          	auipc	a0,0xa
    80001b80:	53c50513          	addi	a0,a0,1340 # 8000c0b8 <etext+0xb8>
    80001b84:	fffff097          	auipc	ra,0xfffff
    80001b88:	11a080e7          	jalr	282(ra) # 80000c9e <panic>
    80001b8c:	0001                	nop
    80001b8e:	60a2                	ld	ra,8(sp)
    80001b90:	6402                	ld	s0,0(sp)
    80001b92:	0141                	addi	sp,sp,16
    80001b94:	8082                	ret

0000000080001b96 <kvminithart>:
    80001b96:	1141                	addi	sp,sp,-16
    80001b98:	e406                	sd	ra,8(sp)
    80001b9a:	e022                	sd	s0,0(sp)
    80001b9c:	0800                	addi	s0,sp,16
    80001b9e:	0000b797          	auipc	a5,0xb
    80001ba2:	47278793          	addi	a5,a5,1138 # 8000d010 <g_space>
    80001ba6:	639c                	ld	a5,0(a5)
    80001ba8:	00c7d713          	srli	a4,a5,0xc
    80001bac:	57fd                	li	a5,-1
    80001bae:	17fe                	slli	a5,a5,0x3f
    80001bb0:	8fd9                	or	a5,a5,a4
    80001bb2:	853e                	mv	a0,a5
    80001bb4:	00000097          	auipc	ra,0x0
    80001bb8:	dc0080e7          	jalr	-576(ra) # 80001974 <w_satp>
    80001bbc:	00000097          	auipc	ra,0x0
    80001bc0:	dec080e7          	jalr	-532(ra) # 800019a8 <sfence_vma>
    80001bc4:	0001                	nop
    80001bc6:	60a2                	ld	ra,8(sp)
    80001bc8:	6402                	ld	s0,0(sp)
    80001bca:	0141                	addi	sp,sp,16
    80001bcc:	8082                	ret

0000000080001bce <walk>:
    80001bce:	7139                	addi	sp,sp,-64
    80001bd0:	fc06                	sd	ra,56(sp)
    80001bd2:	f822                	sd	s0,48(sp)
    80001bd4:	0080                	addi	s0,sp,64
    80001bd6:	fca43c23          	sd	a0,-40(s0)
    80001bda:	fcb43823          	sd	a1,-48(s0)
    80001bde:	87b2                	mv	a5,a2
    80001be0:	fcf42623          	sw	a5,-52(s0)
    80001be4:	fd043703          	ld	a4,-48(s0)
    80001be8:	57fd                	li	a5,-1
    80001bea:	83e9                	srli	a5,a5,0x1a
    80001bec:	00e7fa63          	bgeu	a5,a4,80001c00 <walk+0x32>
    80001bf0:	0000a517          	auipc	a0,0xa
    80001bf4:	4d850513          	addi	a0,a0,1240 # 8000c0c8 <etext+0xc8>
    80001bf8:	fffff097          	auipc	ra,0xfffff
    80001bfc:	0a6080e7          	jalr	166(ra) # 80000c9e <panic>
    80001c00:	4789                	li	a5,2
    80001c02:	fef42623          	sw	a5,-20(s0)
    80001c06:	a851                	j	80001c9a <walk+0xcc>
    80001c08:	fec42783          	lw	a5,-20(s0)
    80001c0c:	873e                	mv	a4,a5
    80001c0e:	87ba                	mv	a5,a4
    80001c10:	0037979b          	slliw	a5,a5,0x3
    80001c14:	9fb9                	addw	a5,a5,a4
    80001c16:	2781                	sext.w	a5,a5
    80001c18:	27b1                	addiw	a5,a5,12
    80001c1a:	2781                	sext.w	a5,a5
    80001c1c:	873e                	mv	a4,a5
    80001c1e:	fd043783          	ld	a5,-48(s0)
    80001c22:	00e7d7b3          	srl	a5,a5,a4
    80001c26:	1ff7f793          	andi	a5,a5,511
    80001c2a:	078e                	slli	a5,a5,0x3
    80001c2c:	fd843703          	ld	a4,-40(s0)
    80001c30:	97ba                	add	a5,a5,a4
    80001c32:	fef43023          	sd	a5,-32(s0)
    80001c36:	fe043783          	ld	a5,-32(s0)
    80001c3a:	639c                	ld	a5,0(a5)
    80001c3c:	8b85                	andi	a5,a5,1
    80001c3e:	cb89                	beqz	a5,80001c50 <walk+0x82>
    80001c40:	fe043783          	ld	a5,-32(s0)
    80001c44:	639c                	ld	a5,0(a5)
    80001c46:	83a9                	srli	a5,a5,0xa
    80001c48:	07b2                	slli	a5,a5,0xc
    80001c4a:	fcf43c23          	sd	a5,-40(s0)
    80001c4e:	a089                	j	80001c90 <walk+0xc2>
    80001c50:	fcc42783          	lw	a5,-52(s0)
    80001c54:	2781                	sext.w	a5,a5
    80001c56:	cb91                	beqz	a5,80001c6a <walk+0x9c>
    80001c58:	fffff097          	auipc	ra,0xfffff
    80001c5c:	526080e7          	jalr	1318(ra) # 8000117e <kalloc>
    80001c60:	fca43c23          	sd	a0,-40(s0)
    80001c64:	fd843783          	ld	a5,-40(s0)
    80001c68:	e399                	bnez	a5,80001c6e <walk+0xa0>
    80001c6a:	4781                	li	a5,0
    80001c6c:	a0a9                	j	80001cb6 <walk+0xe8>
    80001c6e:	6605                	lui	a2,0x1
    80001c70:	4581                	li	a1,0
    80001c72:	fd843503          	ld	a0,-40(s0)
    80001c76:	00000097          	auipc	ra,0x0
    80001c7a:	830080e7          	jalr	-2000(ra) # 800014a6 <memset>
    80001c7e:	fd843783          	ld	a5,-40(s0)
    80001c82:	83b1                	srli	a5,a5,0xc
    80001c84:	07aa                	slli	a5,a5,0xa
    80001c86:	0017e713          	ori	a4,a5,1
    80001c8a:	fe043783          	ld	a5,-32(s0)
    80001c8e:	e398                	sd	a4,0(a5)
    80001c90:	fec42783          	lw	a5,-20(s0)
    80001c94:	37fd                	addiw	a5,a5,-1
    80001c96:	fef42623          	sw	a5,-20(s0)
    80001c9a:	fec42783          	lw	a5,-20(s0)
    80001c9e:	2781                	sext.w	a5,a5
    80001ca0:	f6f044e3          	bgtz	a5,80001c08 <walk+0x3a>
    80001ca4:	fd043783          	ld	a5,-48(s0)
    80001ca8:	83b1                	srli	a5,a5,0xc
    80001caa:	1ff7f793          	andi	a5,a5,511
    80001cae:	078e                	slli	a5,a5,0x3
    80001cb0:	fd843703          	ld	a4,-40(s0)
    80001cb4:	97ba                	add	a5,a5,a4
    80001cb6:	853e                	mv	a0,a5
    80001cb8:	70e2                	ld	ra,56(sp)
    80001cba:	7442                	ld	s0,48(sp)
    80001cbc:	6121                	addi	sp,sp,64
    80001cbe:	8082                	ret

0000000080001cc0 <walkaddr>:
    80001cc0:	7179                	addi	sp,sp,-48
    80001cc2:	f406                	sd	ra,40(sp)
    80001cc4:	f022                	sd	s0,32(sp)
    80001cc6:	1800                	addi	s0,sp,48
    80001cc8:	fca43c23          	sd	a0,-40(s0)
    80001ccc:	fcb43823          	sd	a1,-48(s0)
    80001cd0:	fd043703          	ld	a4,-48(s0)
    80001cd4:	57fd                	li	a5,-1
    80001cd6:	83e9                	srli	a5,a5,0x1a
    80001cd8:	00e7f463          	bgeu	a5,a4,80001ce0 <walkaddr+0x20>
    80001cdc:	4781                	li	a5,0
    80001cde:	a881                	j	80001d2e <walkaddr+0x6e>
    80001ce0:	4601                	li	a2,0
    80001ce2:	fd043583          	ld	a1,-48(s0)
    80001ce6:	fd843503          	ld	a0,-40(s0)
    80001cea:	00000097          	auipc	ra,0x0
    80001cee:	ee4080e7          	jalr	-284(ra) # 80001bce <walk>
    80001cf2:	fea43423          	sd	a0,-24(s0)
    80001cf6:	fe843783          	ld	a5,-24(s0)
    80001cfa:	e399                	bnez	a5,80001d00 <walkaddr+0x40>
    80001cfc:	4781                	li	a5,0
    80001cfe:	a805                	j	80001d2e <walkaddr+0x6e>
    80001d00:	fe843783          	ld	a5,-24(s0)
    80001d04:	639c                	ld	a5,0(a5)
    80001d06:	8b85                	andi	a5,a5,1
    80001d08:	e399                	bnez	a5,80001d0e <walkaddr+0x4e>
    80001d0a:	4781                	li	a5,0
    80001d0c:	a00d                	j	80001d2e <walkaddr+0x6e>
    80001d0e:	fe843783          	ld	a5,-24(s0)
    80001d12:	639c                	ld	a5,0(a5)
    80001d14:	8bc1                	andi	a5,a5,16
    80001d16:	e399                	bnez	a5,80001d1c <walkaddr+0x5c>
    80001d18:	4781                	li	a5,0
    80001d1a:	a811                	j	80001d2e <walkaddr+0x6e>
    80001d1c:	fe843783          	ld	a5,-24(s0)
    80001d20:	639c                	ld	a5,0(a5)
    80001d22:	83a9                	srli	a5,a5,0xa
    80001d24:	07b2                	slli	a5,a5,0xc
    80001d26:	fef43023          	sd	a5,-32(s0)
    80001d2a:	fe043783          	ld	a5,-32(s0)
    80001d2e:	853e                	mv	a0,a5
    80001d30:	70a2                	ld	ra,40(sp)
    80001d32:	7402                	ld	s0,32(sp)
    80001d34:	6145                	addi	sp,sp,48
    80001d36:	8082                	ret

0000000080001d38 <kvmpa>:
    80001d38:	7139                	addi	sp,sp,-64
    80001d3a:	fc06                	sd	ra,56(sp)
    80001d3c:	f822                	sd	s0,48(sp)
    80001d3e:	0080                	addi	s0,sp,64
    80001d40:	fca43423          	sd	a0,-56(s0)
    80001d44:	fc843703          	ld	a4,-56(s0)
    80001d48:	6785                	lui	a5,0x1
    80001d4a:	17fd                	addi	a5,a5,-1 # fff <_entry-0x7ffff001>
    80001d4c:	8ff9                	and	a5,a5,a4
    80001d4e:	fef43423          	sd	a5,-24(s0)
    80001d52:	0000b797          	auipc	a5,0xb
    80001d56:	2be78793          	addi	a5,a5,702 # 8000d010 <g_space>
    80001d5a:	639c                	ld	a5,0(a5)
    80001d5c:	4601                	li	a2,0
    80001d5e:	fc843583          	ld	a1,-56(s0)
    80001d62:	853e                	mv	a0,a5
    80001d64:	00000097          	auipc	ra,0x0
    80001d68:	e6a080e7          	jalr	-406(ra) # 80001bce <walk>
    80001d6c:	fea43023          	sd	a0,-32(s0)
    80001d70:	fe043783          	ld	a5,-32(s0)
    80001d74:	eb89                	bnez	a5,80001d86 <kvmpa+0x4e>
    80001d76:	0000a517          	auipc	a0,0xa
    80001d7a:	35a50513          	addi	a0,a0,858 # 8000c0d0 <etext+0xd0>
    80001d7e:	fffff097          	auipc	ra,0xfffff
    80001d82:	f20080e7          	jalr	-224(ra) # 80000c9e <panic>
    80001d86:	fe043783          	ld	a5,-32(s0)
    80001d8a:	639c                	ld	a5,0(a5)
    80001d8c:	8b85                	andi	a5,a5,1
    80001d8e:	eb89                	bnez	a5,80001da0 <kvmpa+0x68>
    80001d90:	0000a517          	auipc	a0,0xa
    80001d94:	34050513          	addi	a0,a0,832 # 8000c0d0 <etext+0xd0>
    80001d98:	fffff097          	auipc	ra,0xfffff
    80001d9c:	f06080e7          	jalr	-250(ra) # 80000c9e <panic>
    80001da0:	fe043783          	ld	a5,-32(s0)
    80001da4:	639c                	ld	a5,0(a5)
    80001da6:	83a9                	srli	a5,a5,0xa
    80001da8:	07b2                	slli	a5,a5,0xc
    80001daa:	fcf43c23          	sd	a5,-40(s0)
    80001dae:	fd843703          	ld	a4,-40(s0)
    80001db2:	fe843783          	ld	a5,-24(s0)
    80001db6:	97ba                	add	a5,a5,a4
    80001db8:	853e                	mv	a0,a5
    80001dba:	70e2                	ld	ra,56(sp)
    80001dbc:	7442                	ld	s0,48(sp)
    80001dbe:	6121                	addi	sp,sp,64
    80001dc0:	8082                	ret

0000000080001dc2 <space_map>:
    80001dc2:	711d                	addi	sp,sp,-96
    80001dc4:	ec86                	sd	ra,88(sp)
    80001dc6:	e8a2                	sd	s0,80(sp)
    80001dc8:	1080                	addi	s0,sp,96
    80001dca:	fca43423          	sd	a0,-56(s0)
    80001dce:	fcb43023          	sd	a1,-64(s0)
    80001dd2:	fac43c23          	sd	a2,-72(s0)
    80001dd6:	fad43823          	sd	a3,-80(s0)
    80001dda:	87ba                	mv	a5,a4
    80001ddc:	faf42623          	sw	a5,-84(s0)
    80001de0:	fc043703          	ld	a4,-64(s0)
    80001de4:	77fd                	lui	a5,0xfffff
    80001de6:	8ff9                	and	a5,a5,a4
    80001de8:	fef43423          	sd	a5,-24(s0)
    80001dec:	fc043703          	ld	a4,-64(s0)
    80001df0:	fb843783          	ld	a5,-72(s0)
    80001df4:	97ba                	add	a5,a5,a4
    80001df6:	fff78713          	addi	a4,a5,-1 # ffffffffffffefff <end+0xffffffff7ffd3fd7>
    80001dfa:	77fd                	lui	a5,0xfffff
    80001dfc:	8ff9                	and	a5,a5,a4
    80001dfe:	fef43023          	sd	a5,-32(s0)
    80001e02:	4605                	li	a2,1
    80001e04:	fe843583          	ld	a1,-24(s0)
    80001e08:	fc843503          	ld	a0,-56(s0)
    80001e0c:	00000097          	auipc	ra,0x0
    80001e10:	dc2080e7          	jalr	-574(ra) # 80001bce <walk>
    80001e14:	fca43c23          	sd	a0,-40(s0)
    80001e18:	fd843783          	ld	a5,-40(s0)
    80001e1c:	eb8d                	bnez	a5,80001e4e <space_map+0x8c>
    80001e1e:	fc043703          	ld	a4,-64(s0)
    80001e22:	77fd                	lui	a5,0xfffff
    80001e24:	00f775b3          	and	a1,a4,a5
    80001e28:	fc043703          	ld	a4,-64(s0)
    80001e2c:	77fd                	lui	a5,0xfffff
    80001e2e:	8ff9                	and	a5,a5,a4
    80001e30:	fe843703          	ld	a4,-24(s0)
    80001e34:	40f707b3          	sub	a5,a4,a5
    80001e38:	83b1                	srli	a5,a5,0xc
    80001e3a:	4681                	li	a3,0
    80001e3c:	863e                	mv	a2,a5
    80001e3e:	fc843503          	ld	a0,-56(s0)
    80001e42:	00000097          	auipc	ra,0x0
    80001e46:	074080e7          	jalr	116(ra) # 80001eb6 <space_unmap>
    80001e4a:	57fd                	li	a5,-1
    80001e4c:	a085                	j	80001eac <space_map+0xea>
    80001e4e:	fd843783          	ld	a5,-40(s0)
    80001e52:	639c                	ld	a5,0(a5)
    80001e54:	8b85                	andi	a5,a5,1
    80001e56:	cb89                	beqz	a5,80001e68 <space_map+0xa6>
    80001e58:	0000a517          	auipc	a0,0xa
    80001e5c:	28050513          	addi	a0,a0,640 # 8000c0d8 <etext+0xd8>
    80001e60:	fffff097          	auipc	ra,0xfffff
    80001e64:	e3e080e7          	jalr	-450(ra) # 80000c9e <panic>
    80001e68:	fb043783          	ld	a5,-80(s0)
    80001e6c:	83b1                	srli	a5,a5,0xc
    80001e6e:	00a79713          	slli	a4,a5,0xa
    80001e72:	fac42783          	lw	a5,-84(s0)
    80001e76:	8fd9                	or	a5,a5,a4
    80001e78:	0017e713          	ori	a4,a5,1
    80001e7c:	fd843783          	ld	a5,-40(s0)
    80001e80:	e398                	sd	a4,0(a5)
    80001e82:	fe843703          	ld	a4,-24(s0)
    80001e86:	fe043783          	ld	a5,-32(s0)
    80001e8a:	00f70f63          	beq	a4,a5,80001ea8 <space_map+0xe6>
    80001e8e:	fe843703          	ld	a4,-24(s0)
    80001e92:	6785                	lui	a5,0x1
    80001e94:	97ba                	add	a5,a5,a4
    80001e96:	fef43423          	sd	a5,-24(s0)
    80001e9a:	fb043703          	ld	a4,-80(s0)
    80001e9e:	6785                	lui	a5,0x1
    80001ea0:	97ba                	add	a5,a5,a4
    80001ea2:	faf43823          	sd	a5,-80(s0)
    80001ea6:	bfb1                	j	80001e02 <space_map+0x40>
    80001ea8:	0001                	nop
    80001eaa:	4781                	li	a5,0
    80001eac:	853e                	mv	a0,a5
    80001eae:	60e6                	ld	ra,88(sp)
    80001eb0:	6446                	ld	s0,80(sp)
    80001eb2:	6125                	addi	sp,sp,96
    80001eb4:	8082                	ret

0000000080001eb6 <space_unmap>:
    80001eb6:	715d                	addi	sp,sp,-80
    80001eb8:	e486                	sd	ra,72(sp)
    80001eba:	e0a2                	sd	s0,64(sp)
    80001ebc:	0880                	addi	s0,sp,80
    80001ebe:	fca43423          	sd	a0,-56(s0)
    80001ec2:	fcb43023          	sd	a1,-64(s0)
    80001ec6:	fac43c23          	sd	a2,-72(s0)
    80001eca:	87b6                	mv	a5,a3
    80001ecc:	faf42a23          	sw	a5,-76(s0)
    80001ed0:	fc043703          	ld	a4,-64(s0)
    80001ed4:	6785                	lui	a5,0x1
    80001ed6:	17fd                	addi	a5,a5,-1 # fff <_entry-0x7ffff001>
    80001ed8:	8ff9                	and	a5,a5,a4
    80001eda:	cb89                	beqz	a5,80001eec <space_unmap+0x36>
    80001edc:	0000a517          	auipc	a0,0xa
    80001ee0:	20450513          	addi	a0,a0,516 # 8000c0e0 <etext+0xe0>
    80001ee4:	fffff097          	auipc	ra,0xfffff
    80001ee8:	dba080e7          	jalr	-582(ra) # 80000c9e <panic>
    80001eec:	fc043783          	ld	a5,-64(s0)
    80001ef0:	fef43423          	sd	a5,-24(s0)
    80001ef4:	a045                	j	80001f94 <space_unmap+0xde>
    80001ef6:	4601                	li	a2,0
    80001ef8:	fe843583          	ld	a1,-24(s0)
    80001efc:	fc843503          	ld	a0,-56(s0)
    80001f00:	00000097          	auipc	ra,0x0
    80001f04:	cce080e7          	jalr	-818(ra) # 80001bce <walk>
    80001f08:	fea43023          	sd	a0,-32(s0)
    80001f0c:	fe043783          	ld	a5,-32(s0)
    80001f10:	eb89                	bnez	a5,80001f22 <space_unmap+0x6c>
    80001f12:	0000a517          	auipc	a0,0xa
    80001f16:	1ee50513          	addi	a0,a0,494 # 8000c100 <etext+0x100>
    80001f1a:	fffff097          	auipc	ra,0xfffff
    80001f1e:	d84080e7          	jalr	-636(ra) # 80000c9e <panic>
    80001f22:	fe043783          	ld	a5,-32(s0)
    80001f26:	639c                	ld	a5,0(a5)
    80001f28:	8b85                	andi	a5,a5,1
    80001f2a:	eb89                	bnez	a5,80001f3c <space_unmap+0x86>
    80001f2c:	0000a517          	auipc	a0,0xa
    80001f30:	1ec50513          	addi	a0,a0,492 # 8000c118 <etext+0x118>
    80001f34:	fffff097          	auipc	ra,0xfffff
    80001f38:	d6a080e7          	jalr	-662(ra) # 80000c9e <panic>
    80001f3c:	fe043783          	ld	a5,-32(s0)
    80001f40:	639c                	ld	a5,0(a5)
    80001f42:	3ff7f713          	andi	a4,a5,1023
    80001f46:	4785                	li	a5,1
    80001f48:	00f71a63          	bne	a4,a5,80001f5c <space_unmap+0xa6>
    80001f4c:	0000a517          	auipc	a0,0xa
    80001f50:	1e450513          	addi	a0,a0,484 # 8000c130 <etext+0x130>
    80001f54:	fffff097          	auipc	ra,0xfffff
    80001f58:	d4a080e7          	jalr	-694(ra) # 80000c9e <panic>
    80001f5c:	fb442783          	lw	a5,-76(s0)
    80001f60:	2781                	sext.w	a5,a5
    80001f62:	cf99                	beqz	a5,80001f80 <space_unmap+0xca>
    80001f64:	fe043783          	ld	a5,-32(s0)
    80001f68:	639c                	ld	a5,0(a5)
    80001f6a:	83a9                	srli	a5,a5,0xa
    80001f6c:	07b2                	slli	a5,a5,0xc
    80001f6e:	fcf43c23          	sd	a5,-40(s0)
    80001f72:	fd843783          	ld	a5,-40(s0)
    80001f76:	853e                	mv	a0,a5
    80001f78:	fffff097          	auipc	ra,0xfffff
    80001f7c:	162080e7          	jalr	354(ra) # 800010da <kfree>
    80001f80:	fe043783          	ld	a5,-32(s0)
    80001f84:	0007b023          	sd	zero,0(a5)
    80001f88:	fe843703          	ld	a4,-24(s0)
    80001f8c:	6785                	lui	a5,0x1
    80001f8e:	97ba                	add	a5,a5,a4
    80001f90:	fef43423          	sd	a5,-24(s0)
    80001f94:	fb843783          	ld	a5,-72(s0)
    80001f98:	00c79713          	slli	a4,a5,0xc
    80001f9c:	fc043783          	ld	a5,-64(s0)
    80001fa0:	97ba                	add	a5,a5,a4
    80001fa2:	fe843703          	ld	a4,-24(s0)
    80001fa6:	f4f768e3          	bltu	a4,a5,80001ef6 <space_unmap+0x40>
    80001faa:	0001                	nop
    80001fac:	0001                	nop
    80001fae:	60a6                	ld	ra,72(sp)
    80001fb0:	6406                	ld	s0,64(sp)
    80001fb2:	6161                	addi	sp,sp,80
    80001fb4:	8082                	ret

0000000080001fb6 <uvmcreate>:
    80001fb6:	1101                	addi	sp,sp,-32
    80001fb8:	ec06                	sd	ra,24(sp)
    80001fba:	e822                	sd	s0,16(sp)
    80001fbc:	1000                	addi	s0,sp,32
    80001fbe:	fffff097          	auipc	ra,0xfffff
    80001fc2:	1c0080e7          	jalr	448(ra) # 8000117e <kalloc>
    80001fc6:	fea43423          	sd	a0,-24(s0)
    80001fca:	fe843783          	ld	a5,-24(s0)
    80001fce:	e399                	bnez	a5,80001fd4 <uvmcreate+0x1e>
    80001fd0:	4781                	li	a5,0
    80001fd2:	a819                	j	80001fe8 <uvmcreate+0x32>
    80001fd4:	6605                	lui	a2,0x1
    80001fd6:	4581                	li	a1,0
    80001fd8:	fe843503          	ld	a0,-24(s0)
    80001fdc:	fffff097          	auipc	ra,0xfffff
    80001fe0:	4ca080e7          	jalr	1226(ra) # 800014a6 <memset>
    80001fe4:	fe843783          	ld	a5,-24(s0)
    80001fe8:	853e                	mv	a0,a5
    80001fea:	60e2                	ld	ra,24(sp)
    80001fec:	6442                	ld	s0,16(sp)
    80001fee:	6105                	addi	sp,sp,32
    80001ff0:	8082                	ret

0000000080001ff2 <uvminit>:
    80001ff2:	7139                	addi	sp,sp,-64
    80001ff4:	fc06                	sd	ra,56(sp)
    80001ff6:	f822                	sd	s0,48(sp)
    80001ff8:	0080                	addi	s0,sp,64
    80001ffa:	fca43c23          	sd	a0,-40(s0)
    80001ffe:	fcb43823          	sd	a1,-48(s0)
    80002002:	87b2                	mv	a5,a2
    80002004:	fcf42623          	sw	a5,-52(s0)
    80002008:	fcc42783          	lw	a5,-52(s0)
    8000200c:	0007871b          	sext.w	a4,a5
    80002010:	6785                	lui	a5,0x1
    80002012:	00f76a63          	bltu	a4,a5,80002026 <uvminit+0x34>
    80002016:	0000a517          	auipc	a0,0xa
    8000201a:	13250513          	addi	a0,a0,306 # 8000c148 <etext+0x148>
    8000201e:	fffff097          	auipc	ra,0xfffff
    80002022:	c80080e7          	jalr	-896(ra) # 80000c9e <panic>
    80002026:	fffff097          	auipc	ra,0xfffff
    8000202a:	158080e7          	jalr	344(ra) # 8000117e <kalloc>
    8000202e:	fea43423          	sd	a0,-24(s0)
    80002032:	6605                	lui	a2,0x1
    80002034:	4581                	li	a1,0
    80002036:	fe843503          	ld	a0,-24(s0)
    8000203a:	fffff097          	auipc	ra,0xfffff
    8000203e:	46c080e7          	jalr	1132(ra) # 800014a6 <memset>
    80002042:	fe843783          	ld	a5,-24(s0)
    80002046:	4779                	li	a4,30
    80002048:	86be                	mv	a3,a5
    8000204a:	6605                	lui	a2,0x1
    8000204c:	4581                	li	a1,0
    8000204e:	fd843503          	ld	a0,-40(s0)
    80002052:	00000097          	auipc	ra,0x0
    80002056:	d70080e7          	jalr	-656(ra) # 80001dc2 <space_map>
    8000205a:	fcc42783          	lw	a5,-52(s0)
    8000205e:	863e                	mv	a2,a5
    80002060:	fd043583          	ld	a1,-48(s0)
    80002064:	fe843503          	ld	a0,-24(s0)
    80002068:	fffff097          	auipc	ra,0xfffff
    8000206c:	522080e7          	jalr	1314(ra) # 8000158a <memmove>
    80002070:	0001                	nop
    80002072:	70e2                	ld	ra,56(sp)
    80002074:	7442                	ld	s0,48(sp)
    80002076:	6121                	addi	sp,sp,64
    80002078:	8082                	ret

000000008000207a <uvmalloc>:
    8000207a:	7139                	addi	sp,sp,-64
    8000207c:	fc06                	sd	ra,56(sp)
    8000207e:	f822                	sd	s0,48(sp)
    80002080:	0080                	addi	s0,sp,64
    80002082:	fca43c23          	sd	a0,-40(s0)
    80002086:	fcb43823          	sd	a1,-48(s0)
    8000208a:	fcc43423          	sd	a2,-56(s0)
    8000208e:	fc843703          	ld	a4,-56(s0)
    80002092:	fd043783          	ld	a5,-48(s0)
    80002096:	00f77563          	bgeu	a4,a5,800020a0 <uvmalloc+0x26>
    8000209a:	fd043783          	ld	a5,-48(s0)
    8000209e:	a0d9                	j	80002164 <uvmalloc+0xea>
    800020a0:	fc843703          	ld	a4,-56(s0)
    800020a4:	0c0007b7          	lui	a5,0xc000
    800020a8:	00f76463          	bltu	a4,a5,800020b0 <uvmalloc+0x36>
    800020ac:	4781                	li	a5,0
    800020ae:	a85d                	j	80002164 <uvmalloc+0xea>
    800020b0:	fd043703          	ld	a4,-48(s0)
    800020b4:	6785                	lui	a5,0x1
    800020b6:	17fd                	addi	a5,a5,-1 # fff <_entry-0x7ffff001>
    800020b8:	973e                	add	a4,a4,a5
    800020ba:	77fd                	lui	a5,0xfffff
    800020bc:	8ff9                	and	a5,a5,a4
    800020be:	fcf43823          	sd	a5,-48(s0)
    800020c2:	fd043783          	ld	a5,-48(s0)
    800020c6:	fef43423          	sd	a5,-24(s0)
    800020ca:	a069                	j	80002154 <uvmalloc+0xda>
    800020cc:	fffff097          	auipc	ra,0xfffff
    800020d0:	0b2080e7          	jalr	178(ra) # 8000117e <kalloc>
    800020d4:	fea43023          	sd	a0,-32(s0)
    800020d8:	fe043783          	ld	a5,-32(s0)
    800020dc:	ef89                	bnez	a5,800020f6 <uvmalloc+0x7c>
    800020de:	fd043603          	ld	a2,-48(s0)
    800020e2:	fe843583          	ld	a1,-24(s0)
    800020e6:	fd843503          	ld	a0,-40(s0)
    800020ea:	00000097          	auipc	ra,0x0
    800020ee:	084080e7          	jalr	132(ra) # 8000216e <uvmdealloc>
    800020f2:	4781                	li	a5,0
    800020f4:	a885                	j	80002164 <uvmalloc+0xea>
    800020f6:	6605                	lui	a2,0x1
    800020f8:	4581                	li	a1,0
    800020fa:	fe043503          	ld	a0,-32(s0)
    800020fe:	fffff097          	auipc	ra,0xfffff
    80002102:	3a8080e7          	jalr	936(ra) # 800014a6 <memset>
    80002106:	fe043783          	ld	a5,-32(s0)
    8000210a:	4779                	li	a4,30
    8000210c:	86be                	mv	a3,a5
    8000210e:	6605                	lui	a2,0x1
    80002110:	fe843583          	ld	a1,-24(s0)
    80002114:	fd843503          	ld	a0,-40(s0)
    80002118:	00000097          	auipc	ra,0x0
    8000211c:	caa080e7          	jalr	-854(ra) # 80001dc2 <space_map>
    80002120:	87aa                	mv	a5,a0
    80002122:	c39d                	beqz	a5,80002148 <uvmalloc+0xce>
    80002124:	fe043503          	ld	a0,-32(s0)
    80002128:	fffff097          	auipc	ra,0xfffff
    8000212c:	fb2080e7          	jalr	-78(ra) # 800010da <kfree>
    80002130:	fd043603          	ld	a2,-48(s0)
    80002134:	fe843583          	ld	a1,-24(s0)
    80002138:	fd843503          	ld	a0,-40(s0)
    8000213c:	00000097          	auipc	ra,0x0
    80002140:	032080e7          	jalr	50(ra) # 8000216e <uvmdealloc>
    80002144:	4781                	li	a5,0
    80002146:	a839                	j	80002164 <uvmalloc+0xea>
    80002148:	fe843703          	ld	a4,-24(s0)
    8000214c:	6785                	lui	a5,0x1
    8000214e:	97ba                	add	a5,a5,a4
    80002150:	fef43423          	sd	a5,-24(s0)
    80002154:	fe843703          	ld	a4,-24(s0)
    80002158:	fc843783          	ld	a5,-56(s0)
    8000215c:	f6f768e3          	bltu	a4,a5,800020cc <uvmalloc+0x52>
    80002160:	fc843783          	ld	a5,-56(s0)
    80002164:	853e                	mv	a0,a5
    80002166:	70e2                	ld	ra,56(sp)
    80002168:	7442                	ld	s0,48(sp)
    8000216a:	6121                	addi	sp,sp,64
    8000216c:	8082                	ret

000000008000216e <uvmdealloc>:
    8000216e:	7139                	addi	sp,sp,-64
    80002170:	fc06                	sd	ra,56(sp)
    80002172:	f822                	sd	s0,48(sp)
    80002174:	0080                	addi	s0,sp,64
    80002176:	fca43c23          	sd	a0,-40(s0)
    8000217a:	fcb43823          	sd	a1,-48(s0)
    8000217e:	fcc43423          	sd	a2,-56(s0)
    80002182:	fc843703          	ld	a4,-56(s0)
    80002186:	fd043783          	ld	a5,-48(s0)
    8000218a:	00f76563          	bltu	a4,a5,80002194 <uvmdealloc+0x26>
    8000218e:	fd043783          	ld	a5,-48(s0)
    80002192:	a885                	j	80002202 <uvmdealloc+0x94>
    80002194:	fc843703          	ld	a4,-56(s0)
    80002198:	6785                	lui	a5,0x1
    8000219a:	17fd                	addi	a5,a5,-1 # fff <_entry-0x7ffff001>
    8000219c:	973e                	add	a4,a4,a5
    8000219e:	77fd                	lui	a5,0xfffff
    800021a0:	8f7d                	and	a4,a4,a5
    800021a2:	fd043683          	ld	a3,-48(s0)
    800021a6:	6785                	lui	a5,0x1
    800021a8:	17fd                	addi	a5,a5,-1 # fff <_entry-0x7ffff001>
    800021aa:	96be                	add	a3,a3,a5
    800021ac:	77fd                	lui	a5,0xfffff
    800021ae:	8ff5                	and	a5,a5,a3
    800021b0:	04f77763          	bgeu	a4,a5,800021fe <uvmdealloc+0x90>
    800021b4:	fd043703          	ld	a4,-48(s0)
    800021b8:	6785                	lui	a5,0x1
    800021ba:	17fd                	addi	a5,a5,-1 # fff <_entry-0x7ffff001>
    800021bc:	973e                	add	a4,a4,a5
    800021be:	77fd                	lui	a5,0xfffff
    800021c0:	8f7d                	and	a4,a4,a5
    800021c2:	fc843683          	ld	a3,-56(s0)
    800021c6:	6785                	lui	a5,0x1
    800021c8:	17fd                	addi	a5,a5,-1 # fff <_entry-0x7ffff001>
    800021ca:	96be                	add	a3,a3,a5
    800021cc:	77fd                	lui	a5,0xfffff
    800021ce:	8ff5                	and	a5,a5,a3
    800021d0:	40f707b3          	sub	a5,a4,a5
    800021d4:	83b1                	srli	a5,a5,0xc
    800021d6:	fef42623          	sw	a5,-20(s0)
    800021da:	fc843703          	ld	a4,-56(s0)
    800021de:	6785                	lui	a5,0x1
    800021e0:	17fd                	addi	a5,a5,-1 # fff <_entry-0x7ffff001>
    800021e2:	973e                	add	a4,a4,a5
    800021e4:	77fd                	lui	a5,0xfffff
    800021e6:	8ff9                	and	a5,a5,a4
    800021e8:	fec42703          	lw	a4,-20(s0)
    800021ec:	4685                	li	a3,1
    800021ee:	863a                	mv	a2,a4
    800021f0:	85be                	mv	a1,a5
    800021f2:	fd843503          	ld	a0,-40(s0)
    800021f6:	00000097          	auipc	ra,0x0
    800021fa:	cc0080e7          	jalr	-832(ra) # 80001eb6 <space_unmap>
    800021fe:	fc843783          	ld	a5,-56(s0)
    80002202:	853e                	mv	a0,a5
    80002204:	70e2                	ld	ra,56(sp)
    80002206:	7442                	ld	s0,48(sp)
    80002208:	6121                	addi	sp,sp,64
    8000220a:	8082                	ret

000000008000220c <freewalk>:
    8000220c:	7139                	addi	sp,sp,-64
    8000220e:	fc06                	sd	ra,56(sp)
    80002210:	f822                	sd	s0,48(sp)
    80002212:	0080                	addi	s0,sp,64
    80002214:	fca43423          	sd	a0,-56(s0)
    80002218:	fe042623          	sw	zero,-20(s0)
    8000221c:	a88d                	j	8000228e <freewalk+0x82>
    8000221e:	fec42783          	lw	a5,-20(s0)
    80002222:	078e                	slli	a5,a5,0x3
    80002224:	fc843703          	ld	a4,-56(s0)
    80002228:	97ba                	add	a5,a5,a4
    8000222a:	639c                	ld	a5,0(a5)
    8000222c:	fef43023          	sd	a5,-32(s0)
    80002230:	fe043783          	ld	a5,-32(s0)
    80002234:	8b85                	andi	a5,a5,1
    80002236:	cb9d                	beqz	a5,8000226c <freewalk+0x60>
    80002238:	fe043783          	ld	a5,-32(s0)
    8000223c:	8bb9                	andi	a5,a5,14
    8000223e:	e79d                	bnez	a5,8000226c <freewalk+0x60>
    80002240:	fe043783          	ld	a5,-32(s0)
    80002244:	83a9                	srli	a5,a5,0xa
    80002246:	07b2                	slli	a5,a5,0xc
    80002248:	fcf43c23          	sd	a5,-40(s0)
    8000224c:	fd843783          	ld	a5,-40(s0)
    80002250:	853e                	mv	a0,a5
    80002252:	00000097          	auipc	ra,0x0
    80002256:	fba080e7          	jalr	-70(ra) # 8000220c <freewalk>
    8000225a:	fec42783          	lw	a5,-20(s0)
    8000225e:	078e                	slli	a5,a5,0x3
    80002260:	fc843703          	ld	a4,-56(s0)
    80002264:	97ba                	add	a5,a5,a4
    80002266:	0007b023          	sd	zero,0(a5) # fffffffffffff000 <end+0xffffffff7ffd3fd8>
    8000226a:	a829                	j	80002284 <freewalk+0x78>
    8000226c:	fe043783          	ld	a5,-32(s0)
    80002270:	8b85                	andi	a5,a5,1
    80002272:	cb89                	beqz	a5,80002284 <freewalk+0x78>
    80002274:	0000a517          	auipc	a0,0xa
    80002278:	ef450513          	addi	a0,a0,-268 # 8000c168 <etext+0x168>
    8000227c:	fffff097          	auipc	ra,0xfffff
    80002280:	a22080e7          	jalr	-1502(ra) # 80000c9e <panic>
    80002284:	fec42783          	lw	a5,-20(s0)
    80002288:	2785                	addiw	a5,a5,1
    8000228a:	fef42623          	sw	a5,-20(s0)
    8000228e:	fec42783          	lw	a5,-20(s0)
    80002292:	0007871b          	sext.w	a4,a5
    80002296:	1ff00793          	li	a5,511
    8000229a:	f8e7d2e3          	bge	a5,a4,8000221e <freewalk+0x12>
    8000229e:	fc843503          	ld	a0,-56(s0)
    800022a2:	fffff097          	auipc	ra,0xfffff
    800022a6:	e38080e7          	jalr	-456(ra) # 800010da <kfree>
    800022aa:	0001                	nop
    800022ac:	70e2                	ld	ra,56(sp)
    800022ae:	7442                	ld	s0,48(sp)
    800022b0:	6121                	addi	sp,sp,64
    800022b2:	8082                	ret

00000000800022b4 <uvmfree>:
    800022b4:	1101                	addi	sp,sp,-32
    800022b6:	ec06                	sd	ra,24(sp)
    800022b8:	e822                	sd	s0,16(sp)
    800022ba:	1000                	addi	s0,sp,32
    800022bc:	fea43423          	sd	a0,-24(s0)
    800022c0:	feb43023          	sd	a1,-32(s0)
    800022c4:	fe043783          	ld	a5,-32(s0)
    800022c8:	c385                	beqz	a5,800022e8 <uvmfree+0x34>
    800022ca:	fe043703          	ld	a4,-32(s0)
    800022ce:	6785                	lui	a5,0x1
    800022d0:	17fd                	addi	a5,a5,-1 # fff <_entry-0x7ffff001>
    800022d2:	97ba                	add	a5,a5,a4
    800022d4:	83b1                	srli	a5,a5,0xc
    800022d6:	4685                	li	a3,1
    800022d8:	863e                	mv	a2,a5
    800022da:	4581                	li	a1,0
    800022dc:	fe843503          	ld	a0,-24(s0)
    800022e0:	00000097          	auipc	ra,0x0
    800022e4:	bd6080e7          	jalr	-1066(ra) # 80001eb6 <space_unmap>
    800022e8:	fe843503          	ld	a0,-24(s0)
    800022ec:	00000097          	auipc	ra,0x0
    800022f0:	f20080e7          	jalr	-224(ra) # 8000220c <freewalk>
    800022f4:	0001                	nop
    800022f6:	60e2                	ld	ra,24(sp)
    800022f8:	6442                	ld	s0,16(sp)
    800022fa:	6105                	addi	sp,sp,32
    800022fc:	8082                	ret

00000000800022fe <uvmcopy>:
    800022fe:	711d                	addi	sp,sp,-96
    80002300:	ec86                	sd	ra,88(sp)
    80002302:	e8a2                	sd	s0,80(sp)
    80002304:	1080                	addi	s0,sp,96
    80002306:	faa43c23          	sd	a0,-72(s0)
    8000230a:	fab43823          	sd	a1,-80(s0)
    8000230e:	fac43423          	sd	a2,-88(s0)
    80002312:	fe043423          	sd	zero,-24(s0)
    80002316:	a0d9                	j	800023dc <uvmcopy+0xde>
    80002318:	4601                	li	a2,0
    8000231a:	fe843583          	ld	a1,-24(s0)
    8000231e:	fb843503          	ld	a0,-72(s0)
    80002322:	00000097          	auipc	ra,0x0
    80002326:	8ac080e7          	jalr	-1876(ra) # 80001bce <walk>
    8000232a:	fea43023          	sd	a0,-32(s0)
    8000232e:	fe043783          	ld	a5,-32(s0)
    80002332:	eb89                	bnez	a5,80002344 <uvmcopy+0x46>
    80002334:	0000a517          	auipc	a0,0xa
    80002338:	e4450513          	addi	a0,a0,-444 # 8000c178 <etext+0x178>
    8000233c:	fffff097          	auipc	ra,0xfffff
    80002340:	962080e7          	jalr	-1694(ra) # 80000c9e <panic>
    80002344:	fe043783          	ld	a5,-32(s0)
    80002348:	639c                	ld	a5,0(a5)
    8000234a:	8b85                	andi	a5,a5,1
    8000234c:	eb89                	bnez	a5,8000235e <uvmcopy+0x60>
    8000234e:	0000a517          	auipc	a0,0xa
    80002352:	e4a50513          	addi	a0,a0,-438 # 8000c198 <etext+0x198>
    80002356:	fffff097          	auipc	ra,0xfffff
    8000235a:	948080e7          	jalr	-1720(ra) # 80000c9e <panic>
    8000235e:	fe043783          	ld	a5,-32(s0)
    80002362:	639c                	ld	a5,0(a5)
    80002364:	83a9                	srli	a5,a5,0xa
    80002366:	07b2                	slli	a5,a5,0xc
    80002368:	fcf43c23          	sd	a5,-40(s0)
    8000236c:	fe043783          	ld	a5,-32(s0)
    80002370:	639c                	ld	a5,0(a5)
    80002372:	2781                	sext.w	a5,a5
    80002374:	3ff7f793          	andi	a5,a5,1023
    80002378:	fcf42a23          	sw	a5,-44(s0)
    8000237c:	fffff097          	auipc	ra,0xfffff
    80002380:	e02080e7          	jalr	-510(ra) # 8000117e <kalloc>
    80002384:	fca43423          	sd	a0,-56(s0)
    80002388:	fc843783          	ld	a5,-56(s0)
    8000238c:	c3a5                	beqz	a5,800023ec <uvmcopy+0xee>
    8000238e:	fd843783          	ld	a5,-40(s0)
    80002392:	6605                	lui	a2,0x1
    80002394:	85be                	mv	a1,a5
    80002396:	fc843503          	ld	a0,-56(s0)
    8000239a:	fffff097          	auipc	ra,0xfffff
    8000239e:	1f0080e7          	jalr	496(ra) # 8000158a <memmove>
    800023a2:	fc843783          	ld	a5,-56(s0)
    800023a6:	fd442703          	lw	a4,-44(s0)
    800023aa:	86be                	mv	a3,a5
    800023ac:	6605                	lui	a2,0x1
    800023ae:	fe843583          	ld	a1,-24(s0)
    800023b2:	fb043503          	ld	a0,-80(s0)
    800023b6:	00000097          	auipc	ra,0x0
    800023ba:	a0c080e7          	jalr	-1524(ra) # 80001dc2 <space_map>
    800023be:	87aa                	mv	a5,a0
    800023c0:	cb81                	beqz	a5,800023d0 <uvmcopy+0xd2>
    800023c2:	fc843503          	ld	a0,-56(s0)
    800023c6:	fffff097          	auipc	ra,0xfffff
    800023ca:	d14080e7          	jalr	-748(ra) # 800010da <kfree>
    800023ce:	a005                	j	800023ee <uvmcopy+0xf0>
    800023d0:	fe843703          	ld	a4,-24(s0)
    800023d4:	6785                	lui	a5,0x1
    800023d6:	97ba                	add	a5,a5,a4
    800023d8:	fef43423          	sd	a5,-24(s0)
    800023dc:	fe843703          	ld	a4,-24(s0)
    800023e0:	fa843783          	ld	a5,-88(s0)
    800023e4:	f2f76ae3          	bltu	a4,a5,80002318 <uvmcopy+0x1a>
    800023e8:	4781                	li	a5,0
    800023ea:	a839                	j	80002408 <uvmcopy+0x10a>
    800023ec:	0001                	nop
    800023ee:	fe843783          	ld	a5,-24(s0)
    800023f2:	83b1                	srli	a5,a5,0xc
    800023f4:	4685                	li	a3,1
    800023f6:	863e                	mv	a2,a5
    800023f8:	4581                	li	a1,0
    800023fa:	fb043503          	ld	a0,-80(s0)
    800023fe:	00000097          	auipc	ra,0x0
    80002402:	ab8080e7          	jalr	-1352(ra) # 80001eb6 <space_unmap>
    80002406:	57fd                	li	a5,-1
    80002408:	853e                	mv	a0,a5
    8000240a:	60e6                	ld	ra,88(sp)
    8000240c:	6446                	ld	s0,80(sp)
    8000240e:	6125                	addi	sp,sp,96
    80002410:	8082                	ret

0000000080002412 <uvmclear>:
    80002412:	7179                	addi	sp,sp,-48
    80002414:	f406                	sd	ra,40(sp)
    80002416:	f022                	sd	s0,32(sp)
    80002418:	1800                	addi	s0,sp,48
    8000241a:	fca43c23          	sd	a0,-40(s0)
    8000241e:	fcb43823          	sd	a1,-48(s0)
    80002422:	4601                	li	a2,0
    80002424:	fd043583          	ld	a1,-48(s0)
    80002428:	fd843503          	ld	a0,-40(s0)
    8000242c:	fffff097          	auipc	ra,0xfffff
    80002430:	7a2080e7          	jalr	1954(ra) # 80001bce <walk>
    80002434:	fea43423          	sd	a0,-24(s0)
    80002438:	fe843783          	ld	a5,-24(s0)
    8000243c:	eb89                	bnez	a5,8000244e <uvmclear+0x3c>
    8000243e:	0000a517          	auipc	a0,0xa
    80002442:	d7a50513          	addi	a0,a0,-646 # 8000c1b8 <etext+0x1b8>
    80002446:	fffff097          	auipc	ra,0xfffff
    8000244a:	858080e7          	jalr	-1960(ra) # 80000c9e <panic>
    8000244e:	fe843783          	ld	a5,-24(s0)
    80002452:	639c                	ld	a5,0(a5)
    80002454:	fef7f713          	andi	a4,a5,-17
    80002458:	fe843783          	ld	a5,-24(s0)
    8000245c:	e398                	sd	a4,0(a5)
    8000245e:	0001                	nop
    80002460:	70a2                	ld	ra,40(sp)
    80002462:	7402                	ld	s0,32(sp)
    80002464:	6145                	addi	sp,sp,48
    80002466:	8082                	ret

0000000080002468 <copyout>:
    80002468:	715d                	addi	sp,sp,-80
    8000246a:	e486                	sd	ra,72(sp)
    8000246c:	e0a2                	sd	s0,64(sp)
    8000246e:	0880                	addi	s0,sp,80
    80002470:	fca43423          	sd	a0,-56(s0)
    80002474:	fcb43023          	sd	a1,-64(s0)
    80002478:	fac43c23          	sd	a2,-72(s0)
    8000247c:	fad43823          	sd	a3,-80(s0)
    80002480:	a055                	j	80002524 <copyout+0xbc>
    80002482:	fc043703          	ld	a4,-64(s0)
    80002486:	77fd                	lui	a5,0xfffff
    80002488:	8ff9                	and	a5,a5,a4
    8000248a:	fef43023          	sd	a5,-32(s0)
    8000248e:	fe043583          	ld	a1,-32(s0)
    80002492:	fc843503          	ld	a0,-56(s0)
    80002496:	00000097          	auipc	ra,0x0
    8000249a:	82a080e7          	jalr	-2006(ra) # 80001cc0 <walkaddr>
    8000249e:	fca43c23          	sd	a0,-40(s0)
    800024a2:	fd843783          	ld	a5,-40(s0)
    800024a6:	e399                	bnez	a5,800024ac <copyout+0x44>
    800024a8:	57fd                	li	a5,-1
    800024aa:	a049                	j	8000252c <copyout+0xc4>
    800024ac:	fe043703          	ld	a4,-32(s0)
    800024b0:	fc043783          	ld	a5,-64(s0)
    800024b4:	8f1d                	sub	a4,a4,a5
    800024b6:	6785                	lui	a5,0x1
    800024b8:	97ba                	add	a5,a5,a4
    800024ba:	fef43423          	sd	a5,-24(s0)
    800024be:	fe843703          	ld	a4,-24(s0)
    800024c2:	fb043783          	ld	a5,-80(s0)
    800024c6:	00e7f663          	bgeu	a5,a4,800024d2 <copyout+0x6a>
    800024ca:	fb043783          	ld	a5,-80(s0)
    800024ce:	fef43423          	sd	a5,-24(s0)
    800024d2:	fc043703          	ld	a4,-64(s0)
    800024d6:	fe043783          	ld	a5,-32(s0)
    800024da:	8f1d                	sub	a4,a4,a5
    800024dc:	fd843783          	ld	a5,-40(s0)
    800024e0:	97ba                	add	a5,a5,a4
    800024e2:	873e                	mv	a4,a5
    800024e4:	fe843783          	ld	a5,-24(s0)
    800024e8:	2781                	sext.w	a5,a5
    800024ea:	863e                	mv	a2,a5
    800024ec:	fb843583          	ld	a1,-72(s0)
    800024f0:	853a                	mv	a0,a4
    800024f2:	fffff097          	auipc	ra,0xfffff
    800024f6:	098080e7          	jalr	152(ra) # 8000158a <memmove>
    800024fa:	fb043703          	ld	a4,-80(s0)
    800024fe:	fe843783          	ld	a5,-24(s0)
    80002502:	40f707b3          	sub	a5,a4,a5
    80002506:	faf43823          	sd	a5,-80(s0)
    8000250a:	fb843703          	ld	a4,-72(s0)
    8000250e:	fe843783          	ld	a5,-24(s0)
    80002512:	97ba                	add	a5,a5,a4
    80002514:	faf43c23          	sd	a5,-72(s0)
    80002518:	fe043703          	ld	a4,-32(s0)
    8000251c:	6785                	lui	a5,0x1
    8000251e:	97ba                	add	a5,a5,a4
    80002520:	fcf43023          	sd	a5,-64(s0)
    80002524:	fb043783          	ld	a5,-80(s0)
    80002528:	ffa9                	bnez	a5,80002482 <copyout+0x1a>
    8000252a:	4781                	li	a5,0
    8000252c:	853e                	mv	a0,a5
    8000252e:	60a6                	ld	ra,72(sp)
    80002530:	6406                	ld	s0,64(sp)
    80002532:	6161                	addi	sp,sp,80
    80002534:	8082                	ret

0000000080002536 <copyin>:
    80002536:	715d                	addi	sp,sp,-80
    80002538:	e486                	sd	ra,72(sp)
    8000253a:	e0a2                	sd	s0,64(sp)
    8000253c:	0880                	addi	s0,sp,80
    8000253e:	fca43423          	sd	a0,-56(s0)
    80002542:	fcb43023          	sd	a1,-64(s0)
    80002546:	fac43c23          	sd	a2,-72(s0)
    8000254a:	fad43823          	sd	a3,-80(s0)
    8000254e:	a055                	j	800025f2 <copyin+0xbc>
    80002550:	fb843703          	ld	a4,-72(s0)
    80002554:	77fd                	lui	a5,0xfffff
    80002556:	8ff9                	and	a5,a5,a4
    80002558:	fef43023          	sd	a5,-32(s0)
    8000255c:	fe043583          	ld	a1,-32(s0)
    80002560:	fc843503          	ld	a0,-56(s0)
    80002564:	fffff097          	auipc	ra,0xfffff
    80002568:	75c080e7          	jalr	1884(ra) # 80001cc0 <walkaddr>
    8000256c:	fca43c23          	sd	a0,-40(s0)
    80002570:	fd843783          	ld	a5,-40(s0)
    80002574:	e399                	bnez	a5,8000257a <copyin+0x44>
    80002576:	57fd                	li	a5,-1
    80002578:	a049                	j	800025fa <copyin+0xc4>
    8000257a:	fe043703          	ld	a4,-32(s0)
    8000257e:	fb843783          	ld	a5,-72(s0)
    80002582:	8f1d                	sub	a4,a4,a5
    80002584:	6785                	lui	a5,0x1
    80002586:	97ba                	add	a5,a5,a4
    80002588:	fef43423          	sd	a5,-24(s0)
    8000258c:	fe843703          	ld	a4,-24(s0)
    80002590:	fb043783          	ld	a5,-80(s0)
    80002594:	00e7f663          	bgeu	a5,a4,800025a0 <copyin+0x6a>
    80002598:	fb043783          	ld	a5,-80(s0)
    8000259c:	fef43423          	sd	a5,-24(s0)
    800025a0:	fb843703          	ld	a4,-72(s0)
    800025a4:	fe043783          	ld	a5,-32(s0)
    800025a8:	8f1d                	sub	a4,a4,a5
    800025aa:	fd843783          	ld	a5,-40(s0)
    800025ae:	97ba                	add	a5,a5,a4
    800025b0:	873e                	mv	a4,a5
    800025b2:	fe843783          	ld	a5,-24(s0)
    800025b6:	2781                	sext.w	a5,a5
    800025b8:	863e                	mv	a2,a5
    800025ba:	85ba                	mv	a1,a4
    800025bc:	fc043503          	ld	a0,-64(s0)
    800025c0:	fffff097          	auipc	ra,0xfffff
    800025c4:	fca080e7          	jalr	-54(ra) # 8000158a <memmove>
    800025c8:	fb043703          	ld	a4,-80(s0)
    800025cc:	fe843783          	ld	a5,-24(s0)
    800025d0:	40f707b3          	sub	a5,a4,a5
    800025d4:	faf43823          	sd	a5,-80(s0)
    800025d8:	fc043703          	ld	a4,-64(s0)
    800025dc:	fe843783          	ld	a5,-24(s0)
    800025e0:	97ba                	add	a5,a5,a4
    800025e2:	fcf43023          	sd	a5,-64(s0)
    800025e6:	fe043703          	ld	a4,-32(s0)
    800025ea:	6785                	lui	a5,0x1
    800025ec:	97ba                	add	a5,a5,a4
    800025ee:	faf43c23          	sd	a5,-72(s0)
    800025f2:	fb043783          	ld	a5,-80(s0)
    800025f6:	ffa9                	bnez	a5,80002550 <copyin+0x1a>
    800025f8:	4781                	li	a5,0
    800025fa:	853e                	mv	a0,a5
    800025fc:	60a6                	ld	ra,72(sp)
    800025fe:	6406                	ld	s0,64(sp)
    80002600:	6161                	addi	sp,sp,80
    80002602:	8082                	ret

0000000080002604 <copyinstr>:
    80002604:	711d                	addi	sp,sp,-96
    80002606:	ec86                	sd	ra,88(sp)
    80002608:	e8a2                	sd	s0,80(sp)
    8000260a:	1080                	addi	s0,sp,96
    8000260c:	faa43c23          	sd	a0,-72(s0)
    80002610:	fab43823          	sd	a1,-80(s0)
    80002614:	fac43423          	sd	a2,-88(s0)
    80002618:	fad43023          	sd	a3,-96(s0)
    8000261c:	fe042223          	sw	zero,-28(s0)
    80002620:	a0f1                	j	800026ec <copyinstr+0xe8>
    80002622:	fa843703          	ld	a4,-88(s0)
    80002626:	77fd                	lui	a5,0xfffff
    80002628:	8ff9                	and	a5,a5,a4
    8000262a:	fcf43823          	sd	a5,-48(s0)
    8000262e:	fd043583          	ld	a1,-48(s0)
    80002632:	fb843503          	ld	a0,-72(s0)
    80002636:	fffff097          	auipc	ra,0xfffff
    8000263a:	68a080e7          	jalr	1674(ra) # 80001cc0 <walkaddr>
    8000263e:	fca43423          	sd	a0,-56(s0)
    80002642:	fc843783          	ld	a5,-56(s0)
    80002646:	e399                	bnez	a5,8000264c <copyinstr+0x48>
    80002648:	57fd                	li	a5,-1
    8000264a:	a87d                	j	80002708 <copyinstr+0x104>
    8000264c:	fd043703          	ld	a4,-48(s0)
    80002650:	fa843783          	ld	a5,-88(s0)
    80002654:	8f1d                	sub	a4,a4,a5
    80002656:	6785                	lui	a5,0x1
    80002658:	97ba                	add	a5,a5,a4
    8000265a:	fef43423          	sd	a5,-24(s0)
    8000265e:	fe843703          	ld	a4,-24(s0)
    80002662:	fa043783          	ld	a5,-96(s0)
    80002666:	00e7f663          	bgeu	a5,a4,80002672 <copyinstr+0x6e>
    8000266a:	fa043783          	ld	a5,-96(s0)
    8000266e:	fef43423          	sd	a5,-24(s0)
    80002672:	fa843703          	ld	a4,-88(s0)
    80002676:	fd043783          	ld	a5,-48(s0)
    8000267a:	8f1d                	sub	a4,a4,a5
    8000267c:	fc843783          	ld	a5,-56(s0)
    80002680:	97ba                	add	a5,a5,a4
    80002682:	fcf43c23          	sd	a5,-40(s0)
    80002686:	a891                	j	800026da <copyinstr+0xd6>
    80002688:	fd843783          	ld	a5,-40(s0)
    8000268c:	0007c783          	lbu	a5,0(a5) # 1000 <_entry-0x7ffff000>
    80002690:	eb89                	bnez	a5,800026a2 <copyinstr+0x9e>
    80002692:	fb043783          	ld	a5,-80(s0)
    80002696:	00078023          	sb	zero,0(a5)
    8000269a:	4785                	li	a5,1
    8000269c:	fef42223          	sw	a5,-28(s0)
    800026a0:	a081                	j	800026e0 <copyinstr+0xdc>
    800026a2:	fd843783          	ld	a5,-40(s0)
    800026a6:	0007c703          	lbu	a4,0(a5)
    800026aa:	fb043783          	ld	a5,-80(s0)
    800026ae:	00e78023          	sb	a4,0(a5)
    800026b2:	fe843783          	ld	a5,-24(s0)
    800026b6:	17fd                	addi	a5,a5,-1
    800026b8:	fef43423          	sd	a5,-24(s0)
    800026bc:	fa043783          	ld	a5,-96(s0)
    800026c0:	17fd                	addi	a5,a5,-1
    800026c2:	faf43023          	sd	a5,-96(s0)
    800026c6:	fd843783          	ld	a5,-40(s0)
    800026ca:	0785                	addi	a5,a5,1
    800026cc:	fcf43c23          	sd	a5,-40(s0)
    800026d0:	fb043783          	ld	a5,-80(s0)
    800026d4:	0785                	addi	a5,a5,1
    800026d6:	faf43823          	sd	a5,-80(s0)
    800026da:	fe843783          	ld	a5,-24(s0)
    800026de:	f7cd                	bnez	a5,80002688 <copyinstr+0x84>
    800026e0:	fd043703          	ld	a4,-48(s0)
    800026e4:	6785                	lui	a5,0x1
    800026e6:	97ba                	add	a5,a5,a4
    800026e8:	faf43423          	sd	a5,-88(s0)
    800026ec:	fe442783          	lw	a5,-28(s0)
    800026f0:	2781                	sext.w	a5,a5
    800026f2:	e781                	bnez	a5,800026fa <copyinstr+0xf6>
    800026f4:	fa043783          	ld	a5,-96(s0)
    800026f8:	f78d                	bnez	a5,80002622 <copyinstr+0x1e>
    800026fa:	fe442783          	lw	a5,-28(s0)
    800026fe:	2781                	sext.w	a5,a5
    80002700:	c399                	beqz	a5,80002706 <copyinstr+0x102>
    80002702:	4781                	li	a5,0
    80002704:	a011                	j	80002708 <copyinstr+0x104>
    80002706:	57fd                	li	a5,-1
    80002708:	853e                	mv	a0,a5
    8000270a:	60e6                	ld	ra,88(sp)
    8000270c:	6446                	ld	s0,80(sp)
    8000270e:	6125                	addi	sp,sp,96
    80002710:	8082                	ret

0000000080002712 <test_pagetable>:
    80002712:	1101                	addi	sp,sp,-32
    80002714:	ec06                	sd	ra,24(sp)
    80002716:	e822                	sd	s0,16(sp)
    80002718:	1000                	addi	s0,sp,32
    8000271a:	fffff097          	auipc	ra,0xfffff
    8000271e:	274080e7          	jalr	628(ra) # 8000198e <r_satp>
    80002722:	fea43423          	sd	a0,-24(s0)
    80002726:	0000b797          	auipc	a5,0xb
    8000272a:	8ea78793          	addi	a5,a5,-1814 # 8000d010 <g_space>
    8000272e:	639c                	ld	a5,0(a5)
    80002730:	00c7d713          	srli	a4,a5,0xc
    80002734:	57fd                	li	a5,-1
    80002736:	17fe                	slli	a5,a5,0x3f
    80002738:	8fd9                	or	a5,a5,a4
    8000273a:	fef43023          	sd	a5,-32(s0)
    8000273e:	fe843703          	ld	a4,-24(s0)
    80002742:	fe043783          	ld	a5,-32(s0)
    80002746:	40f707b3          	sub	a5,a4,a5
    8000274a:	00f037b3          	snez	a5,a5
    8000274e:	0ff7f793          	zext.b	a5,a5
    80002752:	2781                	sext.w	a5,a5
    80002754:	85be                	mv	a1,a5
    80002756:	0000a517          	auipc	a0,0xa
    8000275a:	a7250513          	addi	a0,a0,-1422 # 8000c1c8 <etext+0x1c8>
    8000275e:	ffffe097          	auipc	ra,0xffffe
    80002762:	2ea080e7          	jalr	746(ra) # 80000a48 <printf>
    80002766:	fe843703          	ld	a4,-24(s0)
    8000276a:	fe043783          	ld	a5,-32(s0)
    8000276e:	40f707b3          	sub	a5,a4,a5
    80002772:	00f037b3          	snez	a5,a5
    80002776:	0ff7f793          	zext.b	a5,a5
    8000277a:	2781                	sext.w	a5,a5
    8000277c:	853e                	mv	a0,a5
    8000277e:	60e2                	ld	ra,24(sp)
    80002780:	6442                	ld	s0,16(sp)
    80002782:	6105                	addi	sp,sp,32
    80002784:	8082                	ret

0000000080002786 <r_sstatus>:
    80002786:	1101                	addi	sp,sp,-32
    80002788:	ec22                	sd	s0,24(sp)
    8000278a:	1000                	addi	s0,sp,32
    8000278c:	100027f3          	csrr	a5,sstatus
    80002790:	fef43423          	sd	a5,-24(s0)
    80002794:	fe843783          	ld	a5,-24(s0)
    80002798:	853e                	mv	a0,a5
    8000279a:	6462                	ld	s0,24(sp)
    8000279c:	6105                	addi	sp,sp,32
    8000279e:	8082                	ret

00000000800027a0 <w_sstatus>:
    800027a0:	1101                	addi	sp,sp,-32
    800027a2:	ec22                	sd	s0,24(sp)
    800027a4:	1000                	addi	s0,sp,32
    800027a6:	fea43423          	sd	a0,-24(s0)
    800027aa:	fe843783          	ld	a5,-24(s0)
    800027ae:	10079073          	csrw	sstatus,a5
    800027b2:	0001                	nop
    800027b4:	6462                	ld	s0,24(sp)
    800027b6:	6105                	addi	sp,sp,32
    800027b8:	8082                	ret

00000000800027ba <w_satp>:
    800027ba:	1101                	addi	sp,sp,-32
    800027bc:	ec22                	sd	s0,24(sp)
    800027be:	1000                	addi	s0,sp,32
    800027c0:	fea43423          	sd	a0,-24(s0)
    800027c4:	fe843783          	ld	a5,-24(s0)
    800027c8:	18079073          	csrw	satp,a5
    800027cc:	0001                	nop
    800027ce:	6462                	ld	s0,24(sp)
    800027d0:	6105                	addi	sp,sp,32
    800027d2:	8082                	ret

00000000800027d4 <intr_on>:
    800027d4:	1141                	addi	sp,sp,-16
    800027d6:	e406                	sd	ra,8(sp)
    800027d8:	e022                	sd	s0,0(sp)
    800027da:	0800                	addi	s0,sp,16
    800027dc:	00000097          	auipc	ra,0x0
    800027e0:	faa080e7          	jalr	-86(ra) # 80002786 <r_sstatus>
    800027e4:	87aa                	mv	a5,a0
    800027e6:	0027e793          	ori	a5,a5,2
    800027ea:	853e                	mv	a0,a5
    800027ec:	00000097          	auipc	ra,0x0
    800027f0:	fb4080e7          	jalr	-76(ra) # 800027a0 <w_sstatus>
    800027f4:	0001                	nop
    800027f6:	60a2                	ld	ra,8(sp)
    800027f8:	6402                	ld	s0,0(sp)
    800027fa:	0141                	addi	sp,sp,16
    800027fc:	8082                	ret

00000000800027fe <intr_get>:
    800027fe:	1101                	addi	sp,sp,-32
    80002800:	ec06                	sd	ra,24(sp)
    80002802:	e822                	sd	s0,16(sp)
    80002804:	1000                	addi	s0,sp,32
    80002806:	00000097          	auipc	ra,0x0
    8000280a:	f80080e7          	jalr	-128(ra) # 80002786 <r_sstatus>
    8000280e:	fea43423          	sd	a0,-24(s0)
    80002812:	fe843783          	ld	a5,-24(s0)
    80002816:	8b89                	andi	a5,a5,2
    80002818:	00f037b3          	snez	a5,a5
    8000281c:	0ff7f793          	zext.b	a5,a5
    80002820:	2781                	sext.w	a5,a5
    80002822:	853e                	mv	a0,a5
    80002824:	60e2                	ld	ra,24(sp)
    80002826:	6442                	ld	s0,16(sp)
    80002828:	6105                	addi	sp,sp,32
    8000282a:	8082                	ret

000000008000282c <r_tp>:
    8000282c:	1101                	addi	sp,sp,-32
    8000282e:	ec22                	sd	s0,24(sp)
    80002830:	1000                	addi	s0,sp,32
    80002832:	8792                	mv	a5,tp
    80002834:	fef43423          	sd	a5,-24(s0)
    80002838:	fe843783          	ld	a5,-24(s0)
    8000283c:	853e                	mv	a0,a5
    8000283e:	6462                	ld	s0,24(sp)
    80002840:	6105                	addi	sp,sp,32
    80002842:	8082                	ret

0000000080002844 <sfence_vma>:
    80002844:	1141                	addi	sp,sp,-16
    80002846:	e422                	sd	s0,8(sp)
    80002848:	0800                	addi	s0,sp,16
    8000284a:	12000073          	sfence.vma
    8000284e:	0001                	nop
    80002850:	6422                	ld	s0,8(sp)
    80002852:	0141                	addi	sp,sp,16
    80002854:	8082                	ret

0000000080002856 <procinit>:
    80002856:	1101                	addi	sp,sp,-32
    80002858:	ec06                	sd	ra,24(sp)
    8000285a:	e822                	sd	s0,16(sp)
    8000285c:	1000                	addi	s0,sp,32
    8000285e:	0000a597          	auipc	a1,0xa
    80002862:	98258593          	addi	a1,a1,-1662 # 8000c1e0 <etext+0x1e0>
    80002866:	00019517          	auipc	a0,0x19
    8000286a:	ef250513          	addi	a0,a0,-270 # 8001b758 <pid_lock>
    8000286e:	fffff097          	auipc	ra,0xfffff
    80002872:	a34080e7          	jalr	-1484(ra) # 800012a2 <initlock>
    80002876:	00013797          	auipc	a5,0x13
    8000287a:	4e278793          	addi	a5,a5,1250 # 80015d58 <proc>
    8000287e:	fef43423          	sd	a5,-24(s0)
    80002882:	a881                	j	800028d2 <procinit+0x7c>
    80002884:	fe843783          	ld	a5,-24(s0)
    80002888:	0000a597          	auipc	a1,0xa
    8000288c:	96058593          	addi	a1,a1,-1696 # 8000c1e8 <etext+0x1e8>
    80002890:	853e                	mv	a0,a5
    80002892:	fffff097          	auipc	ra,0xfffff
    80002896:	a10080e7          	jalr	-1520(ra) # 800012a2 <initlock>
    8000289a:	fffff097          	auipc	ra,0xfffff
    8000289e:	8e4080e7          	jalr	-1820(ra) # 8000117e <kalloc>
    800028a2:	fea43023          	sd	a0,-32(s0)
    800028a6:	fe043783          	ld	a5,-32(s0)
    800028aa:	eb89                	bnez	a5,800028bc <procinit+0x66>
    800028ac:	0000a517          	auipc	a0,0xa
    800028b0:	94450513          	addi	a0,a0,-1724 # 8000c1f0 <etext+0x1f0>
    800028b4:	ffffe097          	auipc	ra,0xffffe
    800028b8:	3ea080e7          	jalr	1002(ra) # 80000c9e <panic>
    800028bc:	fe043703          	ld	a4,-32(s0)
    800028c0:	fe843783          	ld	a5,-24(s0)
    800028c4:	e3b8                	sd	a4,64(a5)
    800028c6:	fe843783          	ld	a5,-24(s0)
    800028ca:	16878793          	addi	a5,a5,360
    800028ce:	fef43423          	sd	a5,-24(s0)
    800028d2:	fe843703          	ld	a4,-24(s0)
    800028d6:	00019797          	auipc	a5,0x19
    800028da:	e8278793          	addi	a5,a5,-382 # 8001b758 <pid_lock>
    800028de:	faf763e3          	bltu	a4,a5,80002884 <procinit+0x2e>
    800028e2:	fffff097          	auipc	ra,0xfffff
    800028e6:	2b4080e7          	jalr	692(ra) # 80001b96 <kvminithart>
    800028ea:	0001                	nop
    800028ec:	60e2                	ld	ra,24(sp)
    800028ee:	6442                	ld	s0,16(sp)
    800028f0:	6105                	addi	sp,sp,32
    800028f2:	8082                	ret

00000000800028f4 <cpuid>:
    800028f4:	1101                	addi	sp,sp,-32
    800028f6:	ec06                	sd	ra,24(sp)
    800028f8:	e822                	sd	s0,16(sp)
    800028fa:	1000                	addi	s0,sp,32
    800028fc:	00000097          	auipc	ra,0x0
    80002900:	f30080e7          	jalr	-208(ra) # 8000282c <r_tp>
    80002904:	87aa                	mv	a5,a0
    80002906:	fef42623          	sw	a5,-20(s0)
    8000290a:	fec42783          	lw	a5,-20(s0)
    8000290e:	853e                	mv	a0,a5
    80002910:	60e2                	ld	ra,24(sp)
    80002912:	6442                	ld	s0,16(sp)
    80002914:	6105                	addi	sp,sp,32
    80002916:	8082                	ret

0000000080002918 <mycpu>:
    80002918:	1101                	addi	sp,sp,-32
    8000291a:	ec06                	sd	ra,24(sp)
    8000291c:	e822                	sd	s0,16(sp)
    8000291e:	1000                	addi	s0,sp,32
    80002920:	00000097          	auipc	ra,0x0
    80002924:	fd4080e7          	jalr	-44(ra) # 800028f4 <cpuid>
    80002928:	87aa                	mv	a5,a0
    8000292a:	fef42623          	sw	a5,-20(s0)
    8000292e:	fec42783          	lw	a5,-20(s0)
    80002932:	00779713          	slli	a4,a5,0x7
    80002936:	00013797          	auipc	a5,0x13
    8000293a:	02278793          	addi	a5,a5,34 # 80015958 <cpus>
    8000293e:	97ba                	add	a5,a5,a4
    80002940:	fef43023          	sd	a5,-32(s0)
    80002944:	fe043783          	ld	a5,-32(s0)
    80002948:	853e                	mv	a0,a5
    8000294a:	60e2                	ld	ra,24(sp)
    8000294c:	6442                	ld	s0,16(sp)
    8000294e:	6105                	addi	sp,sp,32
    80002950:	8082                	ret

0000000080002952 <myproc>:
    80002952:	1101                	addi	sp,sp,-32
    80002954:	ec06                	sd	ra,24(sp)
    80002956:	e822                	sd	s0,16(sp)
    80002958:	1000                	addi	s0,sp,32
    8000295a:	fffff097          	auipc	ra,0xfffff
    8000295e:	a76080e7          	jalr	-1418(ra) # 800013d0 <push_off>
    80002962:	00000097          	auipc	ra,0x0
    80002966:	fb6080e7          	jalr	-74(ra) # 80002918 <mycpu>
    8000296a:	fea43423          	sd	a0,-24(s0)
    8000296e:	fe843783          	ld	a5,-24(s0)
    80002972:	639c                	ld	a5,0(a5)
    80002974:	fef43023          	sd	a5,-32(s0)
    80002978:	fffff097          	auipc	ra,0xfffff
    8000297c:	ab0080e7          	jalr	-1360(ra) # 80001428 <pop_off>
    80002980:	fe043783          	ld	a5,-32(s0)
    80002984:	853e                	mv	a0,a5
    80002986:	60e2                	ld	ra,24(sp)
    80002988:	6442                	ld	s0,16(sp)
    8000298a:	6105                	addi	sp,sp,32
    8000298c:	8082                	ret

000000008000298e <allocpid>:
    8000298e:	1101                	addi	sp,sp,-32
    80002990:	ec06                	sd	ra,24(sp)
    80002992:	e822                	sd	s0,16(sp)
    80002994:	1000                	addi	s0,sp,32
    80002996:	00019517          	auipc	a0,0x19
    8000299a:	dc250513          	addi	a0,a0,-574 # 8001b758 <pid_lock>
    8000299e:	fffff097          	auipc	ra,0xfffff
    800029a2:	934080e7          	jalr	-1740(ra) # 800012d2 <acquire>
    800029a6:	0000a797          	auipc	a5,0xa
    800029aa:	eba78793          	addi	a5,a5,-326 # 8000c860 <nextpid>
    800029ae:	439c                	lw	a5,0(a5)
    800029b0:	fef42623          	sw	a5,-20(s0)
    800029b4:	0000a797          	auipc	a5,0xa
    800029b8:	eac78793          	addi	a5,a5,-340 # 8000c860 <nextpid>
    800029bc:	439c                	lw	a5,0(a5)
    800029be:	2785                	addiw	a5,a5,1
    800029c0:	0007871b          	sext.w	a4,a5
    800029c4:	0000a797          	auipc	a5,0xa
    800029c8:	e9c78793          	addi	a5,a5,-356 # 8000c860 <nextpid>
    800029cc:	c398                	sw	a4,0(a5)
    800029ce:	00019517          	auipc	a0,0x19
    800029d2:	d8a50513          	addi	a0,a0,-630 # 8001b758 <pid_lock>
    800029d6:	fffff097          	auipc	ra,0xfffff
    800029da:	960080e7          	jalr	-1696(ra) # 80001336 <release>
    800029de:	fec42783          	lw	a5,-20(s0)
    800029e2:	853e                	mv	a0,a5
    800029e4:	60e2                	ld	ra,24(sp)
    800029e6:	6442                	ld	s0,16(sp)
    800029e8:	6105                	addi	sp,sp,32
    800029ea:	8082                	ret

00000000800029ec <allocproc>:
    800029ec:	1101                	addi	sp,sp,-32
    800029ee:	ec06                	sd	ra,24(sp)
    800029f0:	e822                	sd	s0,16(sp)
    800029f2:	1000                	addi	s0,sp,32
    800029f4:	00013797          	auipc	a5,0x13
    800029f8:	36478793          	addi	a5,a5,868 # 80015d58 <proc>
    800029fc:	fef43423          	sd	a5,-24(s0)
    80002a00:	a80d                	j	80002a32 <allocproc+0x46>
    80002a02:	fe843783          	ld	a5,-24(s0)
    80002a06:	853e                	mv	a0,a5
    80002a08:	fffff097          	auipc	ra,0xfffff
    80002a0c:	8ca080e7          	jalr	-1846(ra) # 800012d2 <acquire>
    80002a10:	fe843783          	ld	a5,-24(s0)
    80002a14:	4f9c                	lw	a5,24(a5)
    80002a16:	cb85                	beqz	a5,80002a46 <allocproc+0x5a>
    80002a18:	fe843783          	ld	a5,-24(s0)
    80002a1c:	853e                	mv	a0,a5
    80002a1e:	fffff097          	auipc	ra,0xfffff
    80002a22:	918080e7          	jalr	-1768(ra) # 80001336 <release>
    80002a26:	fe843783          	ld	a5,-24(s0)
    80002a2a:	16878793          	addi	a5,a5,360
    80002a2e:	fef43423          	sd	a5,-24(s0)
    80002a32:	fe843703          	ld	a4,-24(s0)
    80002a36:	00019797          	auipc	a5,0x19
    80002a3a:	d2278793          	addi	a5,a5,-734 # 8001b758 <pid_lock>
    80002a3e:	fcf762e3          	bltu	a4,a5,80002a02 <allocproc+0x16>
    80002a42:	4781                	li	a5,0
    80002a44:	a855                	j	80002af8 <allocproc+0x10c>
    80002a46:	0001                	nop
    80002a48:	00000097          	auipc	ra,0x0
    80002a4c:	f46080e7          	jalr	-186(ra) # 8000298e <allocpid>
    80002a50:	87aa                	mv	a5,a0
    80002a52:	873e                	mv	a4,a5
    80002a54:	fe843783          	ld	a5,-24(s0)
    80002a58:	df98                	sw	a4,56(a5)
    80002a5a:	ffffe097          	auipc	ra,0xffffe
    80002a5e:	724080e7          	jalr	1828(ra) # 8000117e <kalloc>
    80002a62:	872a                	mv	a4,a0
    80002a64:	fe843783          	ld	a5,-24(s0)
    80002a68:	efb8                	sd	a4,88(a5)
    80002a6a:	fe843783          	ld	a5,-24(s0)
    80002a6e:	6fbc                	ld	a5,88(a5)
    80002a70:	eb91                	bnez	a5,80002a84 <allocproc+0x98>
    80002a72:	fe843783          	ld	a5,-24(s0)
    80002a76:	853e                	mv	a0,a5
    80002a78:	fffff097          	auipc	ra,0xfffff
    80002a7c:	8be080e7          	jalr	-1858(ra) # 80001336 <release>
    80002a80:	4781                	li	a5,0
    80002a82:	a89d                	j	80002af8 <allocproc+0x10c>
    80002a84:	fe843503          	ld	a0,-24(s0)
    80002a88:	00000097          	auipc	ra,0x0
    80002a8c:	118080e7          	jalr	280(ra) # 80002ba0 <proc_pagetable>
    80002a90:	872a                	mv	a4,a0
    80002a92:	fe843783          	ld	a5,-24(s0)
    80002a96:	ebb8                	sd	a4,80(a5)
    80002a98:	fe843783          	ld	a5,-24(s0)
    80002a9c:	6bbc                	ld	a5,80(a5)
    80002a9e:	e385                	bnez	a5,80002abe <allocproc+0xd2>
    80002aa0:	fe843503          	ld	a0,-24(s0)
    80002aa4:	00000097          	auipc	ra,0x0
    80002aa8:	05e080e7          	jalr	94(ra) # 80002b02 <freeproc>
    80002aac:	fe843783          	ld	a5,-24(s0)
    80002ab0:	853e                	mv	a0,a5
    80002ab2:	fffff097          	auipc	ra,0xfffff
    80002ab6:	884080e7          	jalr	-1916(ra) # 80001336 <release>
    80002aba:	4781                	li	a5,0
    80002abc:	a835                	j	80002af8 <allocproc+0x10c>
    80002abe:	fe843783          	ld	a5,-24(s0)
    80002ac2:	06078793          	addi	a5,a5,96
    80002ac6:	07000613          	li	a2,112
    80002aca:	4581                	li	a1,0
    80002acc:	853e                	mv	a0,a5
    80002ace:	fffff097          	auipc	ra,0xfffff
    80002ad2:	9d8080e7          	jalr	-1576(ra) # 800014a6 <memset>
    80002ad6:	00001717          	auipc	a4,0x1
    80002ada:	dec70713          	addi	a4,a4,-532 # 800038c2 <forkret>
    80002ade:	fe843783          	ld	a5,-24(s0)
    80002ae2:	f3b8                	sd	a4,96(a5)
    80002ae4:	fe843783          	ld	a5,-24(s0)
    80002ae8:	63b8                	ld	a4,64(a5)
    80002aea:	6785                	lui	a5,0x1
    80002aec:	973e                	add	a4,a4,a5
    80002aee:	fe843783          	ld	a5,-24(s0)
    80002af2:	f7b8                	sd	a4,104(a5)
    80002af4:	fe843783          	ld	a5,-24(s0)
    80002af8:	853e                	mv	a0,a5
    80002afa:	60e2                	ld	ra,24(sp)
    80002afc:	6442                	ld	s0,16(sp)
    80002afe:	6105                	addi	sp,sp,32
    80002b00:	8082                	ret

0000000080002b02 <freeproc>:
    80002b02:	1101                	addi	sp,sp,-32
    80002b04:	ec06                	sd	ra,24(sp)
    80002b06:	e822                	sd	s0,16(sp)
    80002b08:	1000                	addi	s0,sp,32
    80002b0a:	fea43423          	sd	a0,-24(s0)
    80002b0e:	fe843783          	ld	a5,-24(s0)
    80002b12:	6fbc                	ld	a5,88(a5)
    80002b14:	cb89                	beqz	a5,80002b26 <freeproc+0x24>
    80002b16:	fe843783          	ld	a5,-24(s0)
    80002b1a:	6fbc                	ld	a5,88(a5)
    80002b1c:	853e                	mv	a0,a5
    80002b1e:	ffffe097          	auipc	ra,0xffffe
    80002b22:	5bc080e7          	jalr	1468(ra) # 800010da <kfree>
    80002b26:	fe843783          	ld	a5,-24(s0)
    80002b2a:	0407bc23          	sd	zero,88(a5) # 1058 <_entry-0x7fffefa8>
    80002b2e:	fe843783          	ld	a5,-24(s0)
    80002b32:	6bbc                	ld	a5,80(a5)
    80002b34:	cf89                	beqz	a5,80002b4e <freeproc+0x4c>
    80002b36:	fe843783          	ld	a5,-24(s0)
    80002b3a:	6bb8                	ld	a4,80(a5)
    80002b3c:	fe843783          	ld	a5,-24(s0)
    80002b40:	67bc                	ld	a5,72(a5)
    80002b42:	85be                	mv	a1,a5
    80002b44:	853a                	mv	a0,a4
    80002b46:	00000097          	auipc	ra,0x0
    80002b4a:	40e080e7          	jalr	1038(ra) # 80002f54 <proc_freepagetable>
    80002b4e:	fe843783          	ld	a5,-24(s0)
    80002b52:	0407b823          	sd	zero,80(a5)
    80002b56:	fe843783          	ld	a5,-24(s0)
    80002b5a:	0407b423          	sd	zero,72(a5)
    80002b5e:	fe843783          	ld	a5,-24(s0)
    80002b62:	0207ac23          	sw	zero,56(a5)
    80002b66:	fe843783          	ld	a5,-24(s0)
    80002b6a:	0207b023          	sd	zero,32(a5)
    80002b6e:	fe843783          	ld	a5,-24(s0)
    80002b72:	14078c23          	sb	zero,344(a5)
    80002b76:	fe843783          	ld	a5,-24(s0)
    80002b7a:	0207b423          	sd	zero,40(a5)
    80002b7e:	fe843783          	ld	a5,-24(s0)
    80002b82:	0207a823          	sw	zero,48(a5)
    80002b86:	fe843783          	ld	a5,-24(s0)
    80002b8a:	0207aa23          	sw	zero,52(a5)
    80002b8e:	fe843783          	ld	a5,-24(s0)
    80002b92:	0007ac23          	sw	zero,24(a5)
    80002b96:	0001                	nop
    80002b98:	60e2                	ld	ra,24(sp)
    80002b9a:	6442                	ld	s0,16(sp)
    80002b9c:	6105                	addi	sp,sp,32
    80002b9e:	8082                	ret

0000000080002ba0 <proc_pagetable>:
    80002ba0:	7179                	addi	sp,sp,-48
    80002ba2:	f406                	sd	ra,40(sp)
    80002ba4:	f022                	sd	s0,32(sp)
    80002ba6:	1800                	addi	s0,sp,48
    80002ba8:	fca43c23          	sd	a0,-40(s0)
    80002bac:	fffff097          	auipc	ra,0xfffff
    80002bb0:	40a080e7          	jalr	1034(ra) # 80001fb6 <uvmcreate>
    80002bb4:	fea43423          	sd	a0,-24(s0)
    80002bb8:	fe843783          	ld	a5,-24(s0)
    80002bbc:	e399                	bnez	a5,80002bc2 <proc_pagetable+0x22>
    80002bbe:	4781                	li	a5,0
    80002bc0:	a669                	j	80002f4a <proc_pagetable+0x3aa>
    80002bc2:	00008797          	auipc	a5,0x8
    80002bc6:	43e78793          	addi	a5,a5,1086 # 8000b000 <_trampoline>
    80002bca:	4729                	li	a4,10
    80002bcc:	86be                	mv	a3,a5
    80002bce:	6605                	lui	a2,0x1
    80002bd0:	040007b7          	lui	a5,0x4000
    80002bd4:	17fd                	addi	a5,a5,-1 # 3ffffff <_entry-0x7c000001>
    80002bd6:	00c79593          	slli	a1,a5,0xc
    80002bda:	fe843503          	ld	a0,-24(s0)
    80002bde:	fffff097          	auipc	ra,0xfffff
    80002be2:	1e4080e7          	jalr	484(ra) # 80001dc2 <space_map>
    80002be6:	87aa                	mv	a5,a0
    80002be8:	0007db63          	bgez	a5,80002bfe <proc_pagetable+0x5e>
    80002bec:	4581                	li	a1,0
    80002bee:	fe843503          	ld	a0,-24(s0)
    80002bf2:	fffff097          	auipc	ra,0xfffff
    80002bf6:	6c2080e7          	jalr	1730(ra) # 800022b4 <uvmfree>
    80002bfa:	4781                	li	a5,0
    80002bfc:	a6b9                	j	80002f4a <proc_pagetable+0x3aa>
    80002bfe:	fd843783          	ld	a5,-40(s0)
    80002c02:	6fbc                	ld	a5,88(a5)
    80002c04:	4719                	li	a4,6
    80002c06:	86be                	mv	a3,a5
    80002c08:	6605                	lui	a2,0x1
    80002c0a:	020007b7          	lui	a5,0x2000
    80002c0e:	17fd                	addi	a5,a5,-1 # 1ffffff <_entry-0x7e000001>
    80002c10:	00d79593          	slli	a1,a5,0xd
    80002c14:	fe843503          	ld	a0,-24(s0)
    80002c18:	fffff097          	auipc	ra,0xfffff
    80002c1c:	1aa080e7          	jalr	426(ra) # 80001dc2 <space_map>
    80002c20:	87aa                	mv	a5,a0
    80002c22:	0207d863          	bgez	a5,80002c52 <proc_pagetable+0xb2>
    80002c26:	4681                	li	a3,0
    80002c28:	4605                	li	a2,1
    80002c2a:	040007b7          	lui	a5,0x4000
    80002c2e:	17fd                	addi	a5,a5,-1 # 3ffffff <_entry-0x7c000001>
    80002c30:	00c79593          	slli	a1,a5,0xc
    80002c34:	fe843503          	ld	a0,-24(s0)
    80002c38:	fffff097          	auipc	ra,0xfffff
    80002c3c:	27e080e7          	jalr	638(ra) # 80001eb6 <space_unmap>
    80002c40:	4581                	li	a1,0
    80002c42:	fe843503          	ld	a0,-24(s0)
    80002c46:	fffff097          	auipc	ra,0xfffff
    80002c4a:	66e080e7          	jalr	1646(ra) # 800022b4 <uvmfree>
    80002c4e:	4781                	li	a5,0
    80002c50:	aced                	j	80002f4a <proc_pagetable+0x3aa>
    80002c52:	4719                	li	a4,6
    80002c54:	100006b7          	lui	a3,0x10000
    80002c58:	6605                	lui	a2,0x1
    80002c5a:	100005b7          	lui	a1,0x10000
    80002c5e:	fe843503          	ld	a0,-24(s0)
    80002c62:	fffff097          	auipc	ra,0xfffff
    80002c66:	160080e7          	jalr	352(ra) # 80001dc2 <space_map>
    80002c6a:	87aa                	mv	a5,a0
    80002c6c:	c7a1                	beqz	a5,80002cb4 <proc_pagetable+0x114>
    80002c6e:	4681                	li	a3,0
    80002c70:	4605                	li	a2,1
    80002c72:	040007b7          	lui	a5,0x4000
    80002c76:	17fd                	addi	a5,a5,-1 # 3ffffff <_entry-0x7c000001>
    80002c78:	00c79593          	slli	a1,a5,0xc
    80002c7c:	fe843503          	ld	a0,-24(s0)
    80002c80:	fffff097          	auipc	ra,0xfffff
    80002c84:	236080e7          	jalr	566(ra) # 80001eb6 <space_unmap>
    80002c88:	4681                	li	a3,0
    80002c8a:	4605                	li	a2,1
    80002c8c:	020007b7          	lui	a5,0x2000
    80002c90:	17fd                	addi	a5,a5,-1 # 1ffffff <_entry-0x7e000001>
    80002c92:	00d79593          	slli	a1,a5,0xd
    80002c96:	fe843503          	ld	a0,-24(s0)
    80002c9a:	fffff097          	auipc	ra,0xfffff
    80002c9e:	21c080e7          	jalr	540(ra) # 80001eb6 <space_unmap>
    80002ca2:	4581                	li	a1,0
    80002ca4:	fe843503          	ld	a0,-24(s0)
    80002ca8:	fffff097          	auipc	ra,0xfffff
    80002cac:	60c080e7          	jalr	1548(ra) # 800022b4 <uvmfree>
    80002cb0:	4781                	li	a5,0
    80002cb2:	ac61                	j	80002f4a <proc_pagetable+0x3aa>
    80002cb4:	4719                	li	a4,6
    80002cb6:	100016b7          	lui	a3,0x10001
    80002cba:	6605                	lui	a2,0x1
    80002cbc:	100015b7          	lui	a1,0x10001
    80002cc0:	fe843503          	ld	a0,-24(s0)
    80002cc4:	fffff097          	auipc	ra,0xfffff
    80002cc8:	0fe080e7          	jalr	254(ra) # 80001dc2 <space_map>
    80002ccc:	87aa                	mv	a5,a0
    80002cce:	cfb1                	beqz	a5,80002d2a <proc_pagetable+0x18a>
    80002cd0:	4681                	li	a3,0
    80002cd2:	4605                	li	a2,1
    80002cd4:	100005b7          	lui	a1,0x10000
    80002cd8:	fe843503          	ld	a0,-24(s0)
    80002cdc:	fffff097          	auipc	ra,0xfffff
    80002ce0:	1da080e7          	jalr	474(ra) # 80001eb6 <space_unmap>
    80002ce4:	4681                	li	a3,0
    80002ce6:	4605                	li	a2,1
    80002ce8:	040007b7          	lui	a5,0x4000
    80002cec:	17fd                	addi	a5,a5,-1 # 3ffffff <_entry-0x7c000001>
    80002cee:	00c79593          	slli	a1,a5,0xc
    80002cf2:	fe843503          	ld	a0,-24(s0)
    80002cf6:	fffff097          	auipc	ra,0xfffff
    80002cfa:	1c0080e7          	jalr	448(ra) # 80001eb6 <space_unmap>
    80002cfe:	4681                	li	a3,0
    80002d00:	4605                	li	a2,1
    80002d02:	020007b7          	lui	a5,0x2000
    80002d06:	17fd                	addi	a5,a5,-1 # 1ffffff <_entry-0x7e000001>
    80002d08:	00d79593          	slli	a1,a5,0xd
    80002d0c:	fe843503          	ld	a0,-24(s0)
    80002d10:	fffff097          	auipc	ra,0xfffff
    80002d14:	1a6080e7          	jalr	422(ra) # 80001eb6 <space_unmap>
    80002d18:	4581                	li	a1,0
    80002d1a:	fe843503          	ld	a0,-24(s0)
    80002d1e:	fffff097          	auipc	ra,0xfffff
    80002d22:	596080e7          	jalr	1430(ra) # 800022b4 <uvmfree>
    80002d26:	4781                	li	a5,0
    80002d28:	a40d                	j	80002f4a <proc_pagetable+0x3aa>
    80002d2a:	4719                	li	a4,6
    80002d2c:	0c0006b7          	lui	a3,0xc000
    80002d30:	00400637          	lui	a2,0x400
    80002d34:	0c0005b7          	lui	a1,0xc000
    80002d38:	fe843503          	ld	a0,-24(s0)
    80002d3c:	fffff097          	auipc	ra,0xfffff
    80002d40:	086080e7          	jalr	134(ra) # 80001dc2 <space_map>
    80002d44:	87aa                	mv	a5,a0
    80002d46:	cba5                	beqz	a5,80002db6 <proc_pagetable+0x216>
    80002d48:	4681                	li	a3,0
    80002d4a:	4605                	li	a2,1
    80002d4c:	100015b7          	lui	a1,0x10001
    80002d50:	fe843503          	ld	a0,-24(s0)
    80002d54:	fffff097          	auipc	ra,0xfffff
    80002d58:	162080e7          	jalr	354(ra) # 80001eb6 <space_unmap>
    80002d5c:	4681                	li	a3,0
    80002d5e:	4605                	li	a2,1
    80002d60:	100005b7          	lui	a1,0x10000
    80002d64:	fe843503          	ld	a0,-24(s0)
    80002d68:	fffff097          	auipc	ra,0xfffff
    80002d6c:	14e080e7          	jalr	334(ra) # 80001eb6 <space_unmap>
    80002d70:	4681                	li	a3,0
    80002d72:	4605                	li	a2,1
    80002d74:	040007b7          	lui	a5,0x4000
    80002d78:	17fd                	addi	a5,a5,-1 # 3ffffff <_entry-0x7c000001>
    80002d7a:	00c79593          	slli	a1,a5,0xc
    80002d7e:	fe843503          	ld	a0,-24(s0)
    80002d82:	fffff097          	auipc	ra,0xfffff
    80002d86:	134080e7          	jalr	308(ra) # 80001eb6 <space_unmap>
    80002d8a:	4681                	li	a3,0
    80002d8c:	4605                	li	a2,1
    80002d8e:	020007b7          	lui	a5,0x2000
    80002d92:	17fd                	addi	a5,a5,-1 # 1ffffff <_entry-0x7e000001>
    80002d94:	00d79593          	slli	a1,a5,0xd
    80002d98:	fe843503          	ld	a0,-24(s0)
    80002d9c:	fffff097          	auipc	ra,0xfffff
    80002da0:	11a080e7          	jalr	282(ra) # 80001eb6 <space_unmap>
    80002da4:	4581                	li	a1,0
    80002da6:	fe843503          	ld	a0,-24(s0)
    80002daa:	fffff097          	auipc	ra,0xfffff
    80002dae:	50a080e7          	jalr	1290(ra) # 800022b4 <uvmfree>
    80002db2:	4781                	li	a5,0
    80002db4:	aa59                	j	80002f4a <proc_pagetable+0x3aa>
    80002db6:	00009717          	auipc	a4,0x9
    80002dba:	24a70713          	addi	a4,a4,586 # 8000c000 <etext>
    80002dbe:	800007b7          	lui	a5,0x80000
    80002dc2:	00f70633          	add	a2,a4,a5
    80002dc6:	4729                	li	a4,10
    80002dc8:	4785                	li	a5,1
    80002dca:	01f79693          	slli	a3,a5,0x1f
    80002dce:	4785                	li	a5,1
    80002dd0:	01f79593          	slli	a1,a5,0x1f
    80002dd4:	fe843503          	ld	a0,-24(s0)
    80002dd8:	fffff097          	auipc	ra,0xfffff
    80002ddc:	fea080e7          	jalr	-22(ra) # 80001dc2 <space_map>
    80002de0:	87aa                	mv	a5,a0
    80002de2:	c3d9                	beqz	a5,80002e68 <proc_pagetable+0x2c8>
    80002de4:	4681                	li	a3,0
    80002de6:	40000613          	li	a2,1024
    80002dea:	0c0005b7          	lui	a1,0xc000
    80002dee:	fe843503          	ld	a0,-24(s0)
    80002df2:	fffff097          	auipc	ra,0xfffff
    80002df6:	0c4080e7          	jalr	196(ra) # 80001eb6 <space_unmap>
    80002dfa:	4681                	li	a3,0
    80002dfc:	4605                	li	a2,1
    80002dfe:	100015b7          	lui	a1,0x10001
    80002e02:	fe843503          	ld	a0,-24(s0)
    80002e06:	fffff097          	auipc	ra,0xfffff
    80002e0a:	0b0080e7          	jalr	176(ra) # 80001eb6 <space_unmap>
    80002e0e:	4681                	li	a3,0
    80002e10:	4605                	li	a2,1
    80002e12:	100005b7          	lui	a1,0x10000
    80002e16:	fe843503          	ld	a0,-24(s0)
    80002e1a:	fffff097          	auipc	ra,0xfffff
    80002e1e:	09c080e7          	jalr	156(ra) # 80001eb6 <space_unmap>
    80002e22:	4681                	li	a3,0
    80002e24:	4605                	li	a2,1
    80002e26:	040007b7          	lui	a5,0x4000
    80002e2a:	17fd                	addi	a5,a5,-1 # 3ffffff <_entry-0x7c000001>
    80002e2c:	00c79593          	slli	a1,a5,0xc
    80002e30:	fe843503          	ld	a0,-24(s0)
    80002e34:	fffff097          	auipc	ra,0xfffff
    80002e38:	082080e7          	jalr	130(ra) # 80001eb6 <space_unmap>
    80002e3c:	4681                	li	a3,0
    80002e3e:	4605                	li	a2,1
    80002e40:	020007b7          	lui	a5,0x2000
    80002e44:	17fd                	addi	a5,a5,-1 # 1ffffff <_entry-0x7e000001>
    80002e46:	00d79593          	slli	a1,a5,0xd
    80002e4a:	fe843503          	ld	a0,-24(s0)
    80002e4e:	fffff097          	auipc	ra,0xfffff
    80002e52:	068080e7          	jalr	104(ra) # 80001eb6 <space_unmap>
    80002e56:	4581                	li	a1,0
    80002e58:	fe843503          	ld	a0,-24(s0)
    80002e5c:	fffff097          	auipc	ra,0xfffff
    80002e60:	458080e7          	jalr	1112(ra) # 800022b4 <uvmfree>
    80002e64:	4781                	li	a5,0
    80002e66:	a0d5                	j	80002f4a <proc_pagetable+0x3aa>
    80002e68:	00009597          	auipc	a1,0x9
    80002e6c:	19858593          	addi	a1,a1,408 # 8000c000 <etext>
    80002e70:	00009797          	auipc	a5,0x9
    80002e74:	19078793          	addi	a5,a5,400 # 8000c000 <etext>
    80002e78:	4745                	li	a4,17
    80002e7a:	076e                	slli	a4,a4,0x1b
    80002e7c:	40f707b3          	sub	a5,a4,a5
    80002e80:	00009697          	auipc	a3,0x9
    80002e84:	18068693          	addi	a3,a3,384 # 8000c000 <etext>
    80002e88:	4719                	li	a4,6
    80002e8a:	863e                	mv	a2,a5
    80002e8c:	fe843503          	ld	a0,-24(s0)
    80002e90:	fffff097          	auipc	ra,0xfffff
    80002e94:	f32080e7          	jalr	-206(ra) # 80001dc2 <space_map>
    80002e98:	87aa                	mv	a5,a0
    80002e9a:	c7d5                	beqz	a5,80002f46 <proc_pagetable+0x3a6>
    80002e9c:	00009717          	auipc	a4,0x9
    80002ea0:	16470713          	addi	a4,a4,356 # 8000c000 <etext>
    80002ea4:	800007b7          	lui	a5,0x80000
    80002ea8:	97ba                	add	a5,a5,a4
    80002eaa:	83b1                	srli	a5,a5,0xc
    80002eac:	4681                	li	a3,0
    80002eae:	863e                	mv	a2,a5
    80002eb0:	4785                	li	a5,1
    80002eb2:	01f79593          	slli	a1,a5,0x1f
    80002eb6:	fe843503          	ld	a0,-24(s0)
    80002eba:	fffff097          	auipc	ra,0xfffff
    80002ebe:	ffc080e7          	jalr	-4(ra) # 80001eb6 <space_unmap>
    80002ec2:	4681                	li	a3,0
    80002ec4:	40000613          	li	a2,1024
    80002ec8:	0c0005b7          	lui	a1,0xc000
    80002ecc:	fe843503          	ld	a0,-24(s0)
    80002ed0:	fffff097          	auipc	ra,0xfffff
    80002ed4:	fe6080e7          	jalr	-26(ra) # 80001eb6 <space_unmap>
    80002ed8:	4681                	li	a3,0
    80002eda:	4605                	li	a2,1
    80002edc:	100015b7          	lui	a1,0x10001
    80002ee0:	fe843503          	ld	a0,-24(s0)
    80002ee4:	fffff097          	auipc	ra,0xfffff
    80002ee8:	fd2080e7          	jalr	-46(ra) # 80001eb6 <space_unmap>
    80002eec:	4681                	li	a3,0
    80002eee:	4605                	li	a2,1
    80002ef0:	100005b7          	lui	a1,0x10000
    80002ef4:	fe843503          	ld	a0,-24(s0)
    80002ef8:	fffff097          	auipc	ra,0xfffff
    80002efc:	fbe080e7          	jalr	-66(ra) # 80001eb6 <space_unmap>
    80002f00:	4681                	li	a3,0
    80002f02:	4605                	li	a2,1
    80002f04:	040007b7          	lui	a5,0x4000
    80002f08:	17fd                	addi	a5,a5,-1 # 3ffffff <_entry-0x7c000001>
    80002f0a:	00c79593          	slli	a1,a5,0xc
    80002f0e:	fe843503          	ld	a0,-24(s0)
    80002f12:	fffff097          	auipc	ra,0xfffff
    80002f16:	fa4080e7          	jalr	-92(ra) # 80001eb6 <space_unmap>
    80002f1a:	4681                	li	a3,0
    80002f1c:	4605                	li	a2,1
    80002f1e:	020007b7          	lui	a5,0x2000
    80002f22:	17fd                	addi	a5,a5,-1 # 1ffffff <_entry-0x7e000001>
    80002f24:	00d79593          	slli	a1,a5,0xd
    80002f28:	fe843503          	ld	a0,-24(s0)
    80002f2c:	fffff097          	auipc	ra,0xfffff
    80002f30:	f8a080e7          	jalr	-118(ra) # 80001eb6 <space_unmap>
    80002f34:	4581                	li	a1,0
    80002f36:	fe843503          	ld	a0,-24(s0)
    80002f3a:	fffff097          	auipc	ra,0xfffff
    80002f3e:	37a080e7          	jalr	890(ra) # 800022b4 <uvmfree>
    80002f42:	4781                	li	a5,0
    80002f44:	a019                	j	80002f4a <proc_pagetable+0x3aa>
    80002f46:	fe843783          	ld	a5,-24(s0)
    80002f4a:	853e                	mv	a0,a5
    80002f4c:	70a2                	ld	ra,40(sp)
    80002f4e:	7402                	ld	s0,32(sp)
    80002f50:	6145                	addi	sp,sp,48
    80002f52:	8082                	ret

0000000080002f54 <proc_freepagetable>:
    80002f54:	1101                	addi	sp,sp,-32
    80002f56:	ec06                	sd	ra,24(sp)
    80002f58:	e822                	sd	s0,16(sp)
    80002f5a:	1000                	addi	s0,sp,32
    80002f5c:	fea43423          	sd	a0,-24(s0)
    80002f60:	feb43023          	sd	a1,-32(s0)
    80002f64:	4681                	li	a3,0
    80002f66:	4605                	li	a2,1
    80002f68:	040007b7          	lui	a5,0x4000
    80002f6c:	17fd                	addi	a5,a5,-1 # 3ffffff <_entry-0x7c000001>
    80002f6e:	00c79593          	slli	a1,a5,0xc
    80002f72:	fe843503          	ld	a0,-24(s0)
    80002f76:	fffff097          	auipc	ra,0xfffff
    80002f7a:	f40080e7          	jalr	-192(ra) # 80001eb6 <space_unmap>
    80002f7e:	4681                	li	a3,0
    80002f80:	4605                	li	a2,1
    80002f82:	020007b7          	lui	a5,0x2000
    80002f86:	17fd                	addi	a5,a5,-1 # 1ffffff <_entry-0x7e000001>
    80002f88:	00d79593          	slli	a1,a5,0xd
    80002f8c:	fe843503          	ld	a0,-24(s0)
    80002f90:	fffff097          	auipc	ra,0xfffff
    80002f94:	f26080e7          	jalr	-218(ra) # 80001eb6 <space_unmap>
    80002f98:	00009597          	auipc	a1,0x9
    80002f9c:	06858593          	addi	a1,a1,104 # 8000c000 <etext>
    80002fa0:	00009797          	auipc	a5,0x9
    80002fa4:	06078793          	addi	a5,a5,96 # 8000c000 <etext>
    80002fa8:	4745                	li	a4,17
    80002faa:	076e                	slli	a4,a4,0x1b
    80002fac:	40f707b3          	sub	a5,a4,a5
    80002fb0:	83b1                	srli	a5,a5,0xc
    80002fb2:	4681                	li	a3,0
    80002fb4:	863e                	mv	a2,a5
    80002fb6:	fe843503          	ld	a0,-24(s0)
    80002fba:	fffff097          	auipc	ra,0xfffff
    80002fbe:	efc080e7          	jalr	-260(ra) # 80001eb6 <space_unmap>
    80002fc2:	00009717          	auipc	a4,0x9
    80002fc6:	03e70713          	addi	a4,a4,62 # 8000c000 <etext>
    80002fca:	800007b7          	lui	a5,0x80000
    80002fce:	97ba                	add	a5,a5,a4
    80002fd0:	83b1                	srli	a5,a5,0xc
    80002fd2:	4681                	li	a3,0
    80002fd4:	863e                	mv	a2,a5
    80002fd6:	4785                	li	a5,1
    80002fd8:	01f79593          	slli	a1,a5,0x1f
    80002fdc:	fe843503          	ld	a0,-24(s0)
    80002fe0:	fffff097          	auipc	ra,0xfffff
    80002fe4:	ed6080e7          	jalr	-298(ra) # 80001eb6 <space_unmap>
    80002fe8:	4681                	li	a3,0
    80002fea:	40000613          	li	a2,1024
    80002fee:	0c0005b7          	lui	a1,0xc000
    80002ff2:	fe843503          	ld	a0,-24(s0)
    80002ff6:	fffff097          	auipc	ra,0xfffff
    80002ffa:	ec0080e7          	jalr	-320(ra) # 80001eb6 <space_unmap>
    80002ffe:	4681                	li	a3,0
    80003000:	4605                	li	a2,1
    80003002:	100015b7          	lui	a1,0x10001
    80003006:	fe843503          	ld	a0,-24(s0)
    8000300a:	fffff097          	auipc	ra,0xfffff
    8000300e:	eac080e7          	jalr	-340(ra) # 80001eb6 <space_unmap>
    80003012:	4681                	li	a3,0
    80003014:	4605                	li	a2,1
    80003016:	100005b7          	lui	a1,0x10000
    8000301a:	fe843503          	ld	a0,-24(s0)
    8000301e:	fffff097          	auipc	ra,0xfffff
    80003022:	e98080e7          	jalr	-360(ra) # 80001eb6 <space_unmap>
    80003026:	fe043583          	ld	a1,-32(s0)
    8000302a:	fe843503          	ld	a0,-24(s0)
    8000302e:	fffff097          	auipc	ra,0xfffff
    80003032:	286080e7          	jalr	646(ra) # 800022b4 <uvmfree>
    80003036:	0001                	nop
    80003038:	60e2                	ld	ra,24(sp)
    8000303a:	6442                	ld	s0,16(sp)
    8000303c:	6105                	addi	sp,sp,32
    8000303e:	8082                	ret

0000000080003040 <userinit>:
    80003040:	1101                	addi	sp,sp,-32
    80003042:	ec06                	sd	ra,24(sp)
    80003044:	e822                	sd	s0,16(sp)
    80003046:	1000                	addi	s0,sp,32
    80003048:	00000097          	auipc	ra,0x0
    8000304c:	9a4080e7          	jalr	-1628(ra) # 800029ec <allocproc>
    80003050:	fea43423          	sd	a0,-24(s0)
    80003054:	0000a797          	auipc	a5,0xa
    80003058:	fc478793          	addi	a5,a5,-60 # 8000d018 <initproc>
    8000305c:	fe843703          	ld	a4,-24(s0)
    80003060:	e398                	sd	a4,0(a5)
    80003062:	fe843783          	ld	a5,-24(s0)
    80003066:	6bbc                	ld	a5,80(a5)
    80003068:	03400613          	li	a2,52
    8000306c:	0000a597          	auipc	a1,0xa
    80003070:	81c58593          	addi	a1,a1,-2020 # 8000c888 <initcode>
    80003074:	853e                	mv	a0,a5
    80003076:	fffff097          	auipc	ra,0xfffff
    8000307a:	f7c080e7          	jalr	-132(ra) # 80001ff2 <uvminit>
    8000307e:	fe843783          	ld	a5,-24(s0)
    80003082:	6705                	lui	a4,0x1
    80003084:	e7b8                	sd	a4,72(a5)
    80003086:	fe843783          	ld	a5,-24(s0)
    8000308a:	6fbc                	ld	a5,88(a5)
    8000308c:	0007bc23          	sd	zero,24(a5)
    80003090:	fe843783          	ld	a5,-24(s0)
    80003094:	6fbc                	ld	a5,88(a5)
    80003096:	6705                	lui	a4,0x1
    80003098:	fb98                	sd	a4,48(a5)
    8000309a:	fe843783          	ld	a5,-24(s0)
    8000309e:	15878793          	addi	a5,a5,344
    800030a2:	4641                	li	a2,16
    800030a4:	00009597          	auipc	a1,0x9
    800030a8:	15458593          	addi	a1,a1,340 # 8000c1f8 <etext+0x1f8>
    800030ac:	853e                	mv	a0,a5
    800030ae:	ffffe097          	auipc	ra,0xffffe
    800030b2:	6ee080e7          	jalr	1774(ra) # 8000179c <safestrcpy>
    800030b6:	00009517          	auipc	a0,0x9
    800030ba:	15250513          	addi	a0,a0,338 # 8000c208 <etext+0x208>
    800030be:	00003097          	auipc	ra,0x3
    800030c2:	1aa080e7          	jalr	426(ra) # 80006268 <namei>
    800030c6:	872a                	mv	a4,a0
    800030c8:	fe843783          	ld	a5,-24(s0)
    800030cc:	14e7b823          	sd	a4,336(a5)
    800030d0:	fe843783          	ld	a5,-24(s0)
    800030d4:	4709                	li	a4,2
    800030d6:	cf98                	sw	a4,24(a5)
    800030d8:	fe843783          	ld	a5,-24(s0)
    800030dc:	853e                	mv	a0,a5
    800030de:	ffffe097          	auipc	ra,0xffffe
    800030e2:	258080e7          	jalr	600(ra) # 80001336 <release>
    800030e6:	0001                	nop
    800030e8:	60e2                	ld	ra,24(sp)
    800030ea:	6442                	ld	s0,16(sp)
    800030ec:	6105                	addi	sp,sp,32
    800030ee:	8082                	ret

00000000800030f0 <growproc>:
    800030f0:	7179                	addi	sp,sp,-48
    800030f2:	f406                	sd	ra,40(sp)
    800030f4:	f022                	sd	s0,32(sp)
    800030f6:	1800                	addi	s0,sp,48
    800030f8:	87aa                	mv	a5,a0
    800030fa:	fcf42e23          	sw	a5,-36(s0)
    800030fe:	00000097          	auipc	ra,0x0
    80003102:	854080e7          	jalr	-1964(ra) # 80002952 <myproc>
    80003106:	fea43023          	sd	a0,-32(s0)
    8000310a:	fe043783          	ld	a5,-32(s0)
    8000310e:	67bc                	ld	a5,72(a5)
    80003110:	fef42623          	sw	a5,-20(s0)
    80003114:	fdc42783          	lw	a5,-36(s0)
    80003118:	2781                	sext.w	a5,a5
    8000311a:	02f05f63          	blez	a5,80003158 <growproc+0x68>
    8000311e:	fe043783          	ld	a5,-32(s0)
    80003122:	6bb8                	ld	a4,80(a5)
    80003124:	fec46683          	lwu	a3,-20(s0)
    80003128:	fdc42783          	lw	a5,-36(s0)
    8000312c:	fec42603          	lw	a2,-20(s0)
    80003130:	9fb1                	addw	a5,a5,a2
    80003132:	2781                	sext.w	a5,a5
    80003134:	1782                	slli	a5,a5,0x20
    80003136:	9381                	srli	a5,a5,0x20
    80003138:	863e                	mv	a2,a5
    8000313a:	85b6                	mv	a1,a3
    8000313c:	853a                	mv	a0,a4
    8000313e:	fffff097          	auipc	ra,0xfffff
    80003142:	f3c080e7          	jalr	-196(ra) # 8000207a <uvmalloc>
    80003146:	87aa                	mv	a5,a0
    80003148:	fef42623          	sw	a5,-20(s0)
    8000314c:	fec42783          	lw	a5,-20(s0)
    80003150:	2781                	sext.w	a5,a5
    80003152:	ef9d                	bnez	a5,80003190 <growproc+0xa0>
    80003154:	57fd                	li	a5,-1
    80003156:	a099                	j	8000319c <growproc+0xac>
    80003158:	fdc42783          	lw	a5,-36(s0)
    8000315c:	2781                	sext.w	a5,a5
    8000315e:	0207d963          	bgez	a5,80003190 <growproc+0xa0>
    80003162:	fe043783          	ld	a5,-32(s0)
    80003166:	6bb8                	ld	a4,80(a5)
    80003168:	fec46683          	lwu	a3,-20(s0)
    8000316c:	fdc42783          	lw	a5,-36(s0)
    80003170:	fec42603          	lw	a2,-20(s0)
    80003174:	9fb1                	addw	a5,a5,a2
    80003176:	2781                	sext.w	a5,a5
    80003178:	1782                	slli	a5,a5,0x20
    8000317a:	9381                	srli	a5,a5,0x20
    8000317c:	863e                	mv	a2,a5
    8000317e:	85b6                	mv	a1,a3
    80003180:	853a                	mv	a0,a4
    80003182:	fffff097          	auipc	ra,0xfffff
    80003186:	fec080e7          	jalr	-20(ra) # 8000216e <uvmdealloc>
    8000318a:	87aa                	mv	a5,a0
    8000318c:	fef42623          	sw	a5,-20(s0)
    80003190:	fec46703          	lwu	a4,-20(s0)
    80003194:	fe043783          	ld	a5,-32(s0)
    80003198:	e7b8                	sd	a4,72(a5)
    8000319a:	4781                	li	a5,0
    8000319c:	853e                	mv	a0,a5
    8000319e:	70a2                	ld	ra,40(sp)
    800031a0:	7402                	ld	s0,32(sp)
    800031a2:	6145                	addi	sp,sp,48
    800031a4:	8082                	ret

00000000800031a6 <fork>:
    800031a6:	7179                	addi	sp,sp,-48
    800031a8:	f406                	sd	ra,40(sp)
    800031aa:	f022                	sd	s0,32(sp)
    800031ac:	1800                	addi	s0,sp,48
    800031ae:	fffff097          	auipc	ra,0xfffff
    800031b2:	7a4080e7          	jalr	1956(ra) # 80002952 <myproc>
    800031b6:	fea43023          	sd	a0,-32(s0)
    800031ba:	00000097          	auipc	ra,0x0
    800031be:	832080e7          	jalr	-1998(ra) # 800029ec <allocproc>
    800031c2:	fca43c23          	sd	a0,-40(s0)
    800031c6:	fd843783          	ld	a5,-40(s0)
    800031ca:	e399                	bnez	a5,800031d0 <fork+0x2a>
    800031cc:	57fd                	li	a5,-1
    800031ce:	a281                	j	8000330e <fork+0x168>
    800031d0:	fe043783          	ld	a5,-32(s0)
    800031d4:	6bb8                	ld	a4,80(a5)
    800031d6:	fd843783          	ld	a5,-40(s0)
    800031da:	6bb4                	ld	a3,80(a5)
    800031dc:	fe043783          	ld	a5,-32(s0)
    800031e0:	67bc                	ld	a5,72(a5)
    800031e2:	863e                	mv	a2,a5
    800031e4:	85b6                	mv	a1,a3
    800031e6:	853a                	mv	a0,a4
    800031e8:	fffff097          	auipc	ra,0xfffff
    800031ec:	116080e7          	jalr	278(ra) # 800022fe <uvmcopy>
    800031f0:	87aa                	mv	a5,a0
    800031f2:	0207d163          	bgez	a5,80003214 <fork+0x6e>
    800031f6:	fd843503          	ld	a0,-40(s0)
    800031fa:	00000097          	auipc	ra,0x0
    800031fe:	908080e7          	jalr	-1784(ra) # 80002b02 <freeproc>
    80003202:	fd843783          	ld	a5,-40(s0)
    80003206:	853e                	mv	a0,a5
    80003208:	ffffe097          	auipc	ra,0xffffe
    8000320c:	12e080e7          	jalr	302(ra) # 80001336 <release>
    80003210:	57fd                	li	a5,-1
    80003212:	a8f5                	j	8000330e <fork+0x168>
    80003214:	fe043783          	ld	a5,-32(s0)
    80003218:	67b8                	ld	a4,72(a5)
    8000321a:	fd843783          	ld	a5,-40(s0)
    8000321e:	e7b8                	sd	a4,72(a5)
    80003220:	fd843783          	ld	a5,-40(s0)
    80003224:	fe043703          	ld	a4,-32(s0)
    80003228:	f398                	sd	a4,32(a5)
    8000322a:	fe043783          	ld	a5,-32(s0)
    8000322e:	6fb8                	ld	a4,88(a5)
    80003230:	fd843783          	ld	a5,-40(s0)
    80003234:	6fbc                	ld	a5,88(a5)
    80003236:	86be                	mv	a3,a5
    80003238:	12000793          	li	a5,288
    8000323c:	863e                	mv	a2,a5
    8000323e:	85ba                	mv	a1,a4
    80003240:	8536                	mv	a0,a3
    80003242:	ffffe097          	auipc	ra,0xffffe
    80003246:	416080e7          	jalr	1046(ra) # 80001658 <memcpy>
    8000324a:	fd843783          	ld	a5,-40(s0)
    8000324e:	6fbc                	ld	a5,88(a5)
    80003250:	0607b823          	sd	zero,112(a5)
    80003254:	fe042623          	sw	zero,-20(s0)
    80003258:	a0a9                	j	800032a2 <fork+0xfc>
    8000325a:	fe043703          	ld	a4,-32(s0)
    8000325e:	fec42783          	lw	a5,-20(s0)
    80003262:	07e9                	addi	a5,a5,26
    80003264:	078e                	slli	a5,a5,0x3
    80003266:	97ba                	add	a5,a5,a4
    80003268:	639c                	ld	a5,0(a5)
    8000326a:	c79d                	beqz	a5,80003298 <fork+0xf2>
    8000326c:	fe043703          	ld	a4,-32(s0)
    80003270:	fec42783          	lw	a5,-20(s0)
    80003274:	07e9                	addi	a5,a5,26
    80003276:	078e                	slli	a5,a5,0x3
    80003278:	97ba                	add	a5,a5,a4
    8000327a:	639c                	ld	a5,0(a5)
    8000327c:	853e                	mv	a0,a5
    8000327e:	00004097          	auipc	ra,0x4
    80003282:	970080e7          	jalr	-1680(ra) # 80006bee <filedup>
    80003286:	86aa                	mv	a3,a0
    80003288:	fd843703          	ld	a4,-40(s0)
    8000328c:	fec42783          	lw	a5,-20(s0)
    80003290:	07e9                	addi	a5,a5,26
    80003292:	078e                	slli	a5,a5,0x3
    80003294:	97ba                	add	a5,a5,a4
    80003296:	e394                	sd	a3,0(a5)
    80003298:	fec42783          	lw	a5,-20(s0)
    8000329c:	2785                	addiw	a5,a5,1
    8000329e:	fef42623          	sw	a5,-20(s0)
    800032a2:	fec42783          	lw	a5,-20(s0)
    800032a6:	0007871b          	sext.w	a4,a5
    800032aa:	47bd                	li	a5,15
    800032ac:	fae7d7e3          	bge	a5,a4,8000325a <fork+0xb4>
    800032b0:	fe043783          	ld	a5,-32(s0)
    800032b4:	1507b783          	ld	a5,336(a5)
    800032b8:	853e                	mv	a0,a5
    800032ba:	00002097          	auipc	ra,0x2
    800032be:	260080e7          	jalr	608(ra) # 8000551a <idup>
    800032c2:	872a                	mv	a4,a0
    800032c4:	fd843783          	ld	a5,-40(s0)
    800032c8:	14e7b823          	sd	a4,336(a5)
    800032cc:	fd843783          	ld	a5,-40(s0)
    800032d0:	15878713          	addi	a4,a5,344
    800032d4:	fe043783          	ld	a5,-32(s0)
    800032d8:	15878793          	addi	a5,a5,344
    800032dc:	4641                	li	a2,16
    800032de:	85be                	mv	a1,a5
    800032e0:	853a                	mv	a0,a4
    800032e2:	ffffe097          	auipc	ra,0xffffe
    800032e6:	4ba080e7          	jalr	1210(ra) # 8000179c <safestrcpy>
    800032ea:	fd843783          	ld	a5,-40(s0)
    800032ee:	5f9c                	lw	a5,56(a5)
    800032f0:	fcf42a23          	sw	a5,-44(s0)
    800032f4:	fd843783          	ld	a5,-40(s0)
    800032f8:	4709                	li	a4,2
    800032fa:	cf98                	sw	a4,24(a5)
    800032fc:	fd843783          	ld	a5,-40(s0)
    80003300:	853e                	mv	a0,a5
    80003302:	ffffe097          	auipc	ra,0xffffe
    80003306:	034080e7          	jalr	52(ra) # 80001336 <release>
    8000330a:	fd442783          	lw	a5,-44(s0)
    8000330e:	853e                	mv	a0,a5
    80003310:	70a2                	ld	ra,40(sp)
    80003312:	7402                	ld	s0,32(sp)
    80003314:	6145                	addi	sp,sp,48
    80003316:	8082                	ret

0000000080003318 <reparent>:
    80003318:	7179                	addi	sp,sp,-48
    8000331a:	f406                	sd	ra,40(sp)
    8000331c:	f022                	sd	s0,32(sp)
    8000331e:	1800                	addi	s0,sp,48
    80003320:	fca43c23          	sd	a0,-40(s0)
    80003324:	00013797          	auipc	a5,0x13
    80003328:	a3478793          	addi	a5,a5,-1484 # 80015d58 <proc>
    8000332c:	fef43423          	sd	a5,-24(s0)
    80003330:	a0a1                	j	80003378 <reparent+0x60>
    80003332:	fe843783          	ld	a5,-24(s0)
    80003336:	739c                	ld	a5,32(a5)
    80003338:	fd843703          	ld	a4,-40(s0)
    8000333c:	02f71863          	bne	a4,a5,8000336c <reparent+0x54>
    80003340:	fe843783          	ld	a5,-24(s0)
    80003344:	853e                	mv	a0,a5
    80003346:	ffffe097          	auipc	ra,0xffffe
    8000334a:	f8c080e7          	jalr	-116(ra) # 800012d2 <acquire>
    8000334e:	0000a797          	auipc	a5,0xa
    80003352:	cca78793          	addi	a5,a5,-822 # 8000d018 <initproc>
    80003356:	6398                	ld	a4,0(a5)
    80003358:	fe843783          	ld	a5,-24(s0)
    8000335c:	f398                	sd	a4,32(a5)
    8000335e:	fe843783          	ld	a5,-24(s0)
    80003362:	853e                	mv	a0,a5
    80003364:	ffffe097          	auipc	ra,0xffffe
    80003368:	fd2080e7          	jalr	-46(ra) # 80001336 <release>
    8000336c:	fe843783          	ld	a5,-24(s0)
    80003370:	16878793          	addi	a5,a5,360
    80003374:	fef43423          	sd	a5,-24(s0)
    80003378:	fe843703          	ld	a4,-24(s0)
    8000337c:	00018797          	auipc	a5,0x18
    80003380:	3dc78793          	addi	a5,a5,988 # 8001b758 <pid_lock>
    80003384:	faf767e3          	bltu	a4,a5,80003332 <reparent+0x1a>
    80003388:	0001                	nop
    8000338a:	0001                	nop
    8000338c:	70a2                	ld	ra,40(sp)
    8000338e:	7402                	ld	s0,32(sp)
    80003390:	6145                	addi	sp,sp,48
    80003392:	8082                	ret

0000000080003394 <exit>:
    80003394:	7139                	addi	sp,sp,-64
    80003396:	fc06                	sd	ra,56(sp)
    80003398:	f822                	sd	s0,48(sp)
    8000339a:	0080                	addi	s0,sp,64
    8000339c:	87aa                	mv	a5,a0
    8000339e:	fcf42623          	sw	a5,-52(s0)
    800033a2:	fffff097          	auipc	ra,0xfffff
    800033a6:	5b0080e7          	jalr	1456(ra) # 80002952 <myproc>
    800033aa:	fea43023          	sd	a0,-32(s0)
    800033ae:	0000a797          	auipc	a5,0xa
    800033b2:	c6a78793          	addi	a5,a5,-918 # 8000d018 <initproc>
    800033b6:	639c                	ld	a5,0(a5)
    800033b8:	fe043703          	ld	a4,-32(s0)
    800033bc:	00f71a63          	bne	a4,a5,800033d0 <exit+0x3c>
    800033c0:	00009517          	auipc	a0,0x9
    800033c4:	e5050513          	addi	a0,a0,-432 # 8000c210 <etext+0x210>
    800033c8:	ffffe097          	auipc	ra,0xffffe
    800033cc:	8d6080e7          	jalr	-1834(ra) # 80000c9e <panic>
    800033d0:	fe042623          	sw	zero,-20(s0)
    800033d4:	a881                	j	80003424 <exit+0x90>
    800033d6:	fe043703          	ld	a4,-32(s0)
    800033da:	fec42783          	lw	a5,-20(s0)
    800033de:	07e9                	addi	a5,a5,26
    800033e0:	078e                	slli	a5,a5,0x3
    800033e2:	97ba                	add	a5,a5,a4
    800033e4:	639c                	ld	a5,0(a5)
    800033e6:	cb95                	beqz	a5,8000341a <exit+0x86>
    800033e8:	fe043703          	ld	a4,-32(s0)
    800033ec:	fec42783          	lw	a5,-20(s0)
    800033f0:	07e9                	addi	a5,a5,26
    800033f2:	078e                	slli	a5,a5,0x3
    800033f4:	97ba                	add	a5,a5,a4
    800033f6:	639c                	ld	a5,0(a5)
    800033f8:	fcf43823          	sd	a5,-48(s0)
    800033fc:	fd043503          	ld	a0,-48(s0)
    80003400:	00004097          	auipc	ra,0x4
    80003404:	854080e7          	jalr	-1964(ra) # 80006c54 <fileclose>
    80003408:	fe043703          	ld	a4,-32(s0)
    8000340c:	fec42783          	lw	a5,-20(s0)
    80003410:	07e9                	addi	a5,a5,26
    80003412:	078e                	slli	a5,a5,0x3
    80003414:	97ba                	add	a5,a5,a4
    80003416:	0007b023          	sd	zero,0(a5)
    8000341a:	fec42783          	lw	a5,-20(s0)
    8000341e:	2785                	addiw	a5,a5,1
    80003420:	fef42623          	sw	a5,-20(s0)
    80003424:	fec42783          	lw	a5,-20(s0)
    80003428:	0007871b          	sext.w	a4,a5
    8000342c:	47bd                	li	a5,15
    8000342e:	fae7d4e3          	bge	a5,a4,800033d6 <exit+0x42>
    80003432:	00003097          	auipc	ra,0x3
    80003436:	18a080e7          	jalr	394(ra) # 800065bc <begin_op>
    8000343a:	fe043783          	ld	a5,-32(s0)
    8000343e:	1507b783          	ld	a5,336(a5)
    80003442:	853e                	mv	a0,a5
    80003444:	00002097          	auipc	ra,0x2
    80003448:	2b0080e7          	jalr	688(ra) # 800056f4 <iput>
    8000344c:	00003097          	auipc	ra,0x3
    80003450:	232080e7          	jalr	562(ra) # 8000667e <end_op>
    80003454:	fe043783          	ld	a5,-32(s0)
    80003458:	1407b823          	sd	zero,336(a5)
    8000345c:	0000a797          	auipc	a5,0xa
    80003460:	bbc78793          	addi	a5,a5,-1092 # 8000d018 <initproc>
    80003464:	639c                	ld	a5,0(a5)
    80003466:	853e                	mv	a0,a5
    80003468:	ffffe097          	auipc	ra,0xffffe
    8000346c:	e6a080e7          	jalr	-406(ra) # 800012d2 <acquire>
    80003470:	0000a797          	auipc	a5,0xa
    80003474:	ba878793          	addi	a5,a5,-1112 # 8000d018 <initproc>
    80003478:	639c                	ld	a5,0(a5)
    8000347a:	853e                	mv	a0,a5
    8000347c:	00000097          	auipc	ra,0x0
    80003480:	5ac080e7          	jalr	1452(ra) # 80003a28 <wakeup1>
    80003484:	0000a797          	auipc	a5,0xa
    80003488:	b9478793          	addi	a5,a5,-1132 # 8000d018 <initproc>
    8000348c:	639c                	ld	a5,0(a5)
    8000348e:	853e                	mv	a0,a5
    80003490:	ffffe097          	auipc	ra,0xffffe
    80003494:	ea6080e7          	jalr	-346(ra) # 80001336 <release>
    80003498:	fe043783          	ld	a5,-32(s0)
    8000349c:	853e                	mv	a0,a5
    8000349e:	ffffe097          	auipc	ra,0xffffe
    800034a2:	e34080e7          	jalr	-460(ra) # 800012d2 <acquire>
    800034a6:	fe043783          	ld	a5,-32(s0)
    800034aa:	739c                	ld	a5,32(a5)
    800034ac:	fcf43c23          	sd	a5,-40(s0)
    800034b0:	fe043783          	ld	a5,-32(s0)
    800034b4:	853e                	mv	a0,a5
    800034b6:	ffffe097          	auipc	ra,0xffffe
    800034ba:	e80080e7          	jalr	-384(ra) # 80001336 <release>
    800034be:	fd843783          	ld	a5,-40(s0)
    800034c2:	853e                	mv	a0,a5
    800034c4:	ffffe097          	auipc	ra,0xffffe
    800034c8:	e0e080e7          	jalr	-498(ra) # 800012d2 <acquire>
    800034cc:	fe043783          	ld	a5,-32(s0)
    800034d0:	853e                	mv	a0,a5
    800034d2:	ffffe097          	auipc	ra,0xffffe
    800034d6:	e00080e7          	jalr	-512(ra) # 800012d2 <acquire>
    800034da:	fe043503          	ld	a0,-32(s0)
    800034de:	00000097          	auipc	ra,0x0
    800034e2:	e3a080e7          	jalr	-454(ra) # 80003318 <reparent>
    800034e6:	fd843503          	ld	a0,-40(s0)
    800034ea:	00000097          	auipc	ra,0x0
    800034ee:	53e080e7          	jalr	1342(ra) # 80003a28 <wakeup1>
    800034f2:	fe043783          	ld	a5,-32(s0)
    800034f6:	fcc42703          	lw	a4,-52(s0)
    800034fa:	dbd8                	sw	a4,52(a5)
    800034fc:	fe043783          	ld	a5,-32(s0)
    80003500:	4711                	li	a4,4
    80003502:	cf98                	sw	a4,24(a5)
    80003504:	fd843783          	ld	a5,-40(s0)
    80003508:	853e                	mv	a0,a5
    8000350a:	ffffe097          	auipc	ra,0xffffe
    8000350e:	e2c080e7          	jalr	-468(ra) # 80001336 <release>
    80003512:	00000097          	auipc	ra,0x0
    80003516:	25e080e7          	jalr	606(ra) # 80003770 <sched>
    8000351a:	00009517          	auipc	a0,0x9
    8000351e:	d0650513          	addi	a0,a0,-762 # 8000c220 <etext+0x220>
    80003522:	ffffd097          	auipc	ra,0xffffd
    80003526:	77c080e7          	jalr	1916(ra) # 80000c9e <panic>

000000008000352a <wait>:
    8000352a:	7139                	addi	sp,sp,-64
    8000352c:	fc06                	sd	ra,56(sp)
    8000352e:	f822                	sd	s0,48(sp)
    80003530:	0080                	addi	s0,sp,64
    80003532:	fca43423          	sd	a0,-56(s0)
    80003536:	fffff097          	auipc	ra,0xfffff
    8000353a:	41c080e7          	jalr	1052(ra) # 80002952 <myproc>
    8000353e:	fca43c23          	sd	a0,-40(s0)
    80003542:	fd843783          	ld	a5,-40(s0)
    80003546:	853e                	mv	a0,a5
    80003548:	ffffe097          	auipc	ra,0xffffe
    8000354c:	d8a080e7          	jalr	-630(ra) # 800012d2 <acquire>
    80003550:	fe042223          	sw	zero,-28(s0)
    80003554:	00013797          	auipc	a5,0x13
    80003558:	80478793          	addi	a5,a5,-2044 # 80015d58 <proc>
    8000355c:	fef43423          	sd	a5,-24(s0)
    80003560:	a8c1                	j	80003630 <wait+0x106>
    80003562:	fe843783          	ld	a5,-24(s0)
    80003566:	739c                	ld	a5,32(a5)
    80003568:	fd843703          	ld	a4,-40(s0)
    8000356c:	0af71c63          	bne	a4,a5,80003624 <wait+0xfa>
    80003570:	fe843783          	ld	a5,-24(s0)
    80003574:	853e                	mv	a0,a5
    80003576:	ffffe097          	auipc	ra,0xffffe
    8000357a:	d5c080e7          	jalr	-676(ra) # 800012d2 <acquire>
    8000357e:	4785                	li	a5,1
    80003580:	fef42223          	sw	a5,-28(s0)
    80003584:	fe843783          	ld	a5,-24(s0)
    80003588:	4f9c                	lw	a5,24(a5)
    8000358a:	873e                	mv	a4,a5
    8000358c:	4791                	li	a5,4
    8000358e:	08f71463          	bne	a4,a5,80003616 <wait+0xec>
    80003592:	fe843783          	ld	a5,-24(s0)
    80003596:	5f9c                	lw	a5,56(a5)
    80003598:	fcf42a23          	sw	a5,-44(s0)
    8000359c:	fc843783          	ld	a5,-56(s0)
    800035a0:	c7a1                	beqz	a5,800035e8 <wait+0xbe>
    800035a2:	fd843783          	ld	a5,-40(s0)
    800035a6:	6bb8                	ld	a4,80(a5)
    800035a8:	fe843783          	ld	a5,-24(s0)
    800035ac:	03478793          	addi	a5,a5,52
    800035b0:	4691                	li	a3,4
    800035b2:	863e                	mv	a2,a5
    800035b4:	fc843583          	ld	a1,-56(s0)
    800035b8:	853a                	mv	a0,a4
    800035ba:	fffff097          	auipc	ra,0xfffff
    800035be:	eae080e7          	jalr	-338(ra) # 80002468 <copyout>
    800035c2:	87aa                	mv	a5,a0
    800035c4:	0207d263          	bgez	a5,800035e8 <wait+0xbe>
    800035c8:	fe843783          	ld	a5,-24(s0)
    800035cc:	853e                	mv	a0,a5
    800035ce:	ffffe097          	auipc	ra,0xffffe
    800035d2:	d68080e7          	jalr	-664(ra) # 80001336 <release>
    800035d6:	fd843783          	ld	a5,-40(s0)
    800035da:	853e                	mv	a0,a5
    800035dc:	ffffe097          	auipc	ra,0xffffe
    800035e0:	d5a080e7          	jalr	-678(ra) # 80001336 <release>
    800035e4:	57fd                	li	a5,-1
    800035e6:	a841                	j	80003676 <wait+0x14c>
    800035e8:	fe843503          	ld	a0,-24(s0)
    800035ec:	fffff097          	auipc	ra,0xfffff
    800035f0:	516080e7          	jalr	1302(ra) # 80002b02 <freeproc>
    800035f4:	fe843783          	ld	a5,-24(s0)
    800035f8:	853e                	mv	a0,a5
    800035fa:	ffffe097          	auipc	ra,0xffffe
    800035fe:	d3c080e7          	jalr	-708(ra) # 80001336 <release>
    80003602:	fd843783          	ld	a5,-40(s0)
    80003606:	853e                	mv	a0,a5
    80003608:	ffffe097          	auipc	ra,0xffffe
    8000360c:	d2e080e7          	jalr	-722(ra) # 80001336 <release>
    80003610:	fd442783          	lw	a5,-44(s0)
    80003614:	a08d                	j	80003676 <wait+0x14c>
    80003616:	fe843783          	ld	a5,-24(s0)
    8000361a:	853e                	mv	a0,a5
    8000361c:	ffffe097          	auipc	ra,0xffffe
    80003620:	d1a080e7          	jalr	-742(ra) # 80001336 <release>
    80003624:	fe843783          	ld	a5,-24(s0)
    80003628:	16878793          	addi	a5,a5,360
    8000362c:	fef43423          	sd	a5,-24(s0)
    80003630:	fe843703          	ld	a4,-24(s0)
    80003634:	00018797          	auipc	a5,0x18
    80003638:	12478793          	addi	a5,a5,292 # 8001b758 <pid_lock>
    8000363c:	f2f763e3          	bltu	a4,a5,80003562 <wait+0x38>
    80003640:	fe442783          	lw	a5,-28(s0)
    80003644:	2781                	sext.w	a5,a5
    80003646:	c789                	beqz	a5,80003650 <wait+0x126>
    80003648:	fd843783          	ld	a5,-40(s0)
    8000364c:	5b9c                	lw	a5,48(a5)
    8000364e:	cb91                	beqz	a5,80003662 <wait+0x138>
    80003650:	fd843783          	ld	a5,-40(s0)
    80003654:	853e                	mv	a0,a5
    80003656:	ffffe097          	auipc	ra,0xffffe
    8000365a:	ce0080e7          	jalr	-800(ra) # 80001336 <release>
    8000365e:	57fd                	li	a5,-1
    80003660:	a819                	j	80003676 <wait+0x14c>
    80003662:	fd843783          	ld	a5,-40(s0)
    80003666:	85be                	mv	a1,a5
    80003668:	fd843503          	ld	a0,-40(s0)
    8000366c:	00000097          	auipc	ra,0x0
    80003670:	2a6080e7          	jalr	678(ra) # 80003912 <sleep>
    80003674:	bdf1                	j	80003550 <wait+0x26>
    80003676:	853e                	mv	a0,a5
    80003678:	70e2                	ld	ra,56(sp)
    8000367a:	7442                	ld	s0,48(sp)
    8000367c:	6121                	addi	sp,sp,64
    8000367e:	8082                	ret

0000000080003680 <scheduler>:
    80003680:	7179                	addi	sp,sp,-48
    80003682:	f406                	sd	ra,40(sp)
    80003684:	f022                	sd	s0,32(sp)
    80003686:	1800                	addi	s0,sp,48
    80003688:	fffff097          	auipc	ra,0xfffff
    8000368c:	290080e7          	jalr	656(ra) # 80002918 <mycpu>
    80003690:	fca43c23          	sd	a0,-40(s0)
    80003694:	fd843783          	ld	a5,-40(s0)
    80003698:	0007b023          	sd	zero,0(a5)
    8000369c:	fffff097          	auipc	ra,0xfffff
    800036a0:	138080e7          	jalr	312(ra) # 800027d4 <intr_on>
    800036a4:	fe042223          	sw	zero,-28(s0)
    800036a8:	00012797          	auipc	a5,0x12
    800036ac:	6b078793          	addi	a5,a5,1712 # 80015d58 <proc>
    800036b0:	fef43423          	sd	a5,-24(s0)
    800036b4:	a859                	j	8000374a <scheduler+0xca>
    800036b6:	fe843783          	ld	a5,-24(s0)
    800036ba:	853e                	mv	a0,a5
    800036bc:	ffffe097          	auipc	ra,0xffffe
    800036c0:	c16080e7          	jalr	-1002(ra) # 800012d2 <acquire>
    800036c4:	fe843783          	ld	a5,-24(s0)
    800036c8:	4f9c                	lw	a5,24(a5)
    800036ca:	873e                	mv	a4,a5
    800036cc:	4789                	li	a5,2
    800036ce:	06f71163          	bne	a4,a5,80003730 <scheduler+0xb0>
    800036d2:	fe843783          	ld	a5,-24(s0)
    800036d6:	470d                	li	a4,3
    800036d8:	cf98                	sw	a4,24(a5)
    800036da:	fd843783          	ld	a5,-40(s0)
    800036de:	fe843703          	ld	a4,-24(s0)
    800036e2:	e398                	sd	a4,0(a5)
    800036e4:	fe843783          	ld	a5,-24(s0)
    800036e8:	6bbc                	ld	a5,80(a5)
    800036ea:	00c7d713          	srli	a4,a5,0xc
    800036ee:	57fd                	li	a5,-1
    800036f0:	17fe                	slli	a5,a5,0x3f
    800036f2:	8fd9                	or	a5,a5,a4
    800036f4:	853e                	mv	a0,a5
    800036f6:	fffff097          	auipc	ra,0xfffff
    800036fa:	0c4080e7          	jalr	196(ra) # 800027ba <w_satp>
    800036fe:	fffff097          	auipc	ra,0xfffff
    80003702:	146080e7          	jalr	326(ra) # 80002844 <sfence_vma>
    80003706:	fd843783          	ld	a5,-40(s0)
    8000370a:	00878713          	addi	a4,a5,8
    8000370e:	fe843783          	ld	a5,-24(s0)
    80003712:	06078793          	addi	a5,a5,96
    80003716:	85be                	mv	a1,a5
    80003718:	853a                	mv	a0,a4
    8000371a:	00000097          	auipc	ra,0x0
    8000371e:	5d4080e7          	jalr	1492(ra) # 80003cee <swtch>
    80003722:	fd843783          	ld	a5,-40(s0)
    80003726:	0007b023          	sd	zero,0(a5)
    8000372a:	4785                	li	a5,1
    8000372c:	fef42223          	sw	a5,-28(s0)
    80003730:	fe843783          	ld	a5,-24(s0)
    80003734:	853e                	mv	a0,a5
    80003736:	ffffe097          	auipc	ra,0xffffe
    8000373a:	c00080e7          	jalr	-1024(ra) # 80001336 <release>
    8000373e:	fe843783          	ld	a5,-24(s0)
    80003742:	16878793          	addi	a5,a5,360
    80003746:	fef43423          	sd	a5,-24(s0)
    8000374a:	fe843703          	ld	a4,-24(s0)
    8000374e:	00018797          	auipc	a5,0x18
    80003752:	00a78793          	addi	a5,a5,10 # 8001b758 <pid_lock>
    80003756:	f6f760e3          	bltu	a4,a5,800036b6 <scheduler+0x36>
    8000375a:	fe442783          	lw	a5,-28(s0)
    8000375e:	2781                	sext.w	a5,a5
    80003760:	ff95                	bnez	a5,8000369c <scheduler+0x1c>
    80003762:	fffff097          	auipc	ra,0xfffff
    80003766:	072080e7          	jalr	114(ra) # 800027d4 <intr_on>
    8000376a:	10500073          	wfi
    8000376e:	b73d                	j	8000369c <scheduler+0x1c>

0000000080003770 <sched>:
    80003770:	7179                	addi	sp,sp,-48
    80003772:	f406                	sd	ra,40(sp)
    80003774:	f022                	sd	s0,32(sp)
    80003776:	ec26                	sd	s1,24(sp)
    80003778:	1800                	addi	s0,sp,48
    8000377a:	fffff097          	auipc	ra,0xfffff
    8000377e:	1d8080e7          	jalr	472(ra) # 80002952 <myproc>
    80003782:	fca43c23          	sd	a0,-40(s0)
    80003786:	fd843783          	ld	a5,-40(s0)
    8000378a:	853e                	mv	a0,a5
    8000378c:	ffffe097          	auipc	ra,0xffffe
    80003790:	c00080e7          	jalr	-1024(ra) # 8000138c <holding>
    80003794:	87aa                	mv	a5,a0
    80003796:	eb89                	bnez	a5,800037a8 <sched+0x38>
    80003798:	00009517          	auipc	a0,0x9
    8000379c:	a9850513          	addi	a0,a0,-1384 # 8000c230 <etext+0x230>
    800037a0:	ffffd097          	auipc	ra,0xffffd
    800037a4:	4fe080e7          	jalr	1278(ra) # 80000c9e <panic>
    800037a8:	fffff097          	auipc	ra,0xfffff
    800037ac:	170080e7          	jalr	368(ra) # 80002918 <mycpu>
    800037b0:	87aa                	mv	a5,a0
    800037b2:	5fbc                	lw	a5,120(a5)
    800037b4:	873e                	mv	a4,a5
    800037b6:	4785                	li	a5,1
    800037b8:	00f70a63          	beq	a4,a5,800037cc <sched+0x5c>
    800037bc:	00009517          	auipc	a0,0x9
    800037c0:	a8450513          	addi	a0,a0,-1404 # 8000c240 <etext+0x240>
    800037c4:	ffffd097          	auipc	ra,0xffffd
    800037c8:	4da080e7          	jalr	1242(ra) # 80000c9e <panic>
    800037cc:	fd843783          	ld	a5,-40(s0)
    800037d0:	4f9c                	lw	a5,24(a5)
    800037d2:	873e                	mv	a4,a5
    800037d4:	478d                	li	a5,3
    800037d6:	00f71a63          	bne	a4,a5,800037ea <sched+0x7a>
    800037da:	00009517          	auipc	a0,0x9
    800037de:	a7650513          	addi	a0,a0,-1418 # 8000c250 <etext+0x250>
    800037e2:	ffffd097          	auipc	ra,0xffffd
    800037e6:	4bc080e7          	jalr	1212(ra) # 80000c9e <panic>
    800037ea:	fffff097          	auipc	ra,0xfffff
    800037ee:	014080e7          	jalr	20(ra) # 800027fe <intr_get>
    800037f2:	87aa                	mv	a5,a0
    800037f4:	cb89                	beqz	a5,80003806 <sched+0x96>
    800037f6:	00009517          	auipc	a0,0x9
    800037fa:	a6a50513          	addi	a0,a0,-1430 # 8000c260 <etext+0x260>
    800037fe:	ffffd097          	auipc	ra,0xffffd
    80003802:	4a0080e7          	jalr	1184(ra) # 80000c9e <panic>
    80003806:	fffff097          	auipc	ra,0xfffff
    8000380a:	112080e7          	jalr	274(ra) # 80002918 <mycpu>
    8000380e:	87aa                	mv	a5,a0
    80003810:	5ffc                	lw	a5,124(a5)
    80003812:	fcf42a23          	sw	a5,-44(s0)
    80003816:	00009797          	auipc	a5,0x9
    8000381a:	7fa78793          	addi	a5,a5,2042 # 8000d010 <g_space>
    8000381e:	639c                	ld	a5,0(a5)
    80003820:	00c7d713          	srli	a4,a5,0xc
    80003824:	57fd                	li	a5,-1
    80003826:	17fe                	slli	a5,a5,0x3f
    80003828:	8fd9                	or	a5,a5,a4
    8000382a:	853e                	mv	a0,a5
    8000382c:	fffff097          	auipc	ra,0xfffff
    80003830:	f8e080e7          	jalr	-114(ra) # 800027ba <w_satp>
    80003834:	fffff097          	auipc	ra,0xfffff
    80003838:	010080e7          	jalr	16(ra) # 80002844 <sfence_vma>
    8000383c:	fd843783          	ld	a5,-40(s0)
    80003840:	06078493          	addi	s1,a5,96
    80003844:	fffff097          	auipc	ra,0xfffff
    80003848:	0d4080e7          	jalr	212(ra) # 80002918 <mycpu>
    8000384c:	87aa                	mv	a5,a0
    8000384e:	07a1                	addi	a5,a5,8
    80003850:	85be                	mv	a1,a5
    80003852:	8526                	mv	a0,s1
    80003854:	00000097          	auipc	ra,0x0
    80003858:	49a080e7          	jalr	1178(ra) # 80003cee <swtch>
    8000385c:	fffff097          	auipc	ra,0xfffff
    80003860:	0bc080e7          	jalr	188(ra) # 80002918 <mycpu>
    80003864:	872a                	mv	a4,a0
    80003866:	fd442783          	lw	a5,-44(s0)
    8000386a:	df7c                	sw	a5,124(a4)
    8000386c:	0001                	nop
    8000386e:	70a2                	ld	ra,40(sp)
    80003870:	7402                	ld	s0,32(sp)
    80003872:	64e2                	ld	s1,24(sp)
    80003874:	6145                	addi	sp,sp,48
    80003876:	8082                	ret

0000000080003878 <yield>:
    80003878:	1101                	addi	sp,sp,-32
    8000387a:	ec06                	sd	ra,24(sp)
    8000387c:	e822                	sd	s0,16(sp)
    8000387e:	1000                	addi	s0,sp,32
    80003880:	fffff097          	auipc	ra,0xfffff
    80003884:	0d2080e7          	jalr	210(ra) # 80002952 <myproc>
    80003888:	fea43423          	sd	a0,-24(s0)
    8000388c:	fe843783          	ld	a5,-24(s0)
    80003890:	853e                	mv	a0,a5
    80003892:	ffffe097          	auipc	ra,0xffffe
    80003896:	a40080e7          	jalr	-1472(ra) # 800012d2 <acquire>
    8000389a:	fe843783          	ld	a5,-24(s0)
    8000389e:	4709                	li	a4,2
    800038a0:	cf98                	sw	a4,24(a5)
    800038a2:	00000097          	auipc	ra,0x0
    800038a6:	ece080e7          	jalr	-306(ra) # 80003770 <sched>
    800038aa:	fe843783          	ld	a5,-24(s0)
    800038ae:	853e                	mv	a0,a5
    800038b0:	ffffe097          	auipc	ra,0xffffe
    800038b4:	a86080e7          	jalr	-1402(ra) # 80001336 <release>
    800038b8:	0001                	nop
    800038ba:	60e2                	ld	ra,24(sp)
    800038bc:	6442                	ld	s0,16(sp)
    800038be:	6105                	addi	sp,sp,32
    800038c0:	8082                	ret

00000000800038c2 <forkret>:
    800038c2:	1141                	addi	sp,sp,-16
    800038c4:	e406                	sd	ra,8(sp)
    800038c6:	e022                	sd	s0,0(sp)
    800038c8:	0800                	addi	s0,sp,16
    800038ca:	fffff097          	auipc	ra,0xfffff
    800038ce:	088080e7          	jalr	136(ra) # 80002952 <myproc>
    800038d2:	87aa                	mv	a5,a0
    800038d4:	853e                	mv	a0,a5
    800038d6:	ffffe097          	auipc	ra,0xffffe
    800038da:	a60080e7          	jalr	-1440(ra) # 80001336 <release>
    800038de:	00009797          	auipc	a5,0x9
    800038e2:	f8678793          	addi	a5,a5,-122 # 8000c864 <first.1>
    800038e6:	439c                	lw	a5,0(a5)
    800038e8:	cf81                	beqz	a5,80003900 <forkret+0x3e>
    800038ea:	00009797          	auipc	a5,0x9
    800038ee:	f7a78793          	addi	a5,a5,-134 # 8000c864 <first.1>
    800038f2:	0007a023          	sw	zero,0(a5)
    800038f6:	4505                	li	a0,1
    800038f8:	00001097          	auipc	ra,0x1
    800038fc:	514080e7          	jalr	1300(ra) # 80004e0c <fsinit>
    80003900:	00000097          	auipc	ra,0x0
    80003904:	78c080e7          	jalr	1932(ra) # 8000408c <usertrapret>
    80003908:	0001                	nop
    8000390a:	60a2                	ld	ra,8(sp)
    8000390c:	6402                	ld	s0,0(sp)
    8000390e:	0141                	addi	sp,sp,16
    80003910:	8082                	ret

0000000080003912 <sleep>:
    80003912:	7179                	addi	sp,sp,-48
    80003914:	f406                	sd	ra,40(sp)
    80003916:	f022                	sd	s0,32(sp)
    80003918:	1800                	addi	s0,sp,48
    8000391a:	fca43c23          	sd	a0,-40(s0)
    8000391e:	fcb43823          	sd	a1,-48(s0)
    80003922:	fffff097          	auipc	ra,0xfffff
    80003926:	030080e7          	jalr	48(ra) # 80002952 <myproc>
    8000392a:	fea43423          	sd	a0,-24(s0)
    8000392e:	fe843783          	ld	a5,-24(s0)
    80003932:	fd043703          	ld	a4,-48(s0)
    80003936:	00f70f63          	beq	a4,a5,80003954 <sleep+0x42>
    8000393a:	fe843783          	ld	a5,-24(s0)
    8000393e:	853e                	mv	a0,a5
    80003940:	ffffe097          	auipc	ra,0xffffe
    80003944:	992080e7          	jalr	-1646(ra) # 800012d2 <acquire>
    80003948:	fd043503          	ld	a0,-48(s0)
    8000394c:	ffffe097          	auipc	ra,0xffffe
    80003950:	9ea080e7          	jalr	-1558(ra) # 80001336 <release>
    80003954:	fe843783          	ld	a5,-24(s0)
    80003958:	fd843703          	ld	a4,-40(s0)
    8000395c:	f798                	sd	a4,40(a5)
    8000395e:	fe843783          	ld	a5,-24(s0)
    80003962:	4705                	li	a4,1
    80003964:	cf98                	sw	a4,24(a5)
    80003966:	00000097          	auipc	ra,0x0
    8000396a:	e0a080e7          	jalr	-502(ra) # 80003770 <sched>
    8000396e:	fe843783          	ld	a5,-24(s0)
    80003972:	0207b423          	sd	zero,40(a5)
    80003976:	fe843783          	ld	a5,-24(s0)
    8000397a:	fd043703          	ld	a4,-48(s0)
    8000397e:	00f70f63          	beq	a4,a5,8000399c <sleep+0x8a>
    80003982:	fe843783          	ld	a5,-24(s0)
    80003986:	853e                	mv	a0,a5
    80003988:	ffffe097          	auipc	ra,0xffffe
    8000398c:	9ae080e7          	jalr	-1618(ra) # 80001336 <release>
    80003990:	fd043503          	ld	a0,-48(s0)
    80003994:	ffffe097          	auipc	ra,0xffffe
    80003998:	93e080e7          	jalr	-1730(ra) # 800012d2 <acquire>
    8000399c:	0001                	nop
    8000399e:	70a2                	ld	ra,40(sp)
    800039a0:	7402                	ld	s0,32(sp)
    800039a2:	6145                	addi	sp,sp,48
    800039a4:	8082                	ret

00000000800039a6 <wakeup>:
    800039a6:	7179                	addi	sp,sp,-48
    800039a8:	f406                	sd	ra,40(sp)
    800039aa:	f022                	sd	s0,32(sp)
    800039ac:	1800                	addi	s0,sp,48
    800039ae:	fca43c23          	sd	a0,-40(s0)
    800039b2:	00012797          	auipc	a5,0x12
    800039b6:	3a678793          	addi	a5,a5,934 # 80015d58 <proc>
    800039ba:	fef43423          	sd	a5,-24(s0)
    800039be:	a0b9                	j	80003a0c <wakeup+0x66>
    800039c0:	fe843783          	ld	a5,-24(s0)
    800039c4:	853e                	mv	a0,a5
    800039c6:	ffffe097          	auipc	ra,0xffffe
    800039ca:	90c080e7          	jalr	-1780(ra) # 800012d2 <acquire>
    800039ce:	fe843783          	ld	a5,-24(s0)
    800039d2:	4f9c                	lw	a5,24(a5)
    800039d4:	873e                	mv	a4,a5
    800039d6:	4785                	li	a5,1
    800039d8:	00f71d63          	bne	a4,a5,800039f2 <wakeup+0x4c>
    800039dc:	fe843783          	ld	a5,-24(s0)
    800039e0:	779c                	ld	a5,40(a5)
    800039e2:	fd843703          	ld	a4,-40(s0)
    800039e6:	00f71663          	bne	a4,a5,800039f2 <wakeup+0x4c>
    800039ea:	fe843783          	ld	a5,-24(s0)
    800039ee:	4709                	li	a4,2
    800039f0:	cf98                	sw	a4,24(a5)
    800039f2:	fe843783          	ld	a5,-24(s0)
    800039f6:	853e                	mv	a0,a5
    800039f8:	ffffe097          	auipc	ra,0xffffe
    800039fc:	93e080e7          	jalr	-1730(ra) # 80001336 <release>
    80003a00:	fe843783          	ld	a5,-24(s0)
    80003a04:	16878793          	addi	a5,a5,360
    80003a08:	fef43423          	sd	a5,-24(s0)
    80003a0c:	fe843703          	ld	a4,-24(s0)
    80003a10:	00018797          	auipc	a5,0x18
    80003a14:	d4878793          	addi	a5,a5,-696 # 8001b758 <pid_lock>
    80003a18:	faf764e3          	bltu	a4,a5,800039c0 <wakeup+0x1a>
    80003a1c:	0001                	nop
    80003a1e:	0001                	nop
    80003a20:	70a2                	ld	ra,40(sp)
    80003a22:	7402                	ld	s0,32(sp)
    80003a24:	6145                	addi	sp,sp,48
    80003a26:	8082                	ret

0000000080003a28 <wakeup1>:
    80003a28:	1101                	addi	sp,sp,-32
    80003a2a:	ec06                	sd	ra,24(sp)
    80003a2c:	e822                	sd	s0,16(sp)
    80003a2e:	1000                	addi	s0,sp,32
    80003a30:	fea43423          	sd	a0,-24(s0)
    80003a34:	fe843783          	ld	a5,-24(s0)
    80003a38:	853e                	mv	a0,a5
    80003a3a:	ffffe097          	auipc	ra,0xffffe
    80003a3e:	952080e7          	jalr	-1710(ra) # 8000138c <holding>
    80003a42:	87aa                	mv	a5,a0
    80003a44:	eb89                	bnez	a5,80003a56 <wakeup1+0x2e>
    80003a46:	00009517          	auipc	a0,0x9
    80003a4a:	83250513          	addi	a0,a0,-1998 # 8000c278 <etext+0x278>
    80003a4e:	ffffd097          	auipc	ra,0xffffd
    80003a52:	250080e7          	jalr	592(ra) # 80000c9e <panic>
    80003a56:	fe843783          	ld	a5,-24(s0)
    80003a5a:	779c                	ld	a5,40(a5)
    80003a5c:	fe843703          	ld	a4,-24(s0)
    80003a60:	00f71d63          	bne	a4,a5,80003a7a <wakeup1+0x52>
    80003a64:	fe843783          	ld	a5,-24(s0)
    80003a68:	4f9c                	lw	a5,24(a5)
    80003a6a:	873e                	mv	a4,a5
    80003a6c:	4785                	li	a5,1
    80003a6e:	00f71663          	bne	a4,a5,80003a7a <wakeup1+0x52>
    80003a72:	fe843783          	ld	a5,-24(s0)
    80003a76:	4709                	li	a4,2
    80003a78:	cf98                	sw	a4,24(a5)
    80003a7a:	0001                	nop
    80003a7c:	60e2                	ld	ra,24(sp)
    80003a7e:	6442                	ld	s0,16(sp)
    80003a80:	6105                	addi	sp,sp,32
    80003a82:	8082                	ret

0000000080003a84 <kill>:
    80003a84:	7179                	addi	sp,sp,-48
    80003a86:	f406                	sd	ra,40(sp)
    80003a88:	f022                	sd	s0,32(sp)
    80003a8a:	1800                	addi	s0,sp,48
    80003a8c:	87aa                	mv	a5,a0
    80003a8e:	fcf42e23          	sw	a5,-36(s0)
    80003a92:	00012797          	auipc	a5,0x12
    80003a96:	2c678793          	addi	a5,a5,710 # 80015d58 <proc>
    80003a9a:	fef43423          	sd	a5,-24(s0)
    80003a9e:	a0ad                	j	80003b08 <kill+0x84>
    80003aa0:	fe843783          	ld	a5,-24(s0)
    80003aa4:	853e                	mv	a0,a5
    80003aa6:	ffffe097          	auipc	ra,0xffffe
    80003aaa:	82c080e7          	jalr	-2004(ra) # 800012d2 <acquire>
    80003aae:	fe843783          	ld	a5,-24(s0)
    80003ab2:	5f98                	lw	a4,56(a5)
    80003ab4:	fdc42783          	lw	a5,-36(s0)
    80003ab8:	2781                	sext.w	a5,a5
    80003aba:	02e79a63          	bne	a5,a4,80003aee <kill+0x6a>
    80003abe:	fe843783          	ld	a5,-24(s0)
    80003ac2:	4705                	li	a4,1
    80003ac4:	db98                	sw	a4,48(a5)
    80003ac6:	fe843783          	ld	a5,-24(s0)
    80003aca:	4f9c                	lw	a5,24(a5)
    80003acc:	873e                	mv	a4,a5
    80003ace:	4785                	li	a5,1
    80003ad0:	00f71663          	bne	a4,a5,80003adc <kill+0x58>
    80003ad4:	fe843783          	ld	a5,-24(s0)
    80003ad8:	4709                	li	a4,2
    80003ada:	cf98                	sw	a4,24(a5)
    80003adc:	fe843783          	ld	a5,-24(s0)
    80003ae0:	853e                	mv	a0,a5
    80003ae2:	ffffe097          	auipc	ra,0xffffe
    80003ae6:	854080e7          	jalr	-1964(ra) # 80001336 <release>
    80003aea:	4781                	li	a5,0
    80003aec:	a03d                	j	80003b1a <kill+0x96>
    80003aee:	fe843783          	ld	a5,-24(s0)
    80003af2:	853e                	mv	a0,a5
    80003af4:	ffffe097          	auipc	ra,0xffffe
    80003af8:	842080e7          	jalr	-1982(ra) # 80001336 <release>
    80003afc:	fe843783          	ld	a5,-24(s0)
    80003b00:	16878793          	addi	a5,a5,360
    80003b04:	fef43423          	sd	a5,-24(s0)
    80003b08:	fe843703          	ld	a4,-24(s0)
    80003b0c:	00018797          	auipc	a5,0x18
    80003b10:	c4c78793          	addi	a5,a5,-948 # 8001b758 <pid_lock>
    80003b14:	f8f766e3          	bltu	a4,a5,80003aa0 <kill+0x1c>
    80003b18:	57fd                	li	a5,-1
    80003b1a:	853e                	mv	a0,a5
    80003b1c:	70a2                	ld	ra,40(sp)
    80003b1e:	7402                	ld	s0,32(sp)
    80003b20:	6145                	addi	sp,sp,48
    80003b22:	8082                	ret

0000000080003b24 <either_copyout>:
    80003b24:	7139                	addi	sp,sp,-64
    80003b26:	fc06                	sd	ra,56(sp)
    80003b28:	f822                	sd	s0,48(sp)
    80003b2a:	0080                	addi	s0,sp,64
    80003b2c:	87aa                	mv	a5,a0
    80003b2e:	fcb43823          	sd	a1,-48(s0)
    80003b32:	fcc43423          	sd	a2,-56(s0)
    80003b36:	fcd43023          	sd	a3,-64(s0)
    80003b3a:	fcf42e23          	sw	a5,-36(s0)
    80003b3e:	fffff097          	auipc	ra,0xfffff
    80003b42:	e14080e7          	jalr	-492(ra) # 80002952 <myproc>
    80003b46:	fea43423          	sd	a0,-24(s0)
    80003b4a:	fdc42783          	lw	a5,-36(s0)
    80003b4e:	2781                	sext.w	a5,a5
    80003b50:	c38d                	beqz	a5,80003b72 <either_copyout+0x4e>
    80003b52:	fe843783          	ld	a5,-24(s0)
    80003b56:	6bbc                	ld	a5,80(a5)
    80003b58:	fc043683          	ld	a3,-64(s0)
    80003b5c:	fc843603          	ld	a2,-56(s0)
    80003b60:	fd043583          	ld	a1,-48(s0)
    80003b64:	853e                	mv	a0,a5
    80003b66:	fffff097          	auipc	ra,0xfffff
    80003b6a:	902080e7          	jalr	-1790(ra) # 80002468 <copyout>
    80003b6e:	87aa                	mv	a5,a0
    80003b70:	a839                	j	80003b8e <either_copyout+0x6a>
    80003b72:	fd043783          	ld	a5,-48(s0)
    80003b76:	fc043703          	ld	a4,-64(s0)
    80003b7a:	2701                	sext.w	a4,a4
    80003b7c:	863a                	mv	a2,a4
    80003b7e:	fc843583          	ld	a1,-56(s0)
    80003b82:	853e                	mv	a0,a5
    80003b84:	ffffe097          	auipc	ra,0xffffe
    80003b88:	a06080e7          	jalr	-1530(ra) # 8000158a <memmove>
    80003b8c:	4781                	li	a5,0
    80003b8e:	853e                	mv	a0,a5
    80003b90:	70e2                	ld	ra,56(sp)
    80003b92:	7442                	ld	s0,48(sp)
    80003b94:	6121                	addi	sp,sp,64
    80003b96:	8082                	ret

0000000080003b98 <either_copyin>:
    80003b98:	7139                	addi	sp,sp,-64
    80003b9a:	fc06                	sd	ra,56(sp)
    80003b9c:	f822                	sd	s0,48(sp)
    80003b9e:	0080                	addi	s0,sp,64
    80003ba0:	fca43c23          	sd	a0,-40(s0)
    80003ba4:	87ae                	mv	a5,a1
    80003ba6:	fcc43423          	sd	a2,-56(s0)
    80003baa:	fcd43023          	sd	a3,-64(s0)
    80003bae:	fcf42a23          	sw	a5,-44(s0)
    80003bb2:	fffff097          	auipc	ra,0xfffff
    80003bb6:	da0080e7          	jalr	-608(ra) # 80002952 <myproc>
    80003bba:	fea43423          	sd	a0,-24(s0)
    80003bbe:	fd442783          	lw	a5,-44(s0)
    80003bc2:	2781                	sext.w	a5,a5
    80003bc4:	c38d                	beqz	a5,80003be6 <either_copyin+0x4e>
    80003bc6:	fe843783          	ld	a5,-24(s0)
    80003bca:	6bbc                	ld	a5,80(a5)
    80003bcc:	fc043683          	ld	a3,-64(s0)
    80003bd0:	fc843603          	ld	a2,-56(s0)
    80003bd4:	fd843583          	ld	a1,-40(s0)
    80003bd8:	853e                	mv	a0,a5
    80003bda:	fffff097          	auipc	ra,0xfffff
    80003bde:	95c080e7          	jalr	-1700(ra) # 80002536 <copyin>
    80003be2:	87aa                	mv	a5,a0
    80003be4:	a839                	j	80003c02 <either_copyin+0x6a>
    80003be6:	fc843783          	ld	a5,-56(s0)
    80003bea:	fc043703          	ld	a4,-64(s0)
    80003bee:	2701                	sext.w	a4,a4
    80003bf0:	863a                	mv	a2,a4
    80003bf2:	85be                	mv	a1,a5
    80003bf4:	fd843503          	ld	a0,-40(s0)
    80003bf8:	ffffe097          	auipc	ra,0xffffe
    80003bfc:	992080e7          	jalr	-1646(ra) # 8000158a <memmove>
    80003c00:	4781                	li	a5,0
    80003c02:	853e                	mv	a0,a5
    80003c04:	70e2                	ld	ra,56(sp)
    80003c06:	7442                	ld	s0,48(sp)
    80003c08:	6121                	addi	sp,sp,64
    80003c0a:	8082                	ret

0000000080003c0c <procdump>:
    80003c0c:	1101                	addi	sp,sp,-32
    80003c0e:	ec06                	sd	ra,24(sp)
    80003c10:	e822                	sd	s0,16(sp)
    80003c12:	1000                	addi	s0,sp,32
    80003c14:	00008517          	auipc	a0,0x8
    80003c18:	66c50513          	addi	a0,a0,1644 # 8000c280 <etext+0x280>
    80003c1c:	ffffd097          	auipc	ra,0xffffd
    80003c20:	e2c080e7          	jalr	-468(ra) # 80000a48 <printf>
    80003c24:	00012797          	auipc	a5,0x12
    80003c28:	13478793          	addi	a5,a5,308 # 80015d58 <proc>
    80003c2c:	fef43423          	sd	a5,-24(s0)
    80003c30:	a04d                	j	80003cd2 <procdump+0xc6>
    80003c32:	fe843783          	ld	a5,-24(s0)
    80003c36:	4f9c                	lw	a5,24(a5)
    80003c38:	c7d1                	beqz	a5,80003cc4 <procdump+0xb8>
    80003c3a:	fe843783          	ld	a5,-24(s0)
    80003c3e:	4f9c                	lw	a5,24(a5)
    80003c40:	873e                	mv	a4,a5
    80003c42:	4791                	li	a5,4
    80003c44:	02e7ee63          	bltu	a5,a4,80003c80 <procdump+0x74>
    80003c48:	fe843783          	ld	a5,-24(s0)
    80003c4c:	4f9c                	lw	a5,24(a5)
    80003c4e:	00009717          	auipc	a4,0x9
    80003c52:	c7270713          	addi	a4,a4,-910 # 8000c8c0 <states.0>
    80003c56:	1782                	slli	a5,a5,0x20
    80003c58:	9381                	srli	a5,a5,0x20
    80003c5a:	078e                	slli	a5,a5,0x3
    80003c5c:	97ba                	add	a5,a5,a4
    80003c5e:	639c                	ld	a5,0(a5)
    80003c60:	c385                	beqz	a5,80003c80 <procdump+0x74>
    80003c62:	fe843783          	ld	a5,-24(s0)
    80003c66:	4f9c                	lw	a5,24(a5)
    80003c68:	00009717          	auipc	a4,0x9
    80003c6c:	c5870713          	addi	a4,a4,-936 # 8000c8c0 <states.0>
    80003c70:	1782                	slli	a5,a5,0x20
    80003c72:	9381                	srli	a5,a5,0x20
    80003c74:	078e                	slli	a5,a5,0x3
    80003c76:	97ba                	add	a5,a5,a4
    80003c78:	639c                	ld	a5,0(a5)
    80003c7a:	fef43023          	sd	a5,-32(s0)
    80003c7e:	a039                	j	80003c8c <procdump+0x80>
    80003c80:	00008797          	auipc	a5,0x8
    80003c84:	60878793          	addi	a5,a5,1544 # 8000c288 <etext+0x288>
    80003c88:	fef43023          	sd	a5,-32(s0)
    80003c8c:	fe843783          	ld	a5,-24(s0)
    80003c90:	5f98                	lw	a4,56(a5)
    80003c92:	fe843783          	ld	a5,-24(s0)
    80003c96:	15878793          	addi	a5,a5,344
    80003c9a:	86be                	mv	a3,a5
    80003c9c:	fe043603          	ld	a2,-32(s0)
    80003ca0:	85ba                	mv	a1,a4
    80003ca2:	00008517          	auipc	a0,0x8
    80003ca6:	5ee50513          	addi	a0,a0,1518 # 8000c290 <etext+0x290>
    80003caa:	ffffd097          	auipc	ra,0xffffd
    80003cae:	d9e080e7          	jalr	-610(ra) # 80000a48 <printf>
    80003cb2:	00008517          	auipc	a0,0x8
    80003cb6:	5ce50513          	addi	a0,a0,1486 # 8000c280 <etext+0x280>
    80003cba:	ffffd097          	auipc	ra,0xffffd
    80003cbe:	d8e080e7          	jalr	-626(ra) # 80000a48 <printf>
    80003cc2:	a011                	j	80003cc6 <procdump+0xba>
    80003cc4:	0001                	nop
    80003cc6:	fe843783          	ld	a5,-24(s0)
    80003cca:	16878793          	addi	a5,a5,360
    80003cce:	fef43423          	sd	a5,-24(s0)
    80003cd2:	fe843703          	ld	a4,-24(s0)
    80003cd6:	00018797          	auipc	a5,0x18
    80003cda:	a8278793          	addi	a5,a5,-1406 # 8001b758 <pid_lock>
    80003cde:	f4f76ae3          	bltu	a4,a5,80003c32 <procdump+0x26>
    80003ce2:	0001                	nop
    80003ce4:	0001                	nop
    80003ce6:	60e2                	ld	ra,24(sp)
    80003ce8:	6442                	ld	s0,16(sp)
    80003cea:	6105                	addi	sp,sp,32
    80003cec:	8082                	ret

0000000080003cee <swtch>:
    80003cee:	00153023          	sd	ra,0(a0)
    80003cf2:	00253423          	sd	sp,8(a0)
    80003cf6:	e900                	sd	s0,16(a0)
    80003cf8:	ed04                	sd	s1,24(a0)
    80003cfa:	03253023          	sd	s2,32(a0)
    80003cfe:	03353423          	sd	s3,40(a0)
    80003d02:	03453823          	sd	s4,48(a0)
    80003d06:	03553c23          	sd	s5,56(a0)
    80003d0a:	05653023          	sd	s6,64(a0)
    80003d0e:	05753423          	sd	s7,72(a0)
    80003d12:	05853823          	sd	s8,80(a0)
    80003d16:	05953c23          	sd	s9,88(a0)
    80003d1a:	07a53023          	sd	s10,96(a0)
    80003d1e:	07b53423          	sd	s11,104(a0)
    80003d22:	0005b083          	ld	ra,0(a1)
    80003d26:	0085b103          	ld	sp,8(a1)
    80003d2a:	6980                	ld	s0,16(a1)
    80003d2c:	6d84                	ld	s1,24(a1)
    80003d2e:	0205b903          	ld	s2,32(a1)
    80003d32:	0285b983          	ld	s3,40(a1)
    80003d36:	0305ba03          	ld	s4,48(a1)
    80003d3a:	0385ba83          	ld	s5,56(a1)
    80003d3e:	0405bb03          	ld	s6,64(a1)
    80003d42:	0485bb83          	ld	s7,72(a1)
    80003d46:	0505bc03          	ld	s8,80(a1)
    80003d4a:	0585bc83          	ld	s9,88(a1)
    80003d4e:	0605bd03          	ld	s10,96(a1)
    80003d52:	0685bd83          	ld	s11,104(a1)
    80003d56:	8082                	ret

0000000080003d58 <r_sstatus>:
    80003d58:	1101                	addi	sp,sp,-32
    80003d5a:	ec22                	sd	s0,24(sp)
    80003d5c:	1000                	addi	s0,sp,32
    80003d5e:	100027f3          	csrr	a5,sstatus
    80003d62:	fef43423          	sd	a5,-24(s0)
    80003d66:	fe843783          	ld	a5,-24(s0)
    80003d6a:	853e                	mv	a0,a5
    80003d6c:	6462                	ld	s0,24(sp)
    80003d6e:	6105                	addi	sp,sp,32
    80003d70:	8082                	ret

0000000080003d72 <w_sstatus>:
    80003d72:	1101                	addi	sp,sp,-32
    80003d74:	ec22                	sd	s0,24(sp)
    80003d76:	1000                	addi	s0,sp,32
    80003d78:	fea43423          	sd	a0,-24(s0)
    80003d7c:	fe843783          	ld	a5,-24(s0)
    80003d80:	10079073          	csrw	sstatus,a5
    80003d84:	0001                	nop
    80003d86:	6462                	ld	s0,24(sp)
    80003d88:	6105                	addi	sp,sp,32
    80003d8a:	8082                	ret

0000000080003d8c <r_sip>:
    80003d8c:	1101                	addi	sp,sp,-32
    80003d8e:	ec22                	sd	s0,24(sp)
    80003d90:	1000                	addi	s0,sp,32
    80003d92:	144027f3          	csrr	a5,sip
    80003d96:	fef43423          	sd	a5,-24(s0)
    80003d9a:	fe843783          	ld	a5,-24(s0)
    80003d9e:	853e                	mv	a0,a5
    80003da0:	6462                	ld	s0,24(sp)
    80003da2:	6105                	addi	sp,sp,32
    80003da4:	8082                	ret

0000000080003da6 <w_sip>:
    80003da6:	1101                	addi	sp,sp,-32
    80003da8:	ec22                	sd	s0,24(sp)
    80003daa:	1000                	addi	s0,sp,32
    80003dac:	fea43423          	sd	a0,-24(s0)
    80003db0:	fe843783          	ld	a5,-24(s0)
    80003db4:	14479073          	csrw	sip,a5
    80003db8:	0001                	nop
    80003dba:	6462                	ld	s0,24(sp)
    80003dbc:	6105                	addi	sp,sp,32
    80003dbe:	8082                	ret

0000000080003dc0 <w_sepc>:
    80003dc0:	1101                	addi	sp,sp,-32
    80003dc2:	ec22                	sd	s0,24(sp)
    80003dc4:	1000                	addi	s0,sp,32
    80003dc6:	fea43423          	sd	a0,-24(s0)
    80003dca:	fe843783          	ld	a5,-24(s0)
    80003dce:	14179073          	csrw	sepc,a5
    80003dd2:	0001                	nop
    80003dd4:	6462                	ld	s0,24(sp)
    80003dd6:	6105                	addi	sp,sp,32
    80003dd8:	8082                	ret

0000000080003dda <r_sepc>:
    80003dda:	1101                	addi	sp,sp,-32
    80003ddc:	ec22                	sd	s0,24(sp)
    80003dde:	1000                	addi	s0,sp,32
    80003de0:	141027f3          	csrr	a5,sepc
    80003de4:	fef43423          	sd	a5,-24(s0)
    80003de8:	fe843783          	ld	a5,-24(s0)
    80003dec:	853e                	mv	a0,a5
    80003dee:	6462                	ld	s0,24(sp)
    80003df0:	6105                	addi	sp,sp,32
    80003df2:	8082                	ret

0000000080003df4 <w_stvec>:
    80003df4:	1101                	addi	sp,sp,-32
    80003df6:	ec22                	sd	s0,24(sp)
    80003df8:	1000                	addi	s0,sp,32
    80003dfa:	fea43423          	sd	a0,-24(s0)
    80003dfe:	fe843783          	ld	a5,-24(s0)
    80003e02:	10579073          	csrw	stvec,a5
    80003e06:	0001                	nop
    80003e08:	6462                	ld	s0,24(sp)
    80003e0a:	6105                	addi	sp,sp,32
    80003e0c:	8082                	ret

0000000080003e0e <r_satp>:
    80003e0e:	1101                	addi	sp,sp,-32
    80003e10:	ec22                	sd	s0,24(sp)
    80003e12:	1000                	addi	s0,sp,32
    80003e14:	180027f3          	csrr	a5,satp
    80003e18:	fef43423          	sd	a5,-24(s0)
    80003e1c:	fe843783          	ld	a5,-24(s0)
    80003e20:	853e                	mv	a0,a5
    80003e22:	6462                	ld	s0,24(sp)
    80003e24:	6105                	addi	sp,sp,32
    80003e26:	8082                	ret

0000000080003e28 <r_scause>:
    80003e28:	1101                	addi	sp,sp,-32
    80003e2a:	ec22                	sd	s0,24(sp)
    80003e2c:	1000                	addi	s0,sp,32
    80003e2e:	142027f3          	csrr	a5,scause
    80003e32:	fef43423          	sd	a5,-24(s0)
    80003e36:	fe843783          	ld	a5,-24(s0)
    80003e3a:	853e                	mv	a0,a5
    80003e3c:	6462                	ld	s0,24(sp)
    80003e3e:	6105                	addi	sp,sp,32
    80003e40:	8082                	ret

0000000080003e42 <r_stval>:
    80003e42:	1101                	addi	sp,sp,-32
    80003e44:	ec22                	sd	s0,24(sp)
    80003e46:	1000                	addi	s0,sp,32
    80003e48:	143027f3          	csrr	a5,stval
    80003e4c:	fef43423          	sd	a5,-24(s0)
    80003e50:	fe843783          	ld	a5,-24(s0)
    80003e54:	853e                	mv	a0,a5
    80003e56:	6462                	ld	s0,24(sp)
    80003e58:	6105                	addi	sp,sp,32
    80003e5a:	8082                	ret

0000000080003e5c <intr_on>:
    80003e5c:	1141                	addi	sp,sp,-16
    80003e5e:	e406                	sd	ra,8(sp)
    80003e60:	e022                	sd	s0,0(sp)
    80003e62:	0800                	addi	s0,sp,16
    80003e64:	00000097          	auipc	ra,0x0
    80003e68:	ef4080e7          	jalr	-268(ra) # 80003d58 <r_sstatus>
    80003e6c:	87aa                	mv	a5,a0
    80003e6e:	0027e793          	ori	a5,a5,2
    80003e72:	853e                	mv	a0,a5
    80003e74:	00000097          	auipc	ra,0x0
    80003e78:	efe080e7          	jalr	-258(ra) # 80003d72 <w_sstatus>
    80003e7c:	0001                	nop
    80003e7e:	60a2                	ld	ra,8(sp)
    80003e80:	6402                	ld	s0,0(sp)
    80003e82:	0141                	addi	sp,sp,16
    80003e84:	8082                	ret

0000000080003e86 <intr_off>:
    80003e86:	1141                	addi	sp,sp,-16
    80003e88:	e406                	sd	ra,8(sp)
    80003e8a:	e022                	sd	s0,0(sp)
    80003e8c:	0800                	addi	s0,sp,16
    80003e8e:	00000097          	auipc	ra,0x0
    80003e92:	eca080e7          	jalr	-310(ra) # 80003d58 <r_sstatus>
    80003e96:	87aa                	mv	a5,a0
    80003e98:	9bf5                	andi	a5,a5,-3
    80003e9a:	853e                	mv	a0,a5
    80003e9c:	00000097          	auipc	ra,0x0
    80003ea0:	ed6080e7          	jalr	-298(ra) # 80003d72 <w_sstatus>
    80003ea4:	0001                	nop
    80003ea6:	60a2                	ld	ra,8(sp)
    80003ea8:	6402                	ld	s0,0(sp)
    80003eaa:	0141                	addi	sp,sp,16
    80003eac:	8082                	ret

0000000080003eae <intr_get>:
    80003eae:	1101                	addi	sp,sp,-32
    80003eb0:	ec06                	sd	ra,24(sp)
    80003eb2:	e822                	sd	s0,16(sp)
    80003eb4:	1000                	addi	s0,sp,32
    80003eb6:	00000097          	auipc	ra,0x0
    80003eba:	ea2080e7          	jalr	-350(ra) # 80003d58 <r_sstatus>
    80003ebe:	fea43423          	sd	a0,-24(s0)
    80003ec2:	fe843783          	ld	a5,-24(s0)
    80003ec6:	8b89                	andi	a5,a5,2
    80003ec8:	00f037b3          	snez	a5,a5
    80003ecc:	0ff7f793          	zext.b	a5,a5
    80003ed0:	2781                	sext.w	a5,a5
    80003ed2:	853e                	mv	a0,a5
    80003ed4:	60e2                	ld	ra,24(sp)
    80003ed6:	6442                	ld	s0,16(sp)
    80003ed8:	6105                	addi	sp,sp,32
    80003eda:	8082                	ret

0000000080003edc <r_tp>:
    80003edc:	1101                	addi	sp,sp,-32
    80003ede:	ec22                	sd	s0,24(sp)
    80003ee0:	1000                	addi	s0,sp,32
    80003ee2:	8792                	mv	a5,tp
    80003ee4:	fef43423          	sd	a5,-24(s0)
    80003ee8:	fe843783          	ld	a5,-24(s0)
    80003eec:	853e                	mv	a0,a5
    80003eee:	6462                	ld	s0,24(sp)
    80003ef0:	6105                	addi	sp,sp,32
    80003ef2:	8082                	ret

0000000080003ef4 <trapinit>:
    80003ef4:	1141                	addi	sp,sp,-16
    80003ef6:	e406                	sd	ra,8(sp)
    80003ef8:	e022                	sd	s0,0(sp)
    80003efa:	0800                	addi	s0,sp,16
    80003efc:	00008597          	auipc	a1,0x8
    80003f00:	3cc58593          	addi	a1,a1,972 # 8000c2c8 <etext+0x2c8>
    80003f04:	00018517          	auipc	a0,0x18
    80003f08:	86c50513          	addi	a0,a0,-1940 # 8001b770 <tickslock>
    80003f0c:	ffffd097          	auipc	ra,0xffffd
    80003f10:	396080e7          	jalr	918(ra) # 800012a2 <initlock>
    80003f14:	0001                	nop
    80003f16:	60a2                	ld	ra,8(sp)
    80003f18:	6402                	ld	s0,0(sp)
    80003f1a:	0141                	addi	sp,sp,16
    80003f1c:	8082                	ret

0000000080003f1e <trapinithart>:
    80003f1e:	1141                	addi	sp,sp,-16
    80003f20:	e406                	sd	ra,8(sp)
    80003f22:	e022                	sd	s0,0(sp)
    80003f24:	0800                	addi	s0,sp,16
    80003f26:	00005797          	auipc	a5,0x5
    80003f2a:	fea78793          	addi	a5,a5,-22 # 80008f10 <kernelvec>
    80003f2e:	853e                	mv	a0,a5
    80003f30:	00000097          	auipc	ra,0x0
    80003f34:	ec4080e7          	jalr	-316(ra) # 80003df4 <w_stvec>
    80003f38:	0001                	nop
    80003f3a:	60a2                	ld	ra,8(sp)
    80003f3c:	6402                	ld	s0,0(sp)
    80003f3e:	0141                	addi	sp,sp,16
    80003f40:	8082                	ret

0000000080003f42 <usertrap>:
    80003f42:	7179                	addi	sp,sp,-48
    80003f44:	f406                	sd	ra,40(sp)
    80003f46:	f022                	sd	s0,32(sp)
    80003f48:	ec26                	sd	s1,24(sp)
    80003f4a:	1800                	addi	s0,sp,48
    80003f4c:	fc042e23          	sw	zero,-36(s0)
    80003f50:	00000097          	auipc	ra,0x0
    80003f54:	e08080e7          	jalr	-504(ra) # 80003d58 <r_sstatus>
    80003f58:	87aa                	mv	a5,a0
    80003f5a:	1007f793          	andi	a5,a5,256
    80003f5e:	cb89                	beqz	a5,80003f70 <usertrap+0x2e>
    80003f60:	00008517          	auipc	a0,0x8
    80003f64:	37050513          	addi	a0,a0,880 # 8000c2d0 <etext+0x2d0>
    80003f68:	ffffd097          	auipc	ra,0xffffd
    80003f6c:	d36080e7          	jalr	-714(ra) # 80000c9e <panic>
    80003f70:	00005797          	auipc	a5,0x5
    80003f74:	fa078793          	addi	a5,a5,-96 # 80008f10 <kernelvec>
    80003f78:	853e                	mv	a0,a5
    80003f7a:	00000097          	auipc	ra,0x0
    80003f7e:	e7a080e7          	jalr	-390(ra) # 80003df4 <w_stvec>
    80003f82:	fffff097          	auipc	ra,0xfffff
    80003f86:	9d0080e7          	jalr	-1584(ra) # 80002952 <myproc>
    80003f8a:	fca43823          	sd	a0,-48(s0)
    80003f8e:	fd043783          	ld	a5,-48(s0)
    80003f92:	6fa4                	ld	s1,88(a5)
    80003f94:	00000097          	auipc	ra,0x0
    80003f98:	e46080e7          	jalr	-442(ra) # 80003dda <r_sepc>
    80003f9c:	87aa                	mv	a5,a0
    80003f9e:	ec9c                	sd	a5,24(s1)
    80003fa0:	00000097          	auipc	ra,0x0
    80003fa4:	e88080e7          	jalr	-376(ra) # 80003e28 <r_scause>
    80003fa8:	872a                	mv	a4,a0
    80003faa:	47a1                	li	a5,8
    80003fac:	02f71d63          	bne	a4,a5,80003fe6 <usertrap+0xa4>
    80003fb0:	fd043783          	ld	a5,-48(s0)
    80003fb4:	5b9c                	lw	a5,48(a5)
    80003fb6:	c791                	beqz	a5,80003fc2 <usertrap+0x80>
    80003fb8:	557d                	li	a0,-1
    80003fba:	fffff097          	auipc	ra,0xfffff
    80003fbe:	3da080e7          	jalr	986(ra) # 80003394 <exit>
    80003fc2:	fd043783          	ld	a5,-48(s0)
    80003fc6:	6fbc                	ld	a5,88(a5)
    80003fc8:	6f98                	ld	a4,24(a5)
    80003fca:	fd043783          	ld	a5,-48(s0)
    80003fce:	6fbc                	ld	a5,88(a5)
    80003fd0:	0711                	addi	a4,a4,4
    80003fd2:	ef98                	sd	a4,24(a5)
    80003fd4:	00000097          	auipc	ra,0x0
    80003fd8:	e88080e7          	jalr	-376(ra) # 80003e5c <intr_on>
    80003fdc:	00000097          	auipc	ra,0x0
    80003fe0:	67e080e7          	jalr	1662(ra) # 8000465a <syscall>
    80003fe4:	a0b5                	j	80004050 <usertrap+0x10e>
    80003fe6:	00000097          	auipc	ra,0x0
    80003fea:	346080e7          	jalr	838(ra) # 8000432c <devintr>
    80003fee:	87aa                	mv	a5,a0
    80003ff0:	fcf42e23          	sw	a5,-36(s0)
    80003ff4:	fdc42783          	lw	a5,-36(s0)
    80003ff8:	2781                	sext.w	a5,a5
    80003ffa:	ebb9                	bnez	a5,80004050 <usertrap+0x10e>
    80003ffc:	00000097          	auipc	ra,0x0
    80004000:	e2c080e7          	jalr	-468(ra) # 80003e28 <r_scause>
    80004004:	872a                	mv	a4,a0
    80004006:	fd043783          	ld	a5,-48(s0)
    8000400a:	5f9c                	lw	a5,56(a5)
    8000400c:	863e                	mv	a2,a5
    8000400e:	85ba                	mv	a1,a4
    80004010:	00008517          	auipc	a0,0x8
    80004014:	2e050513          	addi	a0,a0,736 # 8000c2f0 <etext+0x2f0>
    80004018:	ffffd097          	auipc	ra,0xffffd
    8000401c:	a30080e7          	jalr	-1488(ra) # 80000a48 <printf>
    80004020:	00000097          	auipc	ra,0x0
    80004024:	dba080e7          	jalr	-582(ra) # 80003dda <r_sepc>
    80004028:	84aa                	mv	s1,a0
    8000402a:	00000097          	auipc	ra,0x0
    8000402e:	e18080e7          	jalr	-488(ra) # 80003e42 <r_stval>
    80004032:	87aa                	mv	a5,a0
    80004034:	863e                	mv	a2,a5
    80004036:	85a6                	mv	a1,s1
    80004038:	00008517          	auipc	a0,0x8
    8000403c:	2e850513          	addi	a0,a0,744 # 8000c320 <etext+0x320>
    80004040:	ffffd097          	auipc	ra,0xffffd
    80004044:	a08080e7          	jalr	-1528(ra) # 80000a48 <printf>
    80004048:	fd043783          	ld	a5,-48(s0)
    8000404c:	4705                	li	a4,1
    8000404e:	db98                	sw	a4,48(a5)
    80004050:	fd043783          	ld	a5,-48(s0)
    80004054:	5b9c                	lw	a5,48(a5)
    80004056:	c791                	beqz	a5,80004062 <usertrap+0x120>
    80004058:	557d                	li	a0,-1
    8000405a:	fffff097          	auipc	ra,0xfffff
    8000405e:	33a080e7          	jalr	826(ra) # 80003394 <exit>
    80004062:	fdc42783          	lw	a5,-36(s0)
    80004066:	0007871b          	sext.w	a4,a5
    8000406a:	4789                	li	a5,2
    8000406c:	00f71663          	bne	a4,a5,80004078 <usertrap+0x136>
    80004070:	00000097          	auipc	ra,0x0
    80004074:	808080e7          	jalr	-2040(ra) # 80003878 <yield>
    80004078:	00000097          	auipc	ra,0x0
    8000407c:	014080e7          	jalr	20(ra) # 8000408c <usertrapret>
    80004080:	0001                	nop
    80004082:	70a2                	ld	ra,40(sp)
    80004084:	7402                	ld	s0,32(sp)
    80004086:	64e2                	ld	s1,24(sp)
    80004088:	6145                	addi	sp,sp,48
    8000408a:	8082                	ret

000000008000408c <usertrapret>:
    8000408c:	7139                	addi	sp,sp,-64
    8000408e:	fc06                	sd	ra,56(sp)
    80004090:	f822                	sd	s0,48(sp)
    80004092:	f426                	sd	s1,40(sp)
    80004094:	0080                	addi	s0,sp,64
    80004096:	fffff097          	auipc	ra,0xfffff
    8000409a:	8bc080e7          	jalr	-1860(ra) # 80002952 <myproc>
    8000409e:	fca43c23          	sd	a0,-40(s0)
    800040a2:	00000097          	auipc	ra,0x0
    800040a6:	de4080e7          	jalr	-540(ra) # 80003e86 <intr_off>
    800040aa:	00007717          	auipc	a4,0x7
    800040ae:	f5670713          	addi	a4,a4,-170 # 8000b000 <_trampoline>
    800040b2:	00007797          	auipc	a5,0x7
    800040b6:	f4e78793          	addi	a5,a5,-178 # 8000b000 <_trampoline>
    800040ba:	8f1d                	sub	a4,a4,a5
    800040bc:	040007b7          	lui	a5,0x4000
    800040c0:	17fd                	addi	a5,a5,-1 # 3ffffff <_entry-0x7c000001>
    800040c2:	07b2                	slli	a5,a5,0xc
    800040c4:	97ba                	add	a5,a5,a4
    800040c6:	853e                	mv	a0,a5
    800040c8:	00000097          	auipc	ra,0x0
    800040cc:	d2c080e7          	jalr	-724(ra) # 80003df4 <w_stvec>
    800040d0:	fd843783          	ld	a5,-40(s0)
    800040d4:	6fa4                	ld	s1,88(a5)
    800040d6:	00000097          	auipc	ra,0x0
    800040da:	d38080e7          	jalr	-712(ra) # 80003e0e <r_satp>
    800040de:	87aa                	mv	a5,a0
    800040e0:	e09c                	sd	a5,0(s1)
    800040e2:	fd843783          	ld	a5,-40(s0)
    800040e6:	63b4                	ld	a3,64(a5)
    800040e8:	fd843783          	ld	a5,-40(s0)
    800040ec:	6fbc                	ld	a5,88(a5)
    800040ee:	6705                	lui	a4,0x1
    800040f0:	9736                	add	a4,a4,a3
    800040f2:	e798                	sd	a4,8(a5)
    800040f4:	fd843783          	ld	a5,-40(s0)
    800040f8:	6fbc                	ld	a5,88(a5)
    800040fa:	00000717          	auipc	a4,0x0
    800040fe:	e4870713          	addi	a4,a4,-440 # 80003f42 <usertrap>
    80004102:	eb98                	sd	a4,16(a5)
    80004104:	fd843783          	ld	a5,-40(s0)
    80004108:	6fa4                	ld	s1,88(a5)
    8000410a:	00000097          	auipc	ra,0x0
    8000410e:	dd2080e7          	jalr	-558(ra) # 80003edc <r_tp>
    80004112:	87aa                	mv	a5,a0
    80004114:	f09c                	sd	a5,32(s1)
    80004116:	00000097          	auipc	ra,0x0
    8000411a:	c42080e7          	jalr	-958(ra) # 80003d58 <r_sstatus>
    8000411e:	fca43823          	sd	a0,-48(s0)
    80004122:	fd043783          	ld	a5,-48(s0)
    80004126:	eff7f793          	andi	a5,a5,-257
    8000412a:	fcf43823          	sd	a5,-48(s0)
    8000412e:	fd043783          	ld	a5,-48(s0)
    80004132:	0207e793          	ori	a5,a5,32
    80004136:	fcf43823          	sd	a5,-48(s0)
    8000413a:	fd043503          	ld	a0,-48(s0)
    8000413e:	00000097          	auipc	ra,0x0
    80004142:	c34080e7          	jalr	-972(ra) # 80003d72 <w_sstatus>
    80004146:	fd843783          	ld	a5,-40(s0)
    8000414a:	6fbc                	ld	a5,88(a5)
    8000414c:	6f9c                	ld	a5,24(a5)
    8000414e:	853e                	mv	a0,a5
    80004150:	00000097          	auipc	ra,0x0
    80004154:	c70080e7          	jalr	-912(ra) # 80003dc0 <w_sepc>
    80004158:	fd843783          	ld	a5,-40(s0)
    8000415c:	6bbc                	ld	a5,80(a5)
    8000415e:	00c7d713          	srli	a4,a5,0xc
    80004162:	57fd                	li	a5,-1
    80004164:	17fe                	slli	a5,a5,0x3f
    80004166:	8fd9                	or	a5,a5,a4
    80004168:	fcf43423          	sd	a5,-56(s0)
    8000416c:	00007717          	auipc	a4,0x7
    80004170:	f1c70713          	addi	a4,a4,-228 # 8000b088 <userret>
    80004174:	00007797          	auipc	a5,0x7
    80004178:	e8c78793          	addi	a5,a5,-372 # 8000b000 <_trampoline>
    8000417c:	8f1d                	sub	a4,a4,a5
    8000417e:	040007b7          	lui	a5,0x4000
    80004182:	17fd                	addi	a5,a5,-1 # 3ffffff <_entry-0x7c000001>
    80004184:	07b2                	slli	a5,a5,0xc
    80004186:	97ba                	add	a5,a5,a4
    80004188:	fcf43023          	sd	a5,-64(s0)
    8000418c:	fc043783          	ld	a5,-64(s0)
    80004190:	fc843583          	ld	a1,-56(s0)
    80004194:	02000737          	lui	a4,0x2000
    80004198:	177d                	addi	a4,a4,-1 # 1ffffff <_entry-0x7e000001>
    8000419a:	00d71513          	slli	a0,a4,0xd
    8000419e:	9782                	jalr	a5
    800041a0:	0001                	nop
    800041a2:	70e2                	ld	ra,56(sp)
    800041a4:	7442                	ld	s0,48(sp)
    800041a6:	74a2                	ld	s1,40(sp)
    800041a8:	6121                	addi	sp,sp,64
    800041aa:	8082                	ret

00000000800041ac <kerneltrap>:
    800041ac:	7139                	addi	sp,sp,-64
    800041ae:	fc06                	sd	ra,56(sp)
    800041b0:	f822                	sd	s0,48(sp)
    800041b2:	f426                	sd	s1,40(sp)
    800041b4:	0080                	addi	s0,sp,64
    800041b6:	fc042e23          	sw	zero,-36(s0)
    800041ba:	00000097          	auipc	ra,0x0
    800041be:	c20080e7          	jalr	-992(ra) # 80003dda <r_sepc>
    800041c2:	fca43823          	sd	a0,-48(s0)
    800041c6:	00000097          	auipc	ra,0x0
    800041ca:	b92080e7          	jalr	-1134(ra) # 80003d58 <r_sstatus>
    800041ce:	fca43423          	sd	a0,-56(s0)
    800041d2:	00000097          	auipc	ra,0x0
    800041d6:	c56080e7          	jalr	-938(ra) # 80003e28 <r_scause>
    800041da:	fca43023          	sd	a0,-64(s0)
    800041de:	fc843783          	ld	a5,-56(s0)
    800041e2:	1007f793          	andi	a5,a5,256
    800041e6:	eb89                	bnez	a5,800041f8 <kerneltrap+0x4c>
    800041e8:	00008517          	auipc	a0,0x8
    800041ec:	15850513          	addi	a0,a0,344 # 8000c340 <etext+0x340>
    800041f0:	ffffd097          	auipc	ra,0xffffd
    800041f4:	aae080e7          	jalr	-1362(ra) # 80000c9e <panic>
    800041f8:	00000097          	auipc	ra,0x0
    800041fc:	cb6080e7          	jalr	-842(ra) # 80003eae <intr_get>
    80004200:	87aa                	mv	a5,a0
    80004202:	cb89                	beqz	a5,80004214 <kerneltrap+0x68>
    80004204:	00008517          	auipc	a0,0x8
    80004208:	16450513          	addi	a0,a0,356 # 8000c368 <etext+0x368>
    8000420c:	ffffd097          	auipc	ra,0xffffd
    80004210:	a92080e7          	jalr	-1390(ra) # 80000c9e <panic>
    80004214:	00000097          	auipc	ra,0x0
    80004218:	118080e7          	jalr	280(ra) # 8000432c <devintr>
    8000421c:	87aa                	mv	a5,a0
    8000421e:	fcf42e23          	sw	a5,-36(s0)
    80004222:	fdc42783          	lw	a5,-36(s0)
    80004226:	2781                	sext.w	a5,a5
    80004228:	e7b9                	bnez	a5,80004276 <kerneltrap+0xca>
    8000422a:	fc043583          	ld	a1,-64(s0)
    8000422e:	00008517          	auipc	a0,0x8
    80004232:	15a50513          	addi	a0,a0,346 # 8000c388 <etext+0x388>
    80004236:	ffffd097          	auipc	ra,0xffffd
    8000423a:	812080e7          	jalr	-2030(ra) # 80000a48 <printf>
    8000423e:	00000097          	auipc	ra,0x0
    80004242:	b9c080e7          	jalr	-1124(ra) # 80003dda <r_sepc>
    80004246:	84aa                	mv	s1,a0
    80004248:	00000097          	auipc	ra,0x0
    8000424c:	bfa080e7          	jalr	-1030(ra) # 80003e42 <r_stval>
    80004250:	87aa                	mv	a5,a0
    80004252:	863e                	mv	a2,a5
    80004254:	85a6                	mv	a1,s1
    80004256:	00008517          	auipc	a0,0x8
    8000425a:	14250513          	addi	a0,a0,322 # 8000c398 <etext+0x398>
    8000425e:	ffffc097          	auipc	ra,0xffffc
    80004262:	7ea080e7          	jalr	2026(ra) # 80000a48 <printf>
    80004266:	00008517          	auipc	a0,0x8
    8000426a:	14a50513          	addi	a0,a0,330 # 8000c3b0 <etext+0x3b0>
    8000426e:	ffffd097          	auipc	ra,0xffffd
    80004272:	a30080e7          	jalr	-1488(ra) # 80000c9e <panic>
    80004276:	fdc42783          	lw	a5,-36(s0)
    8000427a:	0007871b          	sext.w	a4,a5
    8000427e:	4789                	li	a5,2
    80004280:	02f71663          	bne	a4,a5,800042ac <kerneltrap+0x100>
    80004284:	ffffe097          	auipc	ra,0xffffe
    80004288:	6ce080e7          	jalr	1742(ra) # 80002952 <myproc>
    8000428c:	87aa                	mv	a5,a0
    8000428e:	cf99                	beqz	a5,800042ac <kerneltrap+0x100>
    80004290:	ffffe097          	auipc	ra,0xffffe
    80004294:	6c2080e7          	jalr	1730(ra) # 80002952 <myproc>
    80004298:	87aa                	mv	a5,a0
    8000429a:	4f9c                	lw	a5,24(a5)
    8000429c:	873e                	mv	a4,a5
    8000429e:	478d                	li	a5,3
    800042a0:	00f71663          	bne	a4,a5,800042ac <kerneltrap+0x100>
    800042a4:	fffff097          	auipc	ra,0xfffff
    800042a8:	5d4080e7          	jalr	1492(ra) # 80003878 <yield>
    800042ac:	fd043503          	ld	a0,-48(s0)
    800042b0:	00000097          	auipc	ra,0x0
    800042b4:	b10080e7          	jalr	-1264(ra) # 80003dc0 <w_sepc>
    800042b8:	fc843503          	ld	a0,-56(s0)
    800042bc:	00000097          	auipc	ra,0x0
    800042c0:	ab6080e7          	jalr	-1354(ra) # 80003d72 <w_sstatus>
    800042c4:	0001                	nop
    800042c6:	70e2                	ld	ra,56(sp)
    800042c8:	7442                	ld	s0,48(sp)
    800042ca:	74a2                	ld	s1,40(sp)
    800042cc:	6121                	addi	sp,sp,64
    800042ce:	8082                	ret

00000000800042d0 <clockintr>:
    800042d0:	1141                	addi	sp,sp,-16
    800042d2:	e406                	sd	ra,8(sp)
    800042d4:	e022                	sd	s0,0(sp)
    800042d6:	0800                	addi	s0,sp,16
    800042d8:	00017517          	auipc	a0,0x17
    800042dc:	49850513          	addi	a0,a0,1176 # 8001b770 <tickslock>
    800042e0:	ffffd097          	auipc	ra,0xffffd
    800042e4:	ff2080e7          	jalr	-14(ra) # 800012d2 <acquire>
    800042e8:	00009797          	auipc	a5,0x9
    800042ec:	d3878793          	addi	a5,a5,-712 # 8000d020 <ticks>
    800042f0:	439c                	lw	a5,0(a5)
    800042f2:	2785                	addiw	a5,a5,1
    800042f4:	0007871b          	sext.w	a4,a5
    800042f8:	00009797          	auipc	a5,0x9
    800042fc:	d2878793          	addi	a5,a5,-728 # 8000d020 <ticks>
    80004300:	c398                	sw	a4,0(a5)
    80004302:	00009517          	auipc	a0,0x9
    80004306:	d1e50513          	addi	a0,a0,-738 # 8000d020 <ticks>
    8000430a:	fffff097          	auipc	ra,0xfffff
    8000430e:	69c080e7          	jalr	1692(ra) # 800039a6 <wakeup>
    80004312:	00017517          	auipc	a0,0x17
    80004316:	45e50513          	addi	a0,a0,1118 # 8001b770 <tickslock>
    8000431a:	ffffd097          	auipc	ra,0xffffd
    8000431e:	01c080e7          	jalr	28(ra) # 80001336 <release>
    80004322:	0001                	nop
    80004324:	60a2                	ld	ra,8(sp)
    80004326:	6402                	ld	s0,0(sp)
    80004328:	0141                	addi	sp,sp,16
    8000432a:	8082                	ret

000000008000432c <devintr>:
    8000432c:	1101                	addi	sp,sp,-32
    8000432e:	ec06                	sd	ra,24(sp)
    80004330:	e822                	sd	s0,16(sp)
    80004332:	1000                	addi	s0,sp,32
    80004334:	00000097          	auipc	ra,0x0
    80004338:	af4080e7          	jalr	-1292(ra) # 80003e28 <r_scause>
    8000433c:	fea43423          	sd	a0,-24(s0)
    80004340:	fe843783          	ld	a5,-24(s0)
    80004344:	0807d463          	bgez	a5,800043cc <devintr+0xa0>
    80004348:	fe843783          	ld	a5,-24(s0)
    8000434c:	0ff7f713          	zext.b	a4,a5
    80004350:	47a5                	li	a5,9
    80004352:	06f71d63          	bne	a4,a5,800043cc <devintr+0xa0>
    80004356:	00005097          	auipc	ra,0x5
    8000435a:	cec080e7          	jalr	-788(ra) # 80009042 <plic_claim>
    8000435e:	87aa                	mv	a5,a0
    80004360:	fef42223          	sw	a5,-28(s0)
    80004364:	fe442783          	lw	a5,-28(s0)
    80004368:	0007871b          	sext.w	a4,a5
    8000436c:	47a9                	li	a5,10
    8000436e:	00f71763          	bne	a4,a5,8000437c <devintr+0x50>
    80004372:	ffffd097          	auipc	ra,0xffffd
    80004376:	c68080e7          	jalr	-920(ra) # 80000fda <uartintr>
    8000437a:	a825                	j	800043b2 <devintr+0x86>
    8000437c:	fe442783          	lw	a5,-28(s0)
    80004380:	0007871b          	sext.w	a4,a5
    80004384:	4785                	li	a5,1
    80004386:	00f71763          	bne	a4,a5,80004394 <devintr+0x68>
    8000438a:	00005097          	auipc	ra,0x5
    8000438e:	568080e7          	jalr	1384(ra) # 800098f2 <virtio_disk_intr>
    80004392:	a005                	j	800043b2 <devintr+0x86>
    80004394:	fe442783          	lw	a5,-28(s0)
    80004398:	2781                	sext.w	a5,a5
    8000439a:	cf81                	beqz	a5,800043b2 <devintr+0x86>
    8000439c:	fe442783          	lw	a5,-28(s0)
    800043a0:	85be                	mv	a1,a5
    800043a2:	00008517          	auipc	a0,0x8
    800043a6:	01e50513          	addi	a0,a0,30 # 8000c3c0 <etext+0x3c0>
    800043aa:	ffffc097          	auipc	ra,0xffffc
    800043ae:	69e080e7          	jalr	1694(ra) # 80000a48 <printf>
    800043b2:	fe442783          	lw	a5,-28(s0)
    800043b6:	2781                	sext.w	a5,a5
    800043b8:	cb81                	beqz	a5,800043c8 <devintr+0x9c>
    800043ba:	fe442783          	lw	a5,-28(s0)
    800043be:	853e                	mv	a0,a5
    800043c0:	00005097          	auipc	ra,0x5
    800043c4:	cc0080e7          	jalr	-832(ra) # 80009080 <plic_complete>
    800043c8:	4785                	li	a5,1
    800043ca:	a081                	j	8000440a <devintr+0xde>
    800043cc:	fe843703          	ld	a4,-24(s0)
    800043d0:	57fd                	li	a5,-1
    800043d2:	17fe                	slli	a5,a5,0x3f
    800043d4:	0785                	addi	a5,a5,1
    800043d6:	02f71963          	bne	a4,a5,80004408 <devintr+0xdc>
    800043da:	ffffe097          	auipc	ra,0xffffe
    800043de:	51a080e7          	jalr	1306(ra) # 800028f4 <cpuid>
    800043e2:	87aa                	mv	a5,a0
    800043e4:	e789                	bnez	a5,800043ee <devintr+0xc2>
    800043e6:	00000097          	auipc	ra,0x0
    800043ea:	eea080e7          	jalr	-278(ra) # 800042d0 <clockintr>
    800043ee:	00000097          	auipc	ra,0x0
    800043f2:	99e080e7          	jalr	-1634(ra) # 80003d8c <r_sip>
    800043f6:	87aa                	mv	a5,a0
    800043f8:	9bf5                	andi	a5,a5,-3
    800043fa:	853e                	mv	a0,a5
    800043fc:	00000097          	auipc	ra,0x0
    80004400:	9aa080e7          	jalr	-1622(ra) # 80003da6 <w_sip>
    80004404:	4789                	li	a5,2
    80004406:	a011                	j	8000440a <devintr+0xde>
    80004408:	4781                	li	a5,0
    8000440a:	853e                	mv	a0,a5
    8000440c:	60e2                	ld	ra,24(sp)
    8000440e:	6442                	ld	s0,16(sp)
    80004410:	6105                	addi	sp,sp,32
    80004412:	8082                	ret

0000000080004414 <fetchaddr>:
    80004414:	7179                	addi	sp,sp,-48
    80004416:	f406                	sd	ra,40(sp)
    80004418:	f022                	sd	s0,32(sp)
    8000441a:	1800                	addi	s0,sp,48
    8000441c:	fca43c23          	sd	a0,-40(s0)
    80004420:	fcb43823          	sd	a1,-48(s0)
    80004424:	ffffe097          	auipc	ra,0xffffe
    80004428:	52e080e7          	jalr	1326(ra) # 80002952 <myproc>
    8000442c:	fea43423          	sd	a0,-24(s0)
    80004430:	fe843783          	ld	a5,-24(s0)
    80004434:	67bc                	ld	a5,72(a5)
    80004436:	fd843703          	ld	a4,-40(s0)
    8000443a:	00f77b63          	bgeu	a4,a5,80004450 <fetchaddr+0x3c>
    8000443e:	fd843783          	ld	a5,-40(s0)
    80004442:	00878713          	addi	a4,a5,8
    80004446:	fe843783          	ld	a5,-24(s0)
    8000444a:	67bc                	ld	a5,72(a5)
    8000444c:	00e7f463          	bgeu	a5,a4,80004454 <fetchaddr+0x40>
    80004450:	57fd                	li	a5,-1
    80004452:	a01d                	j	80004478 <fetchaddr+0x64>
    80004454:	fe843783          	ld	a5,-24(s0)
    80004458:	6bbc                	ld	a5,80(a5)
    8000445a:	46a1                	li	a3,8
    8000445c:	fd843603          	ld	a2,-40(s0)
    80004460:	fd043583          	ld	a1,-48(s0)
    80004464:	853e                	mv	a0,a5
    80004466:	ffffe097          	auipc	ra,0xffffe
    8000446a:	0d0080e7          	jalr	208(ra) # 80002536 <copyin>
    8000446e:	87aa                	mv	a5,a0
    80004470:	c399                	beqz	a5,80004476 <fetchaddr+0x62>
    80004472:	57fd                	li	a5,-1
    80004474:	a011                	j	80004478 <fetchaddr+0x64>
    80004476:	4781                	li	a5,0
    80004478:	853e                	mv	a0,a5
    8000447a:	70a2                	ld	ra,40(sp)
    8000447c:	7402                	ld	s0,32(sp)
    8000447e:	6145                	addi	sp,sp,48
    80004480:	8082                	ret

0000000080004482 <fetchstr>:
    80004482:	7139                	addi	sp,sp,-64
    80004484:	fc06                	sd	ra,56(sp)
    80004486:	f822                	sd	s0,48(sp)
    80004488:	0080                	addi	s0,sp,64
    8000448a:	fca43c23          	sd	a0,-40(s0)
    8000448e:	fcb43823          	sd	a1,-48(s0)
    80004492:	87b2                	mv	a5,a2
    80004494:	fcf42623          	sw	a5,-52(s0)
    80004498:	ffffe097          	auipc	ra,0xffffe
    8000449c:	4ba080e7          	jalr	1210(ra) # 80002952 <myproc>
    800044a0:	fea43423          	sd	a0,-24(s0)
    800044a4:	fe843783          	ld	a5,-24(s0)
    800044a8:	6bbc                	ld	a5,80(a5)
    800044aa:	fcc42703          	lw	a4,-52(s0)
    800044ae:	86ba                	mv	a3,a4
    800044b0:	fd843603          	ld	a2,-40(s0)
    800044b4:	fd043583          	ld	a1,-48(s0)
    800044b8:	853e                	mv	a0,a5
    800044ba:	ffffe097          	auipc	ra,0xffffe
    800044be:	14a080e7          	jalr	330(ra) # 80002604 <copyinstr>
    800044c2:	87aa                	mv	a5,a0
    800044c4:	fef42223          	sw	a5,-28(s0)
    800044c8:	fe442783          	lw	a5,-28(s0)
    800044cc:	2781                	sext.w	a5,a5
    800044ce:	0007d563          	bgez	a5,800044d8 <fetchstr+0x56>
    800044d2:	fe442783          	lw	a5,-28(s0)
    800044d6:	a801                	j	800044e6 <fetchstr+0x64>
    800044d8:	fd043503          	ld	a0,-48(s0)
    800044dc:	ffffd097          	auipc	ra,0xffffd
    800044e0:	33c080e7          	jalr	828(ra) # 80001818 <strlen>
    800044e4:	87aa                	mv	a5,a0
    800044e6:	853e                	mv	a0,a5
    800044e8:	70e2                	ld	ra,56(sp)
    800044ea:	7442                	ld	s0,48(sp)
    800044ec:	6121                	addi	sp,sp,64
    800044ee:	8082                	ret

00000000800044f0 <argraw>:
    800044f0:	7179                	addi	sp,sp,-48
    800044f2:	f406                	sd	ra,40(sp)
    800044f4:	f022                	sd	s0,32(sp)
    800044f6:	1800                	addi	s0,sp,48
    800044f8:	87aa                	mv	a5,a0
    800044fa:	fcf42e23          	sw	a5,-36(s0)
    800044fe:	ffffe097          	auipc	ra,0xffffe
    80004502:	454080e7          	jalr	1108(ra) # 80002952 <myproc>
    80004506:	fea43423          	sd	a0,-24(s0)
    8000450a:	fdc42783          	lw	a5,-36(s0)
    8000450e:	0007871b          	sext.w	a4,a5
    80004512:	4795                	li	a5,5
    80004514:	06e7e263          	bltu	a5,a4,80004578 <argraw+0x88>
    80004518:	fdc46783          	lwu	a5,-36(s0)
    8000451c:	00279713          	slli	a4,a5,0x2
    80004520:	00008797          	auipc	a5,0x8
    80004524:	ec878793          	addi	a5,a5,-312 # 8000c3e8 <etext+0x3e8>
    80004528:	97ba                	add	a5,a5,a4
    8000452a:	439c                	lw	a5,0(a5)
    8000452c:	0007871b          	sext.w	a4,a5
    80004530:	00008797          	auipc	a5,0x8
    80004534:	eb878793          	addi	a5,a5,-328 # 8000c3e8 <etext+0x3e8>
    80004538:	97ba                	add	a5,a5,a4
    8000453a:	8782                	jr	a5
    8000453c:	fe843783          	ld	a5,-24(s0)
    80004540:	6fbc                	ld	a5,88(a5)
    80004542:	7bbc                	ld	a5,112(a5)
    80004544:	a091                	j	80004588 <argraw+0x98>
    80004546:	fe843783          	ld	a5,-24(s0)
    8000454a:	6fbc                	ld	a5,88(a5)
    8000454c:	7fbc                	ld	a5,120(a5)
    8000454e:	a82d                	j	80004588 <argraw+0x98>
    80004550:	fe843783          	ld	a5,-24(s0)
    80004554:	6fbc                	ld	a5,88(a5)
    80004556:	63dc                	ld	a5,128(a5)
    80004558:	a805                	j	80004588 <argraw+0x98>
    8000455a:	fe843783          	ld	a5,-24(s0)
    8000455e:	6fbc                	ld	a5,88(a5)
    80004560:	67dc                	ld	a5,136(a5)
    80004562:	a01d                	j	80004588 <argraw+0x98>
    80004564:	fe843783          	ld	a5,-24(s0)
    80004568:	6fbc                	ld	a5,88(a5)
    8000456a:	6bdc                	ld	a5,144(a5)
    8000456c:	a831                	j	80004588 <argraw+0x98>
    8000456e:	fe843783          	ld	a5,-24(s0)
    80004572:	6fbc                	ld	a5,88(a5)
    80004574:	6fdc                	ld	a5,152(a5)
    80004576:	a809                	j	80004588 <argraw+0x98>
    80004578:	00008517          	auipc	a0,0x8
    8000457c:	e6850513          	addi	a0,a0,-408 # 8000c3e0 <etext+0x3e0>
    80004580:	ffffc097          	auipc	ra,0xffffc
    80004584:	71e080e7          	jalr	1822(ra) # 80000c9e <panic>
    80004588:	853e                	mv	a0,a5
    8000458a:	70a2                	ld	ra,40(sp)
    8000458c:	7402                	ld	s0,32(sp)
    8000458e:	6145                	addi	sp,sp,48
    80004590:	8082                	ret

0000000080004592 <argint>:
    80004592:	1101                	addi	sp,sp,-32
    80004594:	ec06                	sd	ra,24(sp)
    80004596:	e822                	sd	s0,16(sp)
    80004598:	1000                	addi	s0,sp,32
    8000459a:	87aa                	mv	a5,a0
    8000459c:	feb43023          	sd	a1,-32(s0)
    800045a0:	fef42623          	sw	a5,-20(s0)
    800045a4:	fec42783          	lw	a5,-20(s0)
    800045a8:	853e                	mv	a0,a5
    800045aa:	00000097          	auipc	ra,0x0
    800045ae:	f46080e7          	jalr	-186(ra) # 800044f0 <argraw>
    800045b2:	87aa                	mv	a5,a0
    800045b4:	0007871b          	sext.w	a4,a5
    800045b8:	fe043783          	ld	a5,-32(s0)
    800045bc:	c398                	sw	a4,0(a5)
    800045be:	4781                	li	a5,0
    800045c0:	853e                	mv	a0,a5
    800045c2:	60e2                	ld	ra,24(sp)
    800045c4:	6442                	ld	s0,16(sp)
    800045c6:	6105                	addi	sp,sp,32
    800045c8:	8082                	ret

00000000800045ca <argaddr>:
    800045ca:	1101                	addi	sp,sp,-32
    800045cc:	ec06                	sd	ra,24(sp)
    800045ce:	e822                	sd	s0,16(sp)
    800045d0:	1000                	addi	s0,sp,32
    800045d2:	87aa                	mv	a5,a0
    800045d4:	feb43023          	sd	a1,-32(s0)
    800045d8:	fef42623          	sw	a5,-20(s0)
    800045dc:	fec42783          	lw	a5,-20(s0)
    800045e0:	853e                	mv	a0,a5
    800045e2:	00000097          	auipc	ra,0x0
    800045e6:	f0e080e7          	jalr	-242(ra) # 800044f0 <argraw>
    800045ea:	872a                	mv	a4,a0
    800045ec:	fe043783          	ld	a5,-32(s0)
    800045f0:	e398                	sd	a4,0(a5)
    800045f2:	4781                	li	a5,0
    800045f4:	853e                	mv	a0,a5
    800045f6:	60e2                	ld	ra,24(sp)
    800045f8:	6442                	ld	s0,16(sp)
    800045fa:	6105                	addi	sp,sp,32
    800045fc:	8082                	ret

00000000800045fe <argstr>:
    800045fe:	7179                	addi	sp,sp,-48
    80004600:	f406                	sd	ra,40(sp)
    80004602:	f022                	sd	s0,32(sp)
    80004604:	1800                	addi	s0,sp,48
    80004606:	87aa                	mv	a5,a0
    80004608:	fcb43823          	sd	a1,-48(s0)
    8000460c:	8732                	mv	a4,a2
    8000460e:	fcf42e23          	sw	a5,-36(s0)
    80004612:	87ba                	mv	a5,a4
    80004614:	fcf42c23          	sw	a5,-40(s0)
    80004618:	fe840713          	addi	a4,s0,-24
    8000461c:	fdc42783          	lw	a5,-36(s0)
    80004620:	85ba                	mv	a1,a4
    80004622:	853e                	mv	a0,a5
    80004624:	00000097          	auipc	ra,0x0
    80004628:	fa6080e7          	jalr	-90(ra) # 800045ca <argaddr>
    8000462c:	87aa                	mv	a5,a0
    8000462e:	0007d463          	bgez	a5,80004636 <argstr+0x38>
    80004632:	57fd                	li	a5,-1
    80004634:	a831                	j	80004650 <argstr+0x52>
    80004636:	fe843783          	ld	a5,-24(s0)
    8000463a:	fd842703          	lw	a4,-40(s0)
    8000463e:	863a                	mv	a2,a4
    80004640:	fd043583          	ld	a1,-48(s0)
    80004644:	853e                	mv	a0,a5
    80004646:	00000097          	auipc	ra,0x0
    8000464a:	e3c080e7          	jalr	-452(ra) # 80004482 <fetchstr>
    8000464e:	87aa                	mv	a5,a0
    80004650:	853e                	mv	a0,a5
    80004652:	70a2                	ld	ra,40(sp)
    80004654:	7402                	ld	s0,32(sp)
    80004656:	6145                	addi	sp,sp,48
    80004658:	8082                	ret

000000008000465a <syscall>:
    8000465a:	7179                	addi	sp,sp,-48
    8000465c:	f406                	sd	ra,40(sp)
    8000465e:	f022                	sd	s0,32(sp)
    80004660:	ec26                	sd	s1,24(sp)
    80004662:	1800                	addi	s0,sp,48
    80004664:	ffffe097          	auipc	ra,0xffffe
    80004668:	2ee080e7          	jalr	750(ra) # 80002952 <myproc>
    8000466c:	fca43c23          	sd	a0,-40(s0)
    80004670:	fd843783          	ld	a5,-40(s0)
    80004674:	6fbc                	ld	a5,88(a5)
    80004676:	77dc                	ld	a5,168(a5)
    80004678:	fcf42a23          	sw	a5,-44(s0)
    8000467c:	fd442783          	lw	a5,-44(s0)
    80004680:	2781                	sext.w	a5,a5
    80004682:	04f05263          	blez	a5,800046c6 <syscall+0x6c>
    80004686:	fd442783          	lw	a5,-44(s0)
    8000468a:	873e                	mv	a4,a5
    8000468c:	47d9                	li	a5,22
    8000468e:	02e7ec63          	bltu	a5,a4,800046c6 <syscall+0x6c>
    80004692:	00008717          	auipc	a4,0x8
    80004696:	25670713          	addi	a4,a4,598 # 8000c8e8 <syscalls>
    8000469a:	fd442783          	lw	a5,-44(s0)
    8000469e:	078e                	slli	a5,a5,0x3
    800046a0:	97ba                	add	a5,a5,a4
    800046a2:	639c                	ld	a5,0(a5)
    800046a4:	c38d                	beqz	a5,800046c6 <syscall+0x6c>
    800046a6:	00008717          	auipc	a4,0x8
    800046aa:	24270713          	addi	a4,a4,578 # 8000c8e8 <syscalls>
    800046ae:	fd442783          	lw	a5,-44(s0)
    800046b2:	078e                	slli	a5,a5,0x3
    800046b4:	97ba                	add	a5,a5,a4
    800046b6:	639c                	ld	a5,0(a5)
    800046b8:	fd843703          	ld	a4,-40(s0)
    800046bc:	6f24                	ld	s1,88(a4)
    800046be:	9782                	jalr	a5
    800046c0:	87aa                	mv	a5,a0
    800046c2:	f8bc                	sd	a5,112(s1)
    800046c4:	a815                	j	800046f8 <syscall+0x9e>
    800046c6:	fd843783          	ld	a5,-40(s0)
    800046ca:	5f98                	lw	a4,56(a5)
    800046cc:	fd843783          	ld	a5,-40(s0)
    800046d0:	15878793          	addi	a5,a5,344
    800046d4:	fd442683          	lw	a3,-44(s0)
    800046d8:	863e                	mv	a2,a5
    800046da:	85ba                	mv	a1,a4
    800046dc:	00008517          	auipc	a0,0x8
    800046e0:	d2450513          	addi	a0,a0,-732 # 8000c400 <etext+0x400>
    800046e4:	ffffc097          	auipc	ra,0xffffc
    800046e8:	364080e7          	jalr	868(ra) # 80000a48 <printf>
    800046ec:	fd843783          	ld	a5,-40(s0)
    800046f0:	6fbc                	ld	a5,88(a5)
    800046f2:	577d                	li	a4,-1
    800046f4:	fbb8                	sd	a4,112(a5)
    800046f6:	0001                	nop
    800046f8:	0001                	nop
    800046fa:	70a2                	ld	ra,40(sp)
    800046fc:	7402                	ld	s0,32(sp)
    800046fe:	64e2                	ld	s1,24(sp)
    80004700:	6145                	addi	sp,sp,48
    80004702:	8082                	ret

0000000080004704 <sys_exit>:
    80004704:	1101                	addi	sp,sp,-32
    80004706:	ec06                	sd	ra,24(sp)
    80004708:	e822                	sd	s0,16(sp)
    8000470a:	1000                	addi	s0,sp,32
    8000470c:	fec40793          	addi	a5,s0,-20
    80004710:	85be                	mv	a1,a5
    80004712:	4501                	li	a0,0
    80004714:	00000097          	auipc	ra,0x0
    80004718:	e7e080e7          	jalr	-386(ra) # 80004592 <argint>
    8000471c:	87aa                	mv	a5,a0
    8000471e:	0007d463          	bgez	a5,80004726 <sys_exit+0x22>
    80004722:	57fd                	li	a5,-1
    80004724:	a809                	j	80004736 <sys_exit+0x32>
    80004726:	fec42783          	lw	a5,-20(s0)
    8000472a:	853e                	mv	a0,a5
    8000472c:	fffff097          	auipc	ra,0xfffff
    80004730:	c68080e7          	jalr	-920(ra) # 80003394 <exit>
    80004734:	4781                	li	a5,0
    80004736:	853e                	mv	a0,a5
    80004738:	60e2                	ld	ra,24(sp)
    8000473a:	6442                	ld	s0,16(sp)
    8000473c:	6105                	addi	sp,sp,32
    8000473e:	8082                	ret

0000000080004740 <sys_getpid>:
    80004740:	1141                	addi	sp,sp,-16
    80004742:	e406                	sd	ra,8(sp)
    80004744:	e022                	sd	s0,0(sp)
    80004746:	0800                	addi	s0,sp,16
    80004748:	ffffe097          	auipc	ra,0xffffe
    8000474c:	20a080e7          	jalr	522(ra) # 80002952 <myproc>
    80004750:	87aa                	mv	a5,a0
    80004752:	5f9c                	lw	a5,56(a5)
    80004754:	853e                	mv	a0,a5
    80004756:	60a2                	ld	ra,8(sp)
    80004758:	6402                	ld	s0,0(sp)
    8000475a:	0141                	addi	sp,sp,16
    8000475c:	8082                	ret

000000008000475e <sys_fork>:
    8000475e:	1141                	addi	sp,sp,-16
    80004760:	e406                	sd	ra,8(sp)
    80004762:	e022                	sd	s0,0(sp)
    80004764:	0800                	addi	s0,sp,16
    80004766:	fffff097          	auipc	ra,0xfffff
    8000476a:	a40080e7          	jalr	-1472(ra) # 800031a6 <fork>
    8000476e:	87aa                	mv	a5,a0
    80004770:	853e                	mv	a0,a5
    80004772:	60a2                	ld	ra,8(sp)
    80004774:	6402                	ld	s0,0(sp)
    80004776:	0141                	addi	sp,sp,16
    80004778:	8082                	ret

000000008000477a <sys_wait>:
    8000477a:	1101                	addi	sp,sp,-32
    8000477c:	ec06                	sd	ra,24(sp)
    8000477e:	e822                	sd	s0,16(sp)
    80004780:	1000                	addi	s0,sp,32
    80004782:	fe840793          	addi	a5,s0,-24
    80004786:	85be                	mv	a1,a5
    80004788:	4501                	li	a0,0
    8000478a:	00000097          	auipc	ra,0x0
    8000478e:	e40080e7          	jalr	-448(ra) # 800045ca <argaddr>
    80004792:	87aa                	mv	a5,a0
    80004794:	0007d463          	bgez	a5,8000479c <sys_wait+0x22>
    80004798:	57fd                	li	a5,-1
    8000479a:	a809                	j	800047ac <sys_wait+0x32>
    8000479c:	fe843783          	ld	a5,-24(s0)
    800047a0:	853e                	mv	a0,a5
    800047a2:	fffff097          	auipc	ra,0xfffff
    800047a6:	d88080e7          	jalr	-632(ra) # 8000352a <wait>
    800047aa:	87aa                	mv	a5,a0
    800047ac:	853e                	mv	a0,a5
    800047ae:	60e2                	ld	ra,24(sp)
    800047b0:	6442                	ld	s0,16(sp)
    800047b2:	6105                	addi	sp,sp,32
    800047b4:	8082                	ret

00000000800047b6 <sys_sbrk>:
    800047b6:	1101                	addi	sp,sp,-32
    800047b8:	ec06                	sd	ra,24(sp)
    800047ba:	e822                	sd	s0,16(sp)
    800047bc:	1000                	addi	s0,sp,32
    800047be:	fe840793          	addi	a5,s0,-24
    800047c2:	85be                	mv	a1,a5
    800047c4:	4501                	li	a0,0
    800047c6:	00000097          	auipc	ra,0x0
    800047ca:	dcc080e7          	jalr	-564(ra) # 80004592 <argint>
    800047ce:	87aa                	mv	a5,a0
    800047d0:	0007d463          	bgez	a5,800047d8 <sys_sbrk+0x22>
    800047d4:	57fd                	li	a5,-1
    800047d6:	a03d                	j	80004804 <sys_sbrk+0x4e>
    800047d8:	ffffe097          	auipc	ra,0xffffe
    800047dc:	17a080e7          	jalr	378(ra) # 80002952 <myproc>
    800047e0:	87aa                	mv	a5,a0
    800047e2:	67bc                	ld	a5,72(a5)
    800047e4:	fef42623          	sw	a5,-20(s0)
    800047e8:	fe842783          	lw	a5,-24(s0)
    800047ec:	853e                	mv	a0,a5
    800047ee:	fffff097          	auipc	ra,0xfffff
    800047f2:	902080e7          	jalr	-1790(ra) # 800030f0 <growproc>
    800047f6:	87aa                	mv	a5,a0
    800047f8:	0007d463          	bgez	a5,80004800 <sys_sbrk+0x4a>
    800047fc:	57fd                	li	a5,-1
    800047fe:	a019                	j	80004804 <sys_sbrk+0x4e>
    80004800:	fec42783          	lw	a5,-20(s0)
    80004804:	853e                	mv	a0,a5
    80004806:	60e2                	ld	ra,24(sp)
    80004808:	6442                	ld	s0,16(sp)
    8000480a:	6105                	addi	sp,sp,32
    8000480c:	8082                	ret

000000008000480e <sys_sleep>:
    8000480e:	1101                	addi	sp,sp,-32
    80004810:	ec06                	sd	ra,24(sp)
    80004812:	e822                	sd	s0,16(sp)
    80004814:	1000                	addi	s0,sp,32
    80004816:	fe840793          	addi	a5,s0,-24
    8000481a:	85be                	mv	a1,a5
    8000481c:	4501                	li	a0,0
    8000481e:	00000097          	auipc	ra,0x0
    80004822:	d74080e7          	jalr	-652(ra) # 80004592 <argint>
    80004826:	87aa                	mv	a5,a0
    80004828:	0007d463          	bgez	a5,80004830 <sys_sleep+0x22>
    8000482c:	57fd                	li	a5,-1
    8000482e:	a071                	j	800048ba <sys_sleep+0xac>
    80004830:	00017517          	auipc	a0,0x17
    80004834:	f4050513          	addi	a0,a0,-192 # 8001b770 <tickslock>
    80004838:	ffffd097          	auipc	ra,0xffffd
    8000483c:	a9a080e7          	jalr	-1382(ra) # 800012d2 <acquire>
    80004840:	00008797          	auipc	a5,0x8
    80004844:	7e078793          	addi	a5,a5,2016 # 8000d020 <ticks>
    80004848:	439c                	lw	a5,0(a5)
    8000484a:	fef42623          	sw	a5,-20(s0)
    8000484e:	a835                	j	8000488a <sys_sleep+0x7c>
    80004850:	ffffe097          	auipc	ra,0xffffe
    80004854:	102080e7          	jalr	258(ra) # 80002952 <myproc>
    80004858:	87aa                	mv	a5,a0
    8000485a:	5b9c                	lw	a5,48(a5)
    8000485c:	cb99                	beqz	a5,80004872 <sys_sleep+0x64>
    8000485e:	00017517          	auipc	a0,0x17
    80004862:	f1250513          	addi	a0,a0,-238 # 8001b770 <tickslock>
    80004866:	ffffd097          	auipc	ra,0xffffd
    8000486a:	ad0080e7          	jalr	-1328(ra) # 80001336 <release>
    8000486e:	57fd                	li	a5,-1
    80004870:	a0a9                	j	800048ba <sys_sleep+0xac>
    80004872:	00017597          	auipc	a1,0x17
    80004876:	efe58593          	addi	a1,a1,-258 # 8001b770 <tickslock>
    8000487a:	00008517          	auipc	a0,0x8
    8000487e:	7a650513          	addi	a0,a0,1958 # 8000d020 <ticks>
    80004882:	fffff097          	auipc	ra,0xfffff
    80004886:	090080e7          	jalr	144(ra) # 80003912 <sleep>
    8000488a:	00008797          	auipc	a5,0x8
    8000488e:	79678793          	addi	a5,a5,1942 # 8000d020 <ticks>
    80004892:	439c                	lw	a5,0(a5)
    80004894:	fec42703          	lw	a4,-20(s0)
    80004898:	9f99                	subw	a5,a5,a4
    8000489a:	0007871b          	sext.w	a4,a5
    8000489e:	fe842783          	lw	a5,-24(s0)
    800048a2:	2781                	sext.w	a5,a5
    800048a4:	faf766e3          	bltu	a4,a5,80004850 <sys_sleep+0x42>
    800048a8:	00017517          	auipc	a0,0x17
    800048ac:	ec850513          	addi	a0,a0,-312 # 8001b770 <tickslock>
    800048b0:	ffffd097          	auipc	ra,0xffffd
    800048b4:	a86080e7          	jalr	-1402(ra) # 80001336 <release>
    800048b8:	4781                	li	a5,0
    800048ba:	853e                	mv	a0,a5
    800048bc:	60e2                	ld	ra,24(sp)
    800048be:	6442                	ld	s0,16(sp)
    800048c0:	6105                	addi	sp,sp,32
    800048c2:	8082                	ret

00000000800048c4 <sys_kill>:
    800048c4:	1101                	addi	sp,sp,-32
    800048c6:	ec06                	sd	ra,24(sp)
    800048c8:	e822                	sd	s0,16(sp)
    800048ca:	1000                	addi	s0,sp,32
    800048cc:	fec40793          	addi	a5,s0,-20
    800048d0:	85be                	mv	a1,a5
    800048d2:	4501                	li	a0,0
    800048d4:	00000097          	auipc	ra,0x0
    800048d8:	cbe080e7          	jalr	-834(ra) # 80004592 <argint>
    800048dc:	87aa                	mv	a5,a0
    800048de:	0007d463          	bgez	a5,800048e6 <sys_kill+0x22>
    800048e2:	57fd                	li	a5,-1
    800048e4:	a809                	j	800048f6 <sys_kill+0x32>
    800048e6:	fec42783          	lw	a5,-20(s0)
    800048ea:	853e                	mv	a0,a5
    800048ec:	fffff097          	auipc	ra,0xfffff
    800048f0:	198080e7          	jalr	408(ra) # 80003a84 <kill>
    800048f4:	87aa                	mv	a5,a0
    800048f6:	853e                	mv	a0,a5
    800048f8:	60e2                	ld	ra,24(sp)
    800048fa:	6442                	ld	s0,16(sp)
    800048fc:	6105                	addi	sp,sp,32
    800048fe:	8082                	ret

0000000080004900 <sys_uptime>:
    80004900:	1101                	addi	sp,sp,-32
    80004902:	ec06                	sd	ra,24(sp)
    80004904:	e822                	sd	s0,16(sp)
    80004906:	1000                	addi	s0,sp,32
    80004908:	00017517          	auipc	a0,0x17
    8000490c:	e6850513          	addi	a0,a0,-408 # 8001b770 <tickslock>
    80004910:	ffffd097          	auipc	ra,0xffffd
    80004914:	9c2080e7          	jalr	-1598(ra) # 800012d2 <acquire>
    80004918:	00008797          	auipc	a5,0x8
    8000491c:	70878793          	addi	a5,a5,1800 # 8000d020 <ticks>
    80004920:	439c                	lw	a5,0(a5)
    80004922:	fef42623          	sw	a5,-20(s0)
    80004926:	00017517          	auipc	a0,0x17
    8000492a:	e4a50513          	addi	a0,a0,-438 # 8001b770 <tickslock>
    8000492e:	ffffd097          	auipc	ra,0xffffd
    80004932:	a08080e7          	jalr	-1528(ra) # 80001336 <release>
    80004936:	fec46783          	lwu	a5,-20(s0)
    8000493a:	853e                	mv	a0,a5
    8000493c:	60e2                	ld	ra,24(sp)
    8000493e:	6442                	ld	s0,16(sp)
    80004940:	6105                	addi	sp,sp,32
    80004942:	8082                	ret

0000000080004944 <sys_checkvm>:
    80004944:	1141                	addi	sp,sp,-16
    80004946:	e406                	sd	ra,8(sp)
    80004948:	e022                	sd	s0,0(sp)
    8000494a:	0800                	addi	s0,sp,16
    8000494c:	ffffe097          	auipc	ra,0xffffe
    80004950:	dc6080e7          	jalr	-570(ra) # 80002712 <test_pagetable>
    80004954:	87aa                	mv	a5,a0
    80004956:	853e                	mv	a0,a5
    80004958:	60a2                	ld	ra,8(sp)
    8000495a:	6402                	ld	s0,0(sp)
    8000495c:	0141                	addi	sp,sp,16
    8000495e:	8082                	ret

0000000080004960 <binit>:
    80004960:	1101                	addi	sp,sp,-32
    80004962:	ec06                	sd	ra,24(sp)
    80004964:	e822                	sd	s0,16(sp)
    80004966:	1000                	addi	s0,sp,32
    80004968:	00008597          	auipc	a1,0x8
    8000496c:	ab858593          	addi	a1,a1,-1352 # 8000c420 <etext+0x420>
    80004970:	00017517          	auipc	a0,0x17
    80004974:	e1850513          	addi	a0,a0,-488 # 8001b788 <bcache>
    80004978:	ffffd097          	auipc	ra,0xffffd
    8000497c:	92a080e7          	jalr	-1750(ra) # 800012a2 <initlock>
    80004980:	00017717          	auipc	a4,0x17
    80004984:	e0870713          	addi	a4,a4,-504 # 8001b788 <bcache>
    80004988:	67a1                	lui	a5,0x8
    8000498a:	97ba                	add	a5,a5,a4
    8000498c:	0001f717          	auipc	a4,0x1f
    80004990:	06470713          	addi	a4,a4,100 # 800239f0 <bcache+0x8268>
    80004994:	2ae7b823          	sd	a4,688(a5) # 82b0 <_entry-0x7fff7d50>
    80004998:	00017717          	auipc	a4,0x17
    8000499c:	df070713          	addi	a4,a4,-528 # 8001b788 <bcache>
    800049a0:	67a1                	lui	a5,0x8
    800049a2:	97ba                	add	a5,a5,a4
    800049a4:	0001f717          	auipc	a4,0x1f
    800049a8:	04c70713          	addi	a4,a4,76 # 800239f0 <bcache+0x8268>
    800049ac:	2ae7bc23          	sd	a4,696(a5) # 82b8 <_entry-0x7fff7d48>
    800049b0:	00017797          	auipc	a5,0x17
    800049b4:	df078793          	addi	a5,a5,-528 # 8001b7a0 <bcache+0x18>
    800049b8:	fef43423          	sd	a5,-24(s0)
    800049bc:	a895                	j	80004a30 <binit+0xd0>
    800049be:	00017717          	auipc	a4,0x17
    800049c2:	dca70713          	addi	a4,a4,-566 # 8001b788 <bcache>
    800049c6:	67a1                	lui	a5,0x8
    800049c8:	97ba                	add	a5,a5,a4
    800049ca:	2b87b703          	ld	a4,696(a5) # 82b8 <_entry-0x7fff7d48>
    800049ce:	fe843783          	ld	a5,-24(s0)
    800049d2:	ebb8                	sd	a4,80(a5)
    800049d4:	fe843783          	ld	a5,-24(s0)
    800049d8:	0001f717          	auipc	a4,0x1f
    800049dc:	01870713          	addi	a4,a4,24 # 800239f0 <bcache+0x8268>
    800049e0:	e7b8                	sd	a4,72(a5)
    800049e2:	fe843783          	ld	a5,-24(s0)
    800049e6:	07c1                	addi	a5,a5,16
    800049e8:	00008597          	auipc	a1,0x8
    800049ec:	a4058593          	addi	a1,a1,-1472 # 8000c428 <etext+0x428>
    800049f0:	853e                	mv	a0,a5
    800049f2:	00002097          	auipc	ra,0x2
    800049f6:	fda080e7          	jalr	-38(ra) # 800069cc <initsleeplock>
    800049fa:	00017717          	auipc	a4,0x17
    800049fe:	d8e70713          	addi	a4,a4,-626 # 8001b788 <bcache>
    80004a02:	67a1                	lui	a5,0x8
    80004a04:	97ba                	add	a5,a5,a4
    80004a06:	2b87b783          	ld	a5,696(a5) # 82b8 <_entry-0x7fff7d48>
    80004a0a:	fe843703          	ld	a4,-24(s0)
    80004a0e:	e7b8                	sd	a4,72(a5)
    80004a10:	00017717          	auipc	a4,0x17
    80004a14:	d7870713          	addi	a4,a4,-648 # 8001b788 <bcache>
    80004a18:	67a1                	lui	a5,0x8
    80004a1a:	97ba                	add	a5,a5,a4
    80004a1c:	fe843703          	ld	a4,-24(s0)
    80004a20:	2ae7bc23          	sd	a4,696(a5) # 82b8 <_entry-0x7fff7d48>
    80004a24:	fe843783          	ld	a5,-24(s0)
    80004a28:	45878793          	addi	a5,a5,1112
    80004a2c:	fef43423          	sd	a5,-24(s0)
    80004a30:	0001f797          	auipc	a5,0x1f
    80004a34:	fc078793          	addi	a5,a5,-64 # 800239f0 <bcache+0x8268>
    80004a38:	fe843703          	ld	a4,-24(s0)
    80004a3c:	f8f761e3          	bltu	a4,a5,800049be <binit+0x5e>
    80004a40:	0001                	nop
    80004a42:	0001                	nop
    80004a44:	60e2                	ld	ra,24(sp)
    80004a46:	6442                	ld	s0,16(sp)
    80004a48:	6105                	addi	sp,sp,32
    80004a4a:	8082                	ret

0000000080004a4c <bget>:
    80004a4c:	7179                	addi	sp,sp,-48
    80004a4e:	f406                	sd	ra,40(sp)
    80004a50:	f022                	sd	s0,32(sp)
    80004a52:	1800                	addi	s0,sp,48
    80004a54:	87aa                	mv	a5,a0
    80004a56:	872e                	mv	a4,a1
    80004a58:	fcf42e23          	sw	a5,-36(s0)
    80004a5c:	87ba                	mv	a5,a4
    80004a5e:	fcf42c23          	sw	a5,-40(s0)
    80004a62:	00017517          	auipc	a0,0x17
    80004a66:	d2650513          	addi	a0,a0,-730 # 8001b788 <bcache>
    80004a6a:	ffffd097          	auipc	ra,0xffffd
    80004a6e:	868080e7          	jalr	-1944(ra) # 800012d2 <acquire>
    80004a72:	00017717          	auipc	a4,0x17
    80004a76:	d1670713          	addi	a4,a4,-746 # 8001b788 <bcache>
    80004a7a:	67a1                	lui	a5,0x8
    80004a7c:	97ba                	add	a5,a5,a4
    80004a7e:	2b87b783          	ld	a5,696(a5) # 82b8 <_entry-0x7fff7d48>
    80004a82:	fef43423          	sd	a5,-24(s0)
    80004a86:	a095                	j	80004aea <bget+0x9e>
    80004a88:	fe843783          	ld	a5,-24(s0)
    80004a8c:	4798                	lw	a4,8(a5)
    80004a8e:	fdc42783          	lw	a5,-36(s0)
    80004a92:	2781                	sext.w	a5,a5
    80004a94:	04e79663          	bne	a5,a4,80004ae0 <bget+0x94>
    80004a98:	fe843783          	ld	a5,-24(s0)
    80004a9c:	47d8                	lw	a4,12(a5)
    80004a9e:	fd842783          	lw	a5,-40(s0)
    80004aa2:	2781                	sext.w	a5,a5
    80004aa4:	02e79e63          	bne	a5,a4,80004ae0 <bget+0x94>
    80004aa8:	fe843783          	ld	a5,-24(s0)
    80004aac:	43bc                	lw	a5,64(a5)
    80004aae:	2785                	addiw	a5,a5,1
    80004ab0:	0007871b          	sext.w	a4,a5
    80004ab4:	fe843783          	ld	a5,-24(s0)
    80004ab8:	c3b8                	sw	a4,64(a5)
    80004aba:	00017517          	auipc	a0,0x17
    80004abe:	cce50513          	addi	a0,a0,-818 # 8001b788 <bcache>
    80004ac2:	ffffd097          	auipc	ra,0xffffd
    80004ac6:	874080e7          	jalr	-1932(ra) # 80001336 <release>
    80004aca:	fe843783          	ld	a5,-24(s0)
    80004ace:	07c1                	addi	a5,a5,16
    80004ad0:	853e                	mv	a0,a5
    80004ad2:	00002097          	auipc	ra,0x2
    80004ad6:	f46080e7          	jalr	-186(ra) # 80006a18 <acquiresleep>
    80004ada:	fe843783          	ld	a5,-24(s0)
    80004ade:	a07d                	j	80004b8c <bget+0x140>
    80004ae0:	fe843783          	ld	a5,-24(s0)
    80004ae4:	6bbc                	ld	a5,80(a5)
    80004ae6:	fef43423          	sd	a5,-24(s0)
    80004aea:	fe843703          	ld	a4,-24(s0)
    80004aee:	0001f797          	auipc	a5,0x1f
    80004af2:	f0278793          	addi	a5,a5,-254 # 800239f0 <bcache+0x8268>
    80004af6:	f8f719e3          	bne	a4,a5,80004a88 <bget+0x3c>
    80004afa:	00017717          	auipc	a4,0x17
    80004afe:	c8e70713          	addi	a4,a4,-882 # 8001b788 <bcache>
    80004b02:	67a1                	lui	a5,0x8
    80004b04:	97ba                	add	a5,a5,a4
    80004b06:	2b07b783          	ld	a5,688(a5) # 82b0 <_entry-0x7fff7d50>
    80004b0a:	fef43423          	sd	a5,-24(s0)
    80004b0e:	a8b9                	j	80004b6c <bget+0x120>
    80004b10:	fe843783          	ld	a5,-24(s0)
    80004b14:	43bc                	lw	a5,64(a5)
    80004b16:	e7b1                	bnez	a5,80004b62 <bget+0x116>
    80004b18:	fe843783          	ld	a5,-24(s0)
    80004b1c:	fdc42703          	lw	a4,-36(s0)
    80004b20:	c798                	sw	a4,8(a5)
    80004b22:	fe843783          	ld	a5,-24(s0)
    80004b26:	fd842703          	lw	a4,-40(s0)
    80004b2a:	c7d8                	sw	a4,12(a5)
    80004b2c:	fe843783          	ld	a5,-24(s0)
    80004b30:	0007a023          	sw	zero,0(a5)
    80004b34:	fe843783          	ld	a5,-24(s0)
    80004b38:	4705                	li	a4,1
    80004b3a:	c3b8                	sw	a4,64(a5)
    80004b3c:	00017517          	auipc	a0,0x17
    80004b40:	c4c50513          	addi	a0,a0,-948 # 8001b788 <bcache>
    80004b44:	ffffc097          	auipc	ra,0xffffc
    80004b48:	7f2080e7          	jalr	2034(ra) # 80001336 <release>
    80004b4c:	fe843783          	ld	a5,-24(s0)
    80004b50:	07c1                	addi	a5,a5,16
    80004b52:	853e                	mv	a0,a5
    80004b54:	00002097          	auipc	ra,0x2
    80004b58:	ec4080e7          	jalr	-316(ra) # 80006a18 <acquiresleep>
    80004b5c:	fe843783          	ld	a5,-24(s0)
    80004b60:	a035                	j	80004b8c <bget+0x140>
    80004b62:	fe843783          	ld	a5,-24(s0)
    80004b66:	67bc                	ld	a5,72(a5)
    80004b68:	fef43423          	sd	a5,-24(s0)
    80004b6c:	fe843703          	ld	a4,-24(s0)
    80004b70:	0001f797          	auipc	a5,0x1f
    80004b74:	e8078793          	addi	a5,a5,-384 # 800239f0 <bcache+0x8268>
    80004b78:	f8f71ce3          	bne	a4,a5,80004b10 <bget+0xc4>
    80004b7c:	00008517          	auipc	a0,0x8
    80004b80:	8b450513          	addi	a0,a0,-1868 # 8000c430 <etext+0x430>
    80004b84:	ffffc097          	auipc	ra,0xffffc
    80004b88:	11a080e7          	jalr	282(ra) # 80000c9e <panic>
    80004b8c:	853e                	mv	a0,a5
    80004b8e:	70a2                	ld	ra,40(sp)
    80004b90:	7402                	ld	s0,32(sp)
    80004b92:	6145                	addi	sp,sp,48
    80004b94:	8082                	ret

0000000080004b96 <bread>:
    80004b96:	7179                	addi	sp,sp,-48
    80004b98:	f406                	sd	ra,40(sp)
    80004b9a:	f022                	sd	s0,32(sp)
    80004b9c:	1800                	addi	s0,sp,48
    80004b9e:	87aa                	mv	a5,a0
    80004ba0:	872e                	mv	a4,a1
    80004ba2:	fcf42e23          	sw	a5,-36(s0)
    80004ba6:	87ba                	mv	a5,a4
    80004ba8:	fcf42c23          	sw	a5,-40(s0)
    80004bac:	fd842703          	lw	a4,-40(s0)
    80004bb0:	fdc42783          	lw	a5,-36(s0)
    80004bb4:	85ba                	mv	a1,a4
    80004bb6:	853e                	mv	a0,a5
    80004bb8:	00000097          	auipc	ra,0x0
    80004bbc:	e94080e7          	jalr	-364(ra) # 80004a4c <bget>
    80004bc0:	fea43423          	sd	a0,-24(s0)
    80004bc4:	fe843783          	ld	a5,-24(s0)
    80004bc8:	439c                	lw	a5,0(a5)
    80004bca:	ef81                	bnez	a5,80004be2 <bread+0x4c>
    80004bcc:	4581                	li	a1,0
    80004bce:	fe843503          	ld	a0,-24(s0)
    80004bd2:	00005097          	auipc	ra,0x5
    80004bd6:	998080e7          	jalr	-1640(ra) # 8000956a <virtio_disk_rw>
    80004bda:	fe843783          	ld	a5,-24(s0)
    80004bde:	4705                	li	a4,1
    80004be0:	c398                	sw	a4,0(a5)
    80004be2:	fe843783          	ld	a5,-24(s0)
    80004be6:	853e                	mv	a0,a5
    80004be8:	70a2                	ld	ra,40(sp)
    80004bea:	7402                	ld	s0,32(sp)
    80004bec:	6145                	addi	sp,sp,48
    80004bee:	8082                	ret

0000000080004bf0 <bwrite>:
    80004bf0:	1101                	addi	sp,sp,-32
    80004bf2:	ec06                	sd	ra,24(sp)
    80004bf4:	e822                	sd	s0,16(sp)
    80004bf6:	1000                	addi	s0,sp,32
    80004bf8:	fea43423          	sd	a0,-24(s0)
    80004bfc:	fe843783          	ld	a5,-24(s0)
    80004c00:	07c1                	addi	a5,a5,16
    80004c02:	853e                	mv	a0,a5
    80004c04:	00002097          	auipc	ra,0x2
    80004c08:	ed4080e7          	jalr	-300(ra) # 80006ad8 <holdingsleep>
    80004c0c:	87aa                	mv	a5,a0
    80004c0e:	eb89                	bnez	a5,80004c20 <bwrite+0x30>
    80004c10:	00008517          	auipc	a0,0x8
    80004c14:	83850513          	addi	a0,a0,-1992 # 8000c448 <etext+0x448>
    80004c18:	ffffc097          	auipc	ra,0xffffc
    80004c1c:	086080e7          	jalr	134(ra) # 80000c9e <panic>
    80004c20:	4585                	li	a1,1
    80004c22:	fe843503          	ld	a0,-24(s0)
    80004c26:	00005097          	auipc	ra,0x5
    80004c2a:	944080e7          	jalr	-1724(ra) # 8000956a <virtio_disk_rw>
    80004c2e:	0001                	nop
    80004c30:	60e2                	ld	ra,24(sp)
    80004c32:	6442                	ld	s0,16(sp)
    80004c34:	6105                	addi	sp,sp,32
    80004c36:	8082                	ret

0000000080004c38 <brelse>:
    80004c38:	1101                	addi	sp,sp,-32
    80004c3a:	ec06                	sd	ra,24(sp)
    80004c3c:	e822                	sd	s0,16(sp)
    80004c3e:	1000                	addi	s0,sp,32
    80004c40:	fea43423          	sd	a0,-24(s0)
    80004c44:	fe843783          	ld	a5,-24(s0)
    80004c48:	07c1                	addi	a5,a5,16
    80004c4a:	853e                	mv	a0,a5
    80004c4c:	00002097          	auipc	ra,0x2
    80004c50:	e8c080e7          	jalr	-372(ra) # 80006ad8 <holdingsleep>
    80004c54:	87aa                	mv	a5,a0
    80004c56:	eb89                	bnez	a5,80004c68 <brelse+0x30>
    80004c58:	00007517          	auipc	a0,0x7
    80004c5c:	7f850513          	addi	a0,a0,2040 # 8000c450 <etext+0x450>
    80004c60:	ffffc097          	auipc	ra,0xffffc
    80004c64:	03e080e7          	jalr	62(ra) # 80000c9e <panic>
    80004c68:	fe843783          	ld	a5,-24(s0)
    80004c6c:	07c1                	addi	a5,a5,16
    80004c6e:	853e                	mv	a0,a5
    80004c70:	00002097          	auipc	ra,0x2
    80004c74:	e16080e7          	jalr	-490(ra) # 80006a86 <releasesleep>
    80004c78:	00017517          	auipc	a0,0x17
    80004c7c:	b1050513          	addi	a0,a0,-1264 # 8001b788 <bcache>
    80004c80:	ffffc097          	auipc	ra,0xffffc
    80004c84:	652080e7          	jalr	1618(ra) # 800012d2 <acquire>
    80004c88:	fe843783          	ld	a5,-24(s0)
    80004c8c:	43bc                	lw	a5,64(a5)
    80004c8e:	37fd                	addiw	a5,a5,-1
    80004c90:	0007871b          	sext.w	a4,a5
    80004c94:	fe843783          	ld	a5,-24(s0)
    80004c98:	c3b8                	sw	a4,64(a5)
    80004c9a:	fe843783          	ld	a5,-24(s0)
    80004c9e:	43bc                	lw	a5,64(a5)
    80004ca0:	e7b5                	bnez	a5,80004d0c <brelse+0xd4>
    80004ca2:	fe843783          	ld	a5,-24(s0)
    80004ca6:	6bbc                	ld	a5,80(a5)
    80004ca8:	fe843703          	ld	a4,-24(s0)
    80004cac:	6738                	ld	a4,72(a4)
    80004cae:	e7b8                	sd	a4,72(a5)
    80004cb0:	fe843783          	ld	a5,-24(s0)
    80004cb4:	67bc                	ld	a5,72(a5)
    80004cb6:	fe843703          	ld	a4,-24(s0)
    80004cba:	6b38                	ld	a4,80(a4)
    80004cbc:	ebb8                	sd	a4,80(a5)
    80004cbe:	00017717          	auipc	a4,0x17
    80004cc2:	aca70713          	addi	a4,a4,-1334 # 8001b788 <bcache>
    80004cc6:	67a1                	lui	a5,0x8
    80004cc8:	97ba                	add	a5,a5,a4
    80004cca:	2b87b703          	ld	a4,696(a5) # 82b8 <_entry-0x7fff7d48>
    80004cce:	fe843783          	ld	a5,-24(s0)
    80004cd2:	ebb8                	sd	a4,80(a5)
    80004cd4:	fe843783          	ld	a5,-24(s0)
    80004cd8:	0001f717          	auipc	a4,0x1f
    80004cdc:	d1870713          	addi	a4,a4,-744 # 800239f0 <bcache+0x8268>
    80004ce0:	e7b8                	sd	a4,72(a5)
    80004ce2:	00017717          	auipc	a4,0x17
    80004ce6:	aa670713          	addi	a4,a4,-1370 # 8001b788 <bcache>
    80004cea:	67a1                	lui	a5,0x8
    80004cec:	97ba                	add	a5,a5,a4
    80004cee:	2b87b783          	ld	a5,696(a5) # 82b8 <_entry-0x7fff7d48>
    80004cf2:	fe843703          	ld	a4,-24(s0)
    80004cf6:	e7b8                	sd	a4,72(a5)
    80004cf8:	00017717          	auipc	a4,0x17
    80004cfc:	a9070713          	addi	a4,a4,-1392 # 8001b788 <bcache>
    80004d00:	67a1                	lui	a5,0x8
    80004d02:	97ba                	add	a5,a5,a4
    80004d04:	fe843703          	ld	a4,-24(s0)
    80004d08:	2ae7bc23          	sd	a4,696(a5) # 82b8 <_entry-0x7fff7d48>
    80004d0c:	00017517          	auipc	a0,0x17
    80004d10:	a7c50513          	addi	a0,a0,-1412 # 8001b788 <bcache>
    80004d14:	ffffc097          	auipc	ra,0xffffc
    80004d18:	622080e7          	jalr	1570(ra) # 80001336 <release>
    80004d1c:	0001                	nop
    80004d1e:	60e2                	ld	ra,24(sp)
    80004d20:	6442                	ld	s0,16(sp)
    80004d22:	6105                	addi	sp,sp,32
    80004d24:	8082                	ret

0000000080004d26 <bpin>:
    80004d26:	1101                	addi	sp,sp,-32
    80004d28:	ec06                	sd	ra,24(sp)
    80004d2a:	e822                	sd	s0,16(sp)
    80004d2c:	1000                	addi	s0,sp,32
    80004d2e:	fea43423          	sd	a0,-24(s0)
    80004d32:	00017517          	auipc	a0,0x17
    80004d36:	a5650513          	addi	a0,a0,-1450 # 8001b788 <bcache>
    80004d3a:	ffffc097          	auipc	ra,0xffffc
    80004d3e:	598080e7          	jalr	1432(ra) # 800012d2 <acquire>
    80004d42:	fe843783          	ld	a5,-24(s0)
    80004d46:	43bc                	lw	a5,64(a5)
    80004d48:	2785                	addiw	a5,a5,1
    80004d4a:	0007871b          	sext.w	a4,a5
    80004d4e:	fe843783          	ld	a5,-24(s0)
    80004d52:	c3b8                	sw	a4,64(a5)
    80004d54:	00017517          	auipc	a0,0x17
    80004d58:	a3450513          	addi	a0,a0,-1484 # 8001b788 <bcache>
    80004d5c:	ffffc097          	auipc	ra,0xffffc
    80004d60:	5da080e7          	jalr	1498(ra) # 80001336 <release>
    80004d64:	0001                	nop
    80004d66:	60e2                	ld	ra,24(sp)
    80004d68:	6442                	ld	s0,16(sp)
    80004d6a:	6105                	addi	sp,sp,32
    80004d6c:	8082                	ret

0000000080004d6e <bunpin>:
    80004d6e:	1101                	addi	sp,sp,-32
    80004d70:	ec06                	sd	ra,24(sp)
    80004d72:	e822                	sd	s0,16(sp)
    80004d74:	1000                	addi	s0,sp,32
    80004d76:	fea43423          	sd	a0,-24(s0)
    80004d7a:	00017517          	auipc	a0,0x17
    80004d7e:	a0e50513          	addi	a0,a0,-1522 # 8001b788 <bcache>
    80004d82:	ffffc097          	auipc	ra,0xffffc
    80004d86:	550080e7          	jalr	1360(ra) # 800012d2 <acquire>
    80004d8a:	fe843783          	ld	a5,-24(s0)
    80004d8e:	43bc                	lw	a5,64(a5)
    80004d90:	37fd                	addiw	a5,a5,-1
    80004d92:	0007871b          	sext.w	a4,a5
    80004d96:	fe843783          	ld	a5,-24(s0)
    80004d9a:	c3b8                	sw	a4,64(a5)
    80004d9c:	00017517          	auipc	a0,0x17
    80004da0:	9ec50513          	addi	a0,a0,-1556 # 8001b788 <bcache>
    80004da4:	ffffc097          	auipc	ra,0xffffc
    80004da8:	592080e7          	jalr	1426(ra) # 80001336 <release>
    80004dac:	0001                	nop
    80004dae:	60e2                	ld	ra,24(sp)
    80004db0:	6442                	ld	s0,16(sp)
    80004db2:	6105                	addi	sp,sp,32
    80004db4:	8082                	ret

0000000080004db6 <readsb>:
    80004db6:	7179                	addi	sp,sp,-48
    80004db8:	f406                	sd	ra,40(sp)
    80004dba:	f022                	sd	s0,32(sp)
    80004dbc:	1800                	addi	s0,sp,48
    80004dbe:	87aa                	mv	a5,a0
    80004dc0:	fcb43823          	sd	a1,-48(s0)
    80004dc4:	fcf42e23          	sw	a5,-36(s0)
    80004dc8:	fdc42783          	lw	a5,-36(s0)
    80004dcc:	4585                	li	a1,1
    80004dce:	853e                	mv	a0,a5
    80004dd0:	00000097          	auipc	ra,0x0
    80004dd4:	dc6080e7          	jalr	-570(ra) # 80004b96 <bread>
    80004dd8:	fea43423          	sd	a0,-24(s0)
    80004ddc:	fe843783          	ld	a5,-24(s0)
    80004de0:	05878793          	addi	a5,a5,88
    80004de4:	02000613          	li	a2,32
    80004de8:	85be                	mv	a1,a5
    80004dea:	fd043503          	ld	a0,-48(s0)
    80004dee:	ffffc097          	auipc	ra,0xffffc
    80004df2:	79c080e7          	jalr	1948(ra) # 8000158a <memmove>
    80004df6:	fe843503          	ld	a0,-24(s0)
    80004dfa:	00000097          	auipc	ra,0x0
    80004dfe:	e3e080e7          	jalr	-450(ra) # 80004c38 <brelse>
    80004e02:	0001                	nop
    80004e04:	70a2                	ld	ra,40(sp)
    80004e06:	7402                	ld	s0,32(sp)
    80004e08:	6145                	addi	sp,sp,48
    80004e0a:	8082                	ret

0000000080004e0c <fsinit>:
    80004e0c:	1101                	addi	sp,sp,-32
    80004e0e:	ec06                	sd	ra,24(sp)
    80004e10:	e822                	sd	s0,16(sp)
    80004e12:	1000                	addi	s0,sp,32
    80004e14:	87aa                	mv	a5,a0
    80004e16:	fef42623          	sw	a5,-20(s0)
    80004e1a:	fec42783          	lw	a5,-20(s0)
    80004e1e:	0001f597          	auipc	a1,0x1f
    80004e22:	02a58593          	addi	a1,a1,42 # 80023e48 <sb>
    80004e26:	853e                	mv	a0,a5
    80004e28:	00000097          	auipc	ra,0x0
    80004e2c:	f8e080e7          	jalr	-114(ra) # 80004db6 <readsb>
    80004e30:	0001f797          	auipc	a5,0x1f
    80004e34:	01878793          	addi	a5,a5,24 # 80023e48 <sb>
    80004e38:	439c                	lw	a5,0(a5)
    80004e3a:	873e                	mv	a4,a5
    80004e3c:	102037b7          	lui	a5,0x10203
    80004e40:	04078793          	addi	a5,a5,64 # 10203040 <_entry-0x6fdfcfc0>
    80004e44:	00f70a63          	beq	a4,a5,80004e58 <fsinit+0x4c>
    80004e48:	00007517          	auipc	a0,0x7
    80004e4c:	61050513          	addi	a0,a0,1552 # 8000c458 <etext+0x458>
    80004e50:	ffffc097          	auipc	ra,0xffffc
    80004e54:	e4e080e7          	jalr	-434(ra) # 80000c9e <panic>
    80004e58:	fec42783          	lw	a5,-20(s0)
    80004e5c:	0001f597          	auipc	a1,0x1f
    80004e60:	fec58593          	addi	a1,a1,-20 # 80023e48 <sb>
    80004e64:	853e                	mv	a0,a5
    80004e66:	00001097          	auipc	ra,0x1
    80004e6a:	45c080e7          	jalr	1116(ra) # 800062c2 <initlog>
    80004e6e:	0001                	nop
    80004e70:	60e2                	ld	ra,24(sp)
    80004e72:	6442                	ld	s0,16(sp)
    80004e74:	6105                	addi	sp,sp,32
    80004e76:	8082                	ret

0000000080004e78 <bzero>:
    80004e78:	7179                	addi	sp,sp,-48
    80004e7a:	f406                	sd	ra,40(sp)
    80004e7c:	f022                	sd	s0,32(sp)
    80004e7e:	1800                	addi	s0,sp,48
    80004e80:	87aa                	mv	a5,a0
    80004e82:	872e                	mv	a4,a1
    80004e84:	fcf42e23          	sw	a5,-36(s0)
    80004e88:	87ba                	mv	a5,a4
    80004e8a:	fcf42c23          	sw	a5,-40(s0)
    80004e8e:	fdc42783          	lw	a5,-36(s0)
    80004e92:	fd842703          	lw	a4,-40(s0)
    80004e96:	85ba                	mv	a1,a4
    80004e98:	853e                	mv	a0,a5
    80004e9a:	00000097          	auipc	ra,0x0
    80004e9e:	cfc080e7          	jalr	-772(ra) # 80004b96 <bread>
    80004ea2:	fea43423          	sd	a0,-24(s0)
    80004ea6:	fe843783          	ld	a5,-24(s0)
    80004eaa:	05878793          	addi	a5,a5,88
    80004eae:	40000613          	li	a2,1024
    80004eb2:	4581                	li	a1,0
    80004eb4:	853e                	mv	a0,a5
    80004eb6:	ffffc097          	auipc	ra,0xffffc
    80004eba:	5f0080e7          	jalr	1520(ra) # 800014a6 <memset>
    80004ebe:	fe843503          	ld	a0,-24(s0)
    80004ec2:	00002097          	auipc	ra,0x2
    80004ec6:	9d6080e7          	jalr	-1578(ra) # 80006898 <log_write>
    80004eca:	fe843503          	ld	a0,-24(s0)
    80004ece:	00000097          	auipc	ra,0x0
    80004ed2:	d6a080e7          	jalr	-662(ra) # 80004c38 <brelse>
    80004ed6:	0001                	nop
    80004ed8:	70a2                	ld	ra,40(sp)
    80004eda:	7402                	ld	s0,32(sp)
    80004edc:	6145                	addi	sp,sp,48
    80004ede:	8082                	ret

0000000080004ee0 <balloc>:
    80004ee0:	7139                	addi	sp,sp,-64
    80004ee2:	fc06                	sd	ra,56(sp)
    80004ee4:	f822                	sd	s0,48(sp)
    80004ee6:	0080                	addi	s0,sp,64
    80004ee8:	87aa                	mv	a5,a0
    80004eea:	fcf42623          	sw	a5,-52(s0)
    80004eee:	fe043023          	sd	zero,-32(s0)
    80004ef2:	fe042623          	sw	zero,-20(s0)
    80004ef6:	a295                	j	8000505a <balloc+0x17a>
    80004ef8:	fec42783          	lw	a5,-20(s0)
    80004efc:	41f7d71b          	sraiw	a4,a5,0x1f
    80004f00:	0137571b          	srliw	a4,a4,0x13
    80004f04:	9fb9                	addw	a5,a5,a4
    80004f06:	40d7d79b          	sraiw	a5,a5,0xd
    80004f0a:	2781                	sext.w	a5,a5
    80004f0c:	0007871b          	sext.w	a4,a5
    80004f10:	0001f797          	auipc	a5,0x1f
    80004f14:	f3878793          	addi	a5,a5,-200 # 80023e48 <sb>
    80004f18:	4fdc                	lw	a5,28(a5)
    80004f1a:	9fb9                	addw	a5,a5,a4
    80004f1c:	0007871b          	sext.w	a4,a5
    80004f20:	fcc42783          	lw	a5,-52(s0)
    80004f24:	85ba                	mv	a1,a4
    80004f26:	853e                	mv	a0,a5
    80004f28:	00000097          	auipc	ra,0x0
    80004f2c:	c6e080e7          	jalr	-914(ra) # 80004b96 <bread>
    80004f30:	fea43023          	sd	a0,-32(s0)
    80004f34:	fe042423          	sw	zero,-24(s0)
    80004f38:	a8e9                	j	80005012 <balloc+0x132>
    80004f3a:	fe842783          	lw	a5,-24(s0)
    80004f3e:	8b9d                	andi	a5,a5,7
    80004f40:	2781                	sext.w	a5,a5
    80004f42:	4705                	li	a4,1
    80004f44:	00f717bb          	sllw	a5,a4,a5
    80004f48:	fcf42e23          	sw	a5,-36(s0)
    80004f4c:	fe842783          	lw	a5,-24(s0)
    80004f50:	41f7d71b          	sraiw	a4,a5,0x1f
    80004f54:	01d7571b          	srliw	a4,a4,0x1d
    80004f58:	9fb9                	addw	a5,a5,a4
    80004f5a:	4037d79b          	sraiw	a5,a5,0x3
    80004f5e:	2781                	sext.w	a5,a5
    80004f60:	fe043703          	ld	a4,-32(s0)
    80004f64:	97ba                	add	a5,a5,a4
    80004f66:	0587c783          	lbu	a5,88(a5)
    80004f6a:	2781                	sext.w	a5,a5
    80004f6c:	fdc42703          	lw	a4,-36(s0)
    80004f70:	8ff9                	and	a5,a5,a4
    80004f72:	2781                	sext.w	a5,a5
    80004f74:	ebd1                	bnez	a5,80005008 <balloc+0x128>
    80004f76:	fe842783          	lw	a5,-24(s0)
    80004f7a:	41f7d71b          	sraiw	a4,a5,0x1f
    80004f7e:	01d7571b          	srliw	a4,a4,0x1d
    80004f82:	9fb9                	addw	a5,a5,a4
    80004f84:	4037d79b          	sraiw	a5,a5,0x3
    80004f88:	2781                	sext.w	a5,a5
    80004f8a:	fe043703          	ld	a4,-32(s0)
    80004f8e:	973e                	add	a4,a4,a5
    80004f90:	05874703          	lbu	a4,88(a4)
    80004f94:	0187169b          	slliw	a3,a4,0x18
    80004f98:	4186d69b          	sraiw	a3,a3,0x18
    80004f9c:	fdc42703          	lw	a4,-36(s0)
    80004fa0:	0187171b          	slliw	a4,a4,0x18
    80004fa4:	4187571b          	sraiw	a4,a4,0x18
    80004fa8:	8f55                	or	a4,a4,a3
    80004faa:	0187171b          	slliw	a4,a4,0x18
    80004fae:	4187571b          	sraiw	a4,a4,0x18
    80004fb2:	0ff77713          	zext.b	a4,a4
    80004fb6:	fe043683          	ld	a3,-32(s0)
    80004fba:	97b6                	add	a5,a5,a3
    80004fbc:	04e78c23          	sb	a4,88(a5)
    80004fc0:	fe043503          	ld	a0,-32(s0)
    80004fc4:	00002097          	auipc	ra,0x2
    80004fc8:	8d4080e7          	jalr	-1836(ra) # 80006898 <log_write>
    80004fcc:	fe043503          	ld	a0,-32(s0)
    80004fd0:	00000097          	auipc	ra,0x0
    80004fd4:	c68080e7          	jalr	-920(ra) # 80004c38 <brelse>
    80004fd8:	fcc42783          	lw	a5,-52(s0)
    80004fdc:	fec42703          	lw	a4,-20(s0)
    80004fe0:	86ba                	mv	a3,a4
    80004fe2:	fe842703          	lw	a4,-24(s0)
    80004fe6:	9f35                	addw	a4,a4,a3
    80004fe8:	2701                	sext.w	a4,a4
    80004fea:	85ba                	mv	a1,a4
    80004fec:	853e                	mv	a0,a5
    80004fee:	00000097          	auipc	ra,0x0
    80004ff2:	e8a080e7          	jalr	-374(ra) # 80004e78 <bzero>
    80004ff6:	fec42783          	lw	a5,-20(s0)
    80004ffa:	873e                	mv	a4,a5
    80004ffc:	fe842783          	lw	a5,-24(s0)
    80005000:	9fb9                	addw	a5,a5,a4
    80005002:	2781                	sext.w	a5,a5
    80005004:	2781                	sext.w	a5,a5
    80005006:	a89d                	j	8000507c <balloc+0x19c>
    80005008:	fe842783          	lw	a5,-24(s0)
    8000500c:	2785                	addiw	a5,a5,1
    8000500e:	fef42423          	sw	a5,-24(s0)
    80005012:	fe842783          	lw	a5,-24(s0)
    80005016:	0007871b          	sext.w	a4,a5
    8000501a:	6789                	lui	a5,0x2
    8000501c:	02f75263          	bge	a4,a5,80005040 <balloc+0x160>
    80005020:	fec42783          	lw	a5,-20(s0)
    80005024:	873e                	mv	a4,a5
    80005026:	fe842783          	lw	a5,-24(s0)
    8000502a:	9fb9                	addw	a5,a5,a4
    8000502c:	2781                	sext.w	a5,a5
    8000502e:	0007871b          	sext.w	a4,a5
    80005032:	0001f797          	auipc	a5,0x1f
    80005036:	e1678793          	addi	a5,a5,-490 # 80023e48 <sb>
    8000503a:	43dc                	lw	a5,4(a5)
    8000503c:	eef76fe3          	bltu	a4,a5,80004f3a <balloc+0x5a>
    80005040:	fe043503          	ld	a0,-32(s0)
    80005044:	00000097          	auipc	ra,0x0
    80005048:	bf4080e7          	jalr	-1036(ra) # 80004c38 <brelse>
    8000504c:	fec42783          	lw	a5,-20(s0)
    80005050:	873e                	mv	a4,a5
    80005052:	6789                	lui	a5,0x2
    80005054:	9fb9                	addw	a5,a5,a4
    80005056:	fef42623          	sw	a5,-20(s0)
    8000505a:	0001f797          	auipc	a5,0x1f
    8000505e:	dee78793          	addi	a5,a5,-530 # 80023e48 <sb>
    80005062:	43d8                	lw	a4,4(a5)
    80005064:	fec42783          	lw	a5,-20(s0)
    80005068:	e8e7e8e3          	bltu	a5,a4,80004ef8 <balloc+0x18>
    8000506c:	00007517          	auipc	a0,0x7
    80005070:	40450513          	addi	a0,a0,1028 # 8000c470 <etext+0x470>
    80005074:	ffffc097          	auipc	ra,0xffffc
    80005078:	c2a080e7          	jalr	-982(ra) # 80000c9e <panic>
    8000507c:	853e                	mv	a0,a5
    8000507e:	70e2                	ld	ra,56(sp)
    80005080:	7442                	ld	s0,48(sp)
    80005082:	6121                	addi	sp,sp,64
    80005084:	8082                	ret

0000000080005086 <bfree>:
    80005086:	7179                	addi	sp,sp,-48
    80005088:	f406                	sd	ra,40(sp)
    8000508a:	f022                	sd	s0,32(sp)
    8000508c:	1800                	addi	s0,sp,48
    8000508e:	87aa                	mv	a5,a0
    80005090:	872e                	mv	a4,a1
    80005092:	fcf42e23          	sw	a5,-36(s0)
    80005096:	87ba                	mv	a5,a4
    80005098:	fcf42c23          	sw	a5,-40(s0)
    8000509c:	fdc42683          	lw	a3,-36(s0)
    800050a0:	fd842783          	lw	a5,-40(s0)
    800050a4:	00d7d79b          	srliw	a5,a5,0xd
    800050a8:	0007871b          	sext.w	a4,a5
    800050ac:	0001f797          	auipc	a5,0x1f
    800050b0:	d9c78793          	addi	a5,a5,-612 # 80023e48 <sb>
    800050b4:	4fdc                	lw	a5,28(a5)
    800050b6:	9fb9                	addw	a5,a5,a4
    800050b8:	2781                	sext.w	a5,a5
    800050ba:	85be                	mv	a1,a5
    800050bc:	8536                	mv	a0,a3
    800050be:	00000097          	auipc	ra,0x0
    800050c2:	ad8080e7          	jalr	-1320(ra) # 80004b96 <bread>
    800050c6:	fea43423          	sd	a0,-24(s0)
    800050ca:	fd842703          	lw	a4,-40(s0)
    800050ce:	6789                	lui	a5,0x2
    800050d0:	17fd                	addi	a5,a5,-1 # 1fff <_entry-0x7fffe001>
    800050d2:	8ff9                	and	a5,a5,a4
    800050d4:	fef42223          	sw	a5,-28(s0)
    800050d8:	fe442783          	lw	a5,-28(s0)
    800050dc:	8b9d                	andi	a5,a5,7
    800050de:	2781                	sext.w	a5,a5
    800050e0:	4705                	li	a4,1
    800050e2:	00f717bb          	sllw	a5,a4,a5
    800050e6:	fef42023          	sw	a5,-32(s0)
    800050ea:	fe442783          	lw	a5,-28(s0)
    800050ee:	41f7d71b          	sraiw	a4,a5,0x1f
    800050f2:	01d7571b          	srliw	a4,a4,0x1d
    800050f6:	9fb9                	addw	a5,a5,a4
    800050f8:	4037d79b          	sraiw	a5,a5,0x3
    800050fc:	2781                	sext.w	a5,a5
    800050fe:	fe843703          	ld	a4,-24(s0)
    80005102:	97ba                	add	a5,a5,a4
    80005104:	0587c783          	lbu	a5,88(a5)
    80005108:	2781                	sext.w	a5,a5
    8000510a:	fe042703          	lw	a4,-32(s0)
    8000510e:	8ff9                	and	a5,a5,a4
    80005110:	2781                	sext.w	a5,a5
    80005112:	eb89                	bnez	a5,80005124 <bfree+0x9e>
    80005114:	00007517          	auipc	a0,0x7
    80005118:	37450513          	addi	a0,a0,884 # 8000c488 <etext+0x488>
    8000511c:	ffffc097          	auipc	ra,0xffffc
    80005120:	b82080e7          	jalr	-1150(ra) # 80000c9e <panic>
    80005124:	fe442783          	lw	a5,-28(s0)
    80005128:	41f7d71b          	sraiw	a4,a5,0x1f
    8000512c:	01d7571b          	srliw	a4,a4,0x1d
    80005130:	9fb9                	addw	a5,a5,a4
    80005132:	4037d79b          	sraiw	a5,a5,0x3
    80005136:	2781                	sext.w	a5,a5
    80005138:	fe843703          	ld	a4,-24(s0)
    8000513c:	973e                	add	a4,a4,a5
    8000513e:	05874703          	lbu	a4,88(a4)
    80005142:	0187169b          	slliw	a3,a4,0x18
    80005146:	4186d69b          	sraiw	a3,a3,0x18
    8000514a:	fe042703          	lw	a4,-32(s0)
    8000514e:	0187171b          	slliw	a4,a4,0x18
    80005152:	4187571b          	sraiw	a4,a4,0x18
    80005156:	fff74713          	not	a4,a4
    8000515a:	0187171b          	slliw	a4,a4,0x18
    8000515e:	4187571b          	sraiw	a4,a4,0x18
    80005162:	8f75                	and	a4,a4,a3
    80005164:	0187171b          	slliw	a4,a4,0x18
    80005168:	4187571b          	sraiw	a4,a4,0x18
    8000516c:	0ff77713          	zext.b	a4,a4
    80005170:	fe843683          	ld	a3,-24(s0)
    80005174:	97b6                	add	a5,a5,a3
    80005176:	04e78c23          	sb	a4,88(a5)
    8000517a:	fe843503          	ld	a0,-24(s0)
    8000517e:	00001097          	auipc	ra,0x1
    80005182:	71a080e7          	jalr	1818(ra) # 80006898 <log_write>
    80005186:	fe843503          	ld	a0,-24(s0)
    8000518a:	00000097          	auipc	ra,0x0
    8000518e:	aae080e7          	jalr	-1362(ra) # 80004c38 <brelse>
    80005192:	0001                	nop
    80005194:	70a2                	ld	ra,40(sp)
    80005196:	7402                	ld	s0,32(sp)
    80005198:	6145                	addi	sp,sp,48
    8000519a:	8082                	ret

000000008000519c <iinit>:
    8000519c:	1101                	addi	sp,sp,-32
    8000519e:	ec06                	sd	ra,24(sp)
    800051a0:	e822                	sd	s0,16(sp)
    800051a2:	1000                	addi	s0,sp,32
    800051a4:	fe042623          	sw	zero,-20(s0)
    800051a8:	00007597          	auipc	a1,0x7
    800051ac:	2f858593          	addi	a1,a1,760 # 8000c4a0 <etext+0x4a0>
    800051b0:	0001f517          	auipc	a0,0x1f
    800051b4:	cb850513          	addi	a0,a0,-840 # 80023e68 <icache>
    800051b8:	ffffc097          	auipc	ra,0xffffc
    800051bc:	0ea080e7          	jalr	234(ra) # 800012a2 <initlock>
    800051c0:	fe042623          	sw	zero,-20(s0)
    800051c4:	a82d                	j	800051fe <iinit+0x62>
    800051c6:	fec42703          	lw	a4,-20(s0)
    800051ca:	87ba                	mv	a5,a4
    800051cc:	0792                	slli	a5,a5,0x4
    800051ce:	97ba                	add	a5,a5,a4
    800051d0:	078e                	slli	a5,a5,0x3
    800051d2:	02078713          	addi	a4,a5,32
    800051d6:	0001f797          	auipc	a5,0x1f
    800051da:	c9278793          	addi	a5,a5,-878 # 80023e68 <icache>
    800051de:	97ba                	add	a5,a5,a4
    800051e0:	07a1                	addi	a5,a5,8
    800051e2:	00007597          	auipc	a1,0x7
    800051e6:	2c658593          	addi	a1,a1,710 # 8000c4a8 <etext+0x4a8>
    800051ea:	853e                	mv	a0,a5
    800051ec:	00001097          	auipc	ra,0x1
    800051f0:	7e0080e7          	jalr	2016(ra) # 800069cc <initsleeplock>
    800051f4:	fec42783          	lw	a5,-20(s0)
    800051f8:	2785                	addiw	a5,a5,1
    800051fa:	fef42623          	sw	a5,-20(s0)
    800051fe:	fec42783          	lw	a5,-20(s0)
    80005202:	0007871b          	sext.w	a4,a5
    80005206:	03100793          	li	a5,49
    8000520a:	fae7dee3          	bge	a5,a4,800051c6 <iinit+0x2a>
    8000520e:	0001                	nop
    80005210:	0001                	nop
    80005212:	60e2                	ld	ra,24(sp)
    80005214:	6442                	ld	s0,16(sp)
    80005216:	6105                	addi	sp,sp,32
    80005218:	8082                	ret

000000008000521a <ialloc>:
    8000521a:	7139                	addi	sp,sp,-64
    8000521c:	fc06                	sd	ra,56(sp)
    8000521e:	f822                	sd	s0,48(sp)
    80005220:	0080                	addi	s0,sp,64
    80005222:	87aa                	mv	a5,a0
    80005224:	872e                	mv	a4,a1
    80005226:	fcf42623          	sw	a5,-52(s0)
    8000522a:	87ba                	mv	a5,a4
    8000522c:	fcf41523          	sh	a5,-54(s0)
    80005230:	4785                	li	a5,1
    80005232:	fef42623          	sw	a5,-20(s0)
    80005236:	a855                	j	800052ea <ialloc+0xd0>
    80005238:	fec42783          	lw	a5,-20(s0)
    8000523c:	8391                	srli	a5,a5,0x4
    8000523e:	0007871b          	sext.w	a4,a5
    80005242:	0001f797          	auipc	a5,0x1f
    80005246:	c0678793          	addi	a5,a5,-1018 # 80023e48 <sb>
    8000524a:	4f9c                	lw	a5,24(a5)
    8000524c:	9fb9                	addw	a5,a5,a4
    8000524e:	0007871b          	sext.w	a4,a5
    80005252:	fcc42783          	lw	a5,-52(s0)
    80005256:	85ba                	mv	a1,a4
    80005258:	853e                	mv	a0,a5
    8000525a:	00000097          	auipc	ra,0x0
    8000525e:	93c080e7          	jalr	-1732(ra) # 80004b96 <bread>
    80005262:	fea43023          	sd	a0,-32(s0)
    80005266:	fe043783          	ld	a5,-32(s0)
    8000526a:	05878713          	addi	a4,a5,88
    8000526e:	fec42783          	lw	a5,-20(s0)
    80005272:	8bbd                	andi	a5,a5,15
    80005274:	079a                	slli	a5,a5,0x6
    80005276:	97ba                	add	a5,a5,a4
    80005278:	fcf43c23          	sd	a5,-40(s0)
    8000527c:	fd843783          	ld	a5,-40(s0)
    80005280:	00079783          	lh	a5,0(a5)
    80005284:	eba1                	bnez	a5,800052d4 <ialloc+0xba>
    80005286:	04000613          	li	a2,64
    8000528a:	4581                	li	a1,0
    8000528c:	fd843503          	ld	a0,-40(s0)
    80005290:	ffffc097          	auipc	ra,0xffffc
    80005294:	216080e7          	jalr	534(ra) # 800014a6 <memset>
    80005298:	fd843783          	ld	a5,-40(s0)
    8000529c:	fca45703          	lhu	a4,-54(s0)
    800052a0:	00e79023          	sh	a4,0(a5)
    800052a4:	fe043503          	ld	a0,-32(s0)
    800052a8:	00001097          	auipc	ra,0x1
    800052ac:	5f0080e7          	jalr	1520(ra) # 80006898 <log_write>
    800052b0:	fe043503          	ld	a0,-32(s0)
    800052b4:	00000097          	auipc	ra,0x0
    800052b8:	984080e7          	jalr	-1660(ra) # 80004c38 <brelse>
    800052bc:	fec42703          	lw	a4,-20(s0)
    800052c0:	fcc42783          	lw	a5,-52(s0)
    800052c4:	85ba                	mv	a1,a4
    800052c6:	853e                	mv	a0,a5
    800052c8:	00000097          	auipc	ra,0x0
    800052cc:	136080e7          	jalr	310(ra) # 800053fe <iget>
    800052d0:	87aa                	mv	a5,a0
    800052d2:	a82d                	j	8000530c <ialloc+0xf2>
    800052d4:	fe043503          	ld	a0,-32(s0)
    800052d8:	00000097          	auipc	ra,0x0
    800052dc:	960080e7          	jalr	-1696(ra) # 80004c38 <brelse>
    800052e0:	fec42783          	lw	a5,-20(s0)
    800052e4:	2785                	addiw	a5,a5,1
    800052e6:	fef42623          	sw	a5,-20(s0)
    800052ea:	0001f797          	auipc	a5,0x1f
    800052ee:	b5e78793          	addi	a5,a5,-1186 # 80023e48 <sb>
    800052f2:	47d8                	lw	a4,12(a5)
    800052f4:	fec42783          	lw	a5,-20(s0)
    800052f8:	f4e7e0e3          	bltu	a5,a4,80005238 <ialloc+0x1e>
    800052fc:	00007517          	auipc	a0,0x7
    80005300:	1b450513          	addi	a0,a0,436 # 8000c4b0 <etext+0x4b0>
    80005304:	ffffc097          	auipc	ra,0xffffc
    80005308:	99a080e7          	jalr	-1638(ra) # 80000c9e <panic>
    8000530c:	853e                	mv	a0,a5
    8000530e:	70e2                	ld	ra,56(sp)
    80005310:	7442                	ld	s0,48(sp)
    80005312:	6121                	addi	sp,sp,64
    80005314:	8082                	ret

0000000080005316 <iupdate>:
    80005316:	7179                	addi	sp,sp,-48
    80005318:	f406                	sd	ra,40(sp)
    8000531a:	f022                	sd	s0,32(sp)
    8000531c:	1800                	addi	s0,sp,48
    8000531e:	fca43c23          	sd	a0,-40(s0)
    80005322:	fd843783          	ld	a5,-40(s0)
    80005326:	4394                	lw	a3,0(a5)
    80005328:	fd843783          	ld	a5,-40(s0)
    8000532c:	43dc                	lw	a5,4(a5)
    8000532e:	0047d79b          	srliw	a5,a5,0x4
    80005332:	0007871b          	sext.w	a4,a5
    80005336:	0001f797          	auipc	a5,0x1f
    8000533a:	b1278793          	addi	a5,a5,-1262 # 80023e48 <sb>
    8000533e:	4f9c                	lw	a5,24(a5)
    80005340:	9fb9                	addw	a5,a5,a4
    80005342:	2781                	sext.w	a5,a5
    80005344:	85be                	mv	a1,a5
    80005346:	8536                	mv	a0,a3
    80005348:	00000097          	auipc	ra,0x0
    8000534c:	84e080e7          	jalr	-1970(ra) # 80004b96 <bread>
    80005350:	fea43423          	sd	a0,-24(s0)
    80005354:	fe843783          	ld	a5,-24(s0)
    80005358:	05878713          	addi	a4,a5,88
    8000535c:	fd843783          	ld	a5,-40(s0)
    80005360:	43dc                	lw	a5,4(a5)
    80005362:	1782                	slli	a5,a5,0x20
    80005364:	9381                	srli	a5,a5,0x20
    80005366:	8bbd                	andi	a5,a5,15
    80005368:	079a                	slli	a5,a5,0x6
    8000536a:	97ba                	add	a5,a5,a4
    8000536c:	fef43023          	sd	a5,-32(s0)
    80005370:	fd843783          	ld	a5,-40(s0)
    80005374:	04479703          	lh	a4,68(a5)
    80005378:	fe043783          	ld	a5,-32(s0)
    8000537c:	00e79023          	sh	a4,0(a5)
    80005380:	fd843783          	ld	a5,-40(s0)
    80005384:	04679703          	lh	a4,70(a5)
    80005388:	fe043783          	ld	a5,-32(s0)
    8000538c:	00e79123          	sh	a4,2(a5)
    80005390:	fd843783          	ld	a5,-40(s0)
    80005394:	04879703          	lh	a4,72(a5)
    80005398:	fe043783          	ld	a5,-32(s0)
    8000539c:	00e79223          	sh	a4,4(a5)
    800053a0:	fd843783          	ld	a5,-40(s0)
    800053a4:	04a79703          	lh	a4,74(a5)
    800053a8:	fe043783          	ld	a5,-32(s0)
    800053ac:	00e79323          	sh	a4,6(a5)
    800053b0:	fd843783          	ld	a5,-40(s0)
    800053b4:	47f8                	lw	a4,76(a5)
    800053b6:	fe043783          	ld	a5,-32(s0)
    800053ba:	c798                	sw	a4,8(a5)
    800053bc:	fe043783          	ld	a5,-32(s0)
    800053c0:	00c78713          	addi	a4,a5,12
    800053c4:	fd843783          	ld	a5,-40(s0)
    800053c8:	05078793          	addi	a5,a5,80
    800053cc:	03400613          	li	a2,52
    800053d0:	85be                	mv	a1,a5
    800053d2:	853a                	mv	a0,a4
    800053d4:	ffffc097          	auipc	ra,0xffffc
    800053d8:	1b6080e7          	jalr	438(ra) # 8000158a <memmove>
    800053dc:	fe843503          	ld	a0,-24(s0)
    800053e0:	00001097          	auipc	ra,0x1
    800053e4:	4b8080e7          	jalr	1208(ra) # 80006898 <log_write>
    800053e8:	fe843503          	ld	a0,-24(s0)
    800053ec:	00000097          	auipc	ra,0x0
    800053f0:	84c080e7          	jalr	-1972(ra) # 80004c38 <brelse>
    800053f4:	0001                	nop
    800053f6:	70a2                	ld	ra,40(sp)
    800053f8:	7402                	ld	s0,32(sp)
    800053fa:	6145                	addi	sp,sp,48
    800053fc:	8082                	ret

00000000800053fe <iget>:
    800053fe:	7179                	addi	sp,sp,-48
    80005400:	f406                	sd	ra,40(sp)
    80005402:	f022                	sd	s0,32(sp)
    80005404:	1800                	addi	s0,sp,48
    80005406:	87aa                	mv	a5,a0
    80005408:	872e                	mv	a4,a1
    8000540a:	fcf42e23          	sw	a5,-36(s0)
    8000540e:	87ba                	mv	a5,a4
    80005410:	fcf42c23          	sw	a5,-40(s0)
    80005414:	0001f517          	auipc	a0,0x1f
    80005418:	a5450513          	addi	a0,a0,-1452 # 80023e68 <icache>
    8000541c:	ffffc097          	auipc	ra,0xffffc
    80005420:	eb6080e7          	jalr	-330(ra) # 800012d2 <acquire>
    80005424:	fe043023          	sd	zero,-32(s0)
    80005428:	0001f797          	auipc	a5,0x1f
    8000542c:	a5878793          	addi	a5,a5,-1448 # 80023e80 <icache+0x18>
    80005430:	fef43423          	sd	a5,-24(s0)
    80005434:	a89d                	j	800054aa <iget+0xac>
    80005436:	fe843783          	ld	a5,-24(s0)
    8000543a:	479c                	lw	a5,8(a5)
    8000543c:	04f05663          	blez	a5,80005488 <iget+0x8a>
    80005440:	fe843783          	ld	a5,-24(s0)
    80005444:	4398                	lw	a4,0(a5)
    80005446:	fdc42783          	lw	a5,-36(s0)
    8000544a:	2781                	sext.w	a5,a5
    8000544c:	02e79e63          	bne	a5,a4,80005488 <iget+0x8a>
    80005450:	fe843783          	ld	a5,-24(s0)
    80005454:	43d8                	lw	a4,4(a5)
    80005456:	fd842783          	lw	a5,-40(s0)
    8000545a:	2781                	sext.w	a5,a5
    8000545c:	02e79663          	bne	a5,a4,80005488 <iget+0x8a>
    80005460:	fe843783          	ld	a5,-24(s0)
    80005464:	479c                	lw	a5,8(a5)
    80005466:	2785                	addiw	a5,a5,1
    80005468:	0007871b          	sext.w	a4,a5
    8000546c:	fe843783          	ld	a5,-24(s0)
    80005470:	c798                	sw	a4,8(a5)
    80005472:	0001f517          	auipc	a0,0x1f
    80005476:	9f650513          	addi	a0,a0,-1546 # 80023e68 <icache>
    8000547a:	ffffc097          	auipc	ra,0xffffc
    8000547e:	ebc080e7          	jalr	-324(ra) # 80001336 <release>
    80005482:	fe843783          	ld	a5,-24(s0)
    80005486:	a069                	j	80005510 <iget+0x112>
    80005488:	fe043783          	ld	a5,-32(s0)
    8000548c:	eb89                	bnez	a5,8000549e <iget+0xa0>
    8000548e:	fe843783          	ld	a5,-24(s0)
    80005492:	479c                	lw	a5,8(a5)
    80005494:	e789                	bnez	a5,8000549e <iget+0xa0>
    80005496:	fe843783          	ld	a5,-24(s0)
    8000549a:	fef43023          	sd	a5,-32(s0)
    8000549e:	fe843783          	ld	a5,-24(s0)
    800054a2:	08878793          	addi	a5,a5,136
    800054a6:	fef43423          	sd	a5,-24(s0)
    800054aa:	fe843703          	ld	a4,-24(s0)
    800054ae:	00020797          	auipc	a5,0x20
    800054b2:	46278793          	addi	a5,a5,1122 # 80025910 <log>
    800054b6:	f8f760e3          	bltu	a4,a5,80005436 <iget+0x38>
    800054ba:	fe043783          	ld	a5,-32(s0)
    800054be:	eb89                	bnez	a5,800054d0 <iget+0xd2>
    800054c0:	00007517          	auipc	a0,0x7
    800054c4:	00850513          	addi	a0,a0,8 # 8000c4c8 <etext+0x4c8>
    800054c8:	ffffb097          	auipc	ra,0xffffb
    800054cc:	7d6080e7          	jalr	2006(ra) # 80000c9e <panic>
    800054d0:	fe043783          	ld	a5,-32(s0)
    800054d4:	fef43423          	sd	a5,-24(s0)
    800054d8:	fe843783          	ld	a5,-24(s0)
    800054dc:	fdc42703          	lw	a4,-36(s0)
    800054e0:	c398                	sw	a4,0(a5)
    800054e2:	fe843783          	ld	a5,-24(s0)
    800054e6:	fd842703          	lw	a4,-40(s0)
    800054ea:	c3d8                	sw	a4,4(a5)
    800054ec:	fe843783          	ld	a5,-24(s0)
    800054f0:	4705                	li	a4,1
    800054f2:	c798                	sw	a4,8(a5)
    800054f4:	fe843783          	ld	a5,-24(s0)
    800054f8:	0407a023          	sw	zero,64(a5)
    800054fc:	0001f517          	auipc	a0,0x1f
    80005500:	96c50513          	addi	a0,a0,-1684 # 80023e68 <icache>
    80005504:	ffffc097          	auipc	ra,0xffffc
    80005508:	e32080e7          	jalr	-462(ra) # 80001336 <release>
    8000550c:	fe843783          	ld	a5,-24(s0)
    80005510:	853e                	mv	a0,a5
    80005512:	70a2                	ld	ra,40(sp)
    80005514:	7402                	ld	s0,32(sp)
    80005516:	6145                	addi	sp,sp,48
    80005518:	8082                	ret

000000008000551a <idup>:
    8000551a:	1101                	addi	sp,sp,-32
    8000551c:	ec06                	sd	ra,24(sp)
    8000551e:	e822                	sd	s0,16(sp)
    80005520:	1000                	addi	s0,sp,32
    80005522:	fea43423          	sd	a0,-24(s0)
    80005526:	0001f517          	auipc	a0,0x1f
    8000552a:	94250513          	addi	a0,a0,-1726 # 80023e68 <icache>
    8000552e:	ffffc097          	auipc	ra,0xffffc
    80005532:	da4080e7          	jalr	-604(ra) # 800012d2 <acquire>
    80005536:	fe843783          	ld	a5,-24(s0)
    8000553a:	479c                	lw	a5,8(a5)
    8000553c:	2785                	addiw	a5,a5,1
    8000553e:	0007871b          	sext.w	a4,a5
    80005542:	fe843783          	ld	a5,-24(s0)
    80005546:	c798                	sw	a4,8(a5)
    80005548:	0001f517          	auipc	a0,0x1f
    8000554c:	92050513          	addi	a0,a0,-1760 # 80023e68 <icache>
    80005550:	ffffc097          	auipc	ra,0xffffc
    80005554:	de6080e7          	jalr	-538(ra) # 80001336 <release>
    80005558:	fe843783          	ld	a5,-24(s0)
    8000555c:	853e                	mv	a0,a5
    8000555e:	60e2                	ld	ra,24(sp)
    80005560:	6442                	ld	s0,16(sp)
    80005562:	6105                	addi	sp,sp,32
    80005564:	8082                	ret

0000000080005566 <ilock>:
    80005566:	7179                	addi	sp,sp,-48
    80005568:	f406                	sd	ra,40(sp)
    8000556a:	f022                	sd	s0,32(sp)
    8000556c:	1800                	addi	s0,sp,48
    8000556e:	fca43c23          	sd	a0,-40(s0)
    80005572:	fd843783          	ld	a5,-40(s0)
    80005576:	c791                	beqz	a5,80005582 <ilock+0x1c>
    80005578:	fd843783          	ld	a5,-40(s0)
    8000557c:	479c                	lw	a5,8(a5)
    8000557e:	00f04a63          	bgtz	a5,80005592 <ilock+0x2c>
    80005582:	00007517          	auipc	a0,0x7
    80005586:	f5650513          	addi	a0,a0,-170 # 8000c4d8 <etext+0x4d8>
    8000558a:	ffffb097          	auipc	ra,0xffffb
    8000558e:	714080e7          	jalr	1812(ra) # 80000c9e <panic>
    80005592:	fd843783          	ld	a5,-40(s0)
    80005596:	07c1                	addi	a5,a5,16
    80005598:	853e                	mv	a0,a5
    8000559a:	00001097          	auipc	ra,0x1
    8000559e:	47e080e7          	jalr	1150(ra) # 80006a18 <acquiresleep>
    800055a2:	fd843783          	ld	a5,-40(s0)
    800055a6:	43bc                	lw	a5,64(a5)
    800055a8:	e7e5                	bnez	a5,80005690 <ilock+0x12a>
    800055aa:	fd843783          	ld	a5,-40(s0)
    800055ae:	4394                	lw	a3,0(a5)
    800055b0:	fd843783          	ld	a5,-40(s0)
    800055b4:	43dc                	lw	a5,4(a5)
    800055b6:	0047d79b          	srliw	a5,a5,0x4
    800055ba:	0007871b          	sext.w	a4,a5
    800055be:	0001f797          	auipc	a5,0x1f
    800055c2:	88a78793          	addi	a5,a5,-1910 # 80023e48 <sb>
    800055c6:	4f9c                	lw	a5,24(a5)
    800055c8:	9fb9                	addw	a5,a5,a4
    800055ca:	2781                	sext.w	a5,a5
    800055cc:	85be                	mv	a1,a5
    800055ce:	8536                	mv	a0,a3
    800055d0:	fffff097          	auipc	ra,0xfffff
    800055d4:	5c6080e7          	jalr	1478(ra) # 80004b96 <bread>
    800055d8:	fea43423          	sd	a0,-24(s0)
    800055dc:	fe843783          	ld	a5,-24(s0)
    800055e0:	05878713          	addi	a4,a5,88
    800055e4:	fd843783          	ld	a5,-40(s0)
    800055e8:	43dc                	lw	a5,4(a5)
    800055ea:	1782                	slli	a5,a5,0x20
    800055ec:	9381                	srli	a5,a5,0x20
    800055ee:	8bbd                	andi	a5,a5,15
    800055f0:	079a                	slli	a5,a5,0x6
    800055f2:	97ba                	add	a5,a5,a4
    800055f4:	fef43023          	sd	a5,-32(s0)
    800055f8:	fe043783          	ld	a5,-32(s0)
    800055fc:	00079703          	lh	a4,0(a5)
    80005600:	fd843783          	ld	a5,-40(s0)
    80005604:	04e79223          	sh	a4,68(a5)
    80005608:	fe043783          	ld	a5,-32(s0)
    8000560c:	00279703          	lh	a4,2(a5)
    80005610:	fd843783          	ld	a5,-40(s0)
    80005614:	04e79323          	sh	a4,70(a5)
    80005618:	fe043783          	ld	a5,-32(s0)
    8000561c:	00479703          	lh	a4,4(a5)
    80005620:	fd843783          	ld	a5,-40(s0)
    80005624:	04e79423          	sh	a4,72(a5)
    80005628:	fe043783          	ld	a5,-32(s0)
    8000562c:	00679703          	lh	a4,6(a5)
    80005630:	fd843783          	ld	a5,-40(s0)
    80005634:	04e79523          	sh	a4,74(a5)
    80005638:	fe043783          	ld	a5,-32(s0)
    8000563c:	4798                	lw	a4,8(a5)
    8000563e:	fd843783          	ld	a5,-40(s0)
    80005642:	c7f8                	sw	a4,76(a5)
    80005644:	fd843783          	ld	a5,-40(s0)
    80005648:	05078713          	addi	a4,a5,80
    8000564c:	fe043783          	ld	a5,-32(s0)
    80005650:	07b1                	addi	a5,a5,12
    80005652:	03400613          	li	a2,52
    80005656:	85be                	mv	a1,a5
    80005658:	853a                	mv	a0,a4
    8000565a:	ffffc097          	auipc	ra,0xffffc
    8000565e:	f30080e7          	jalr	-208(ra) # 8000158a <memmove>
    80005662:	fe843503          	ld	a0,-24(s0)
    80005666:	fffff097          	auipc	ra,0xfffff
    8000566a:	5d2080e7          	jalr	1490(ra) # 80004c38 <brelse>
    8000566e:	fd843783          	ld	a5,-40(s0)
    80005672:	4705                	li	a4,1
    80005674:	c3b8                	sw	a4,64(a5)
    80005676:	fd843783          	ld	a5,-40(s0)
    8000567a:	04479783          	lh	a5,68(a5)
    8000567e:	eb89                	bnez	a5,80005690 <ilock+0x12a>
    80005680:	00007517          	auipc	a0,0x7
    80005684:	e6050513          	addi	a0,a0,-416 # 8000c4e0 <etext+0x4e0>
    80005688:	ffffb097          	auipc	ra,0xffffb
    8000568c:	616080e7          	jalr	1558(ra) # 80000c9e <panic>
    80005690:	0001                	nop
    80005692:	70a2                	ld	ra,40(sp)
    80005694:	7402                	ld	s0,32(sp)
    80005696:	6145                	addi	sp,sp,48
    80005698:	8082                	ret

000000008000569a <iunlock>:
    8000569a:	1101                	addi	sp,sp,-32
    8000569c:	ec06                	sd	ra,24(sp)
    8000569e:	e822                	sd	s0,16(sp)
    800056a0:	1000                	addi	s0,sp,32
    800056a2:	fea43423          	sd	a0,-24(s0)
    800056a6:	fe843783          	ld	a5,-24(s0)
    800056aa:	c385                	beqz	a5,800056ca <iunlock+0x30>
    800056ac:	fe843783          	ld	a5,-24(s0)
    800056b0:	07c1                	addi	a5,a5,16
    800056b2:	853e                	mv	a0,a5
    800056b4:	00001097          	auipc	ra,0x1
    800056b8:	424080e7          	jalr	1060(ra) # 80006ad8 <holdingsleep>
    800056bc:	87aa                	mv	a5,a0
    800056be:	c791                	beqz	a5,800056ca <iunlock+0x30>
    800056c0:	fe843783          	ld	a5,-24(s0)
    800056c4:	479c                	lw	a5,8(a5)
    800056c6:	00f04a63          	bgtz	a5,800056da <iunlock+0x40>
    800056ca:	00007517          	auipc	a0,0x7
    800056ce:	e2650513          	addi	a0,a0,-474 # 8000c4f0 <etext+0x4f0>
    800056d2:	ffffb097          	auipc	ra,0xffffb
    800056d6:	5cc080e7          	jalr	1484(ra) # 80000c9e <panic>
    800056da:	fe843783          	ld	a5,-24(s0)
    800056de:	07c1                	addi	a5,a5,16
    800056e0:	853e                	mv	a0,a5
    800056e2:	00001097          	auipc	ra,0x1
    800056e6:	3a4080e7          	jalr	932(ra) # 80006a86 <releasesleep>
    800056ea:	0001                	nop
    800056ec:	60e2                	ld	ra,24(sp)
    800056ee:	6442                	ld	s0,16(sp)
    800056f0:	6105                	addi	sp,sp,32
    800056f2:	8082                	ret

00000000800056f4 <iput>:
    800056f4:	1101                	addi	sp,sp,-32
    800056f6:	ec06                	sd	ra,24(sp)
    800056f8:	e822                	sd	s0,16(sp)
    800056fa:	1000                	addi	s0,sp,32
    800056fc:	fea43423          	sd	a0,-24(s0)
    80005700:	0001e517          	auipc	a0,0x1e
    80005704:	76850513          	addi	a0,a0,1896 # 80023e68 <icache>
    80005708:	ffffc097          	auipc	ra,0xffffc
    8000570c:	bca080e7          	jalr	-1078(ra) # 800012d2 <acquire>
    80005710:	fe843783          	ld	a5,-24(s0)
    80005714:	479c                	lw	a5,8(a5)
    80005716:	873e                	mv	a4,a5
    80005718:	4785                	li	a5,1
    8000571a:	06f71f63          	bne	a4,a5,80005798 <iput+0xa4>
    8000571e:	fe843783          	ld	a5,-24(s0)
    80005722:	43bc                	lw	a5,64(a5)
    80005724:	cbb5                	beqz	a5,80005798 <iput+0xa4>
    80005726:	fe843783          	ld	a5,-24(s0)
    8000572a:	04a79783          	lh	a5,74(a5)
    8000572e:	e7ad                	bnez	a5,80005798 <iput+0xa4>
    80005730:	fe843783          	ld	a5,-24(s0)
    80005734:	07c1                	addi	a5,a5,16
    80005736:	853e                	mv	a0,a5
    80005738:	00001097          	auipc	ra,0x1
    8000573c:	2e0080e7          	jalr	736(ra) # 80006a18 <acquiresleep>
    80005740:	0001e517          	auipc	a0,0x1e
    80005744:	72850513          	addi	a0,a0,1832 # 80023e68 <icache>
    80005748:	ffffc097          	auipc	ra,0xffffc
    8000574c:	bee080e7          	jalr	-1042(ra) # 80001336 <release>
    80005750:	fe843503          	ld	a0,-24(s0)
    80005754:	00000097          	auipc	ra,0x0
    80005758:	1fa080e7          	jalr	506(ra) # 8000594e <itrunc>
    8000575c:	fe843783          	ld	a5,-24(s0)
    80005760:	04079223          	sh	zero,68(a5)
    80005764:	fe843503          	ld	a0,-24(s0)
    80005768:	00000097          	auipc	ra,0x0
    8000576c:	bae080e7          	jalr	-1106(ra) # 80005316 <iupdate>
    80005770:	fe843783          	ld	a5,-24(s0)
    80005774:	0407a023          	sw	zero,64(a5)
    80005778:	fe843783          	ld	a5,-24(s0)
    8000577c:	07c1                	addi	a5,a5,16
    8000577e:	853e                	mv	a0,a5
    80005780:	00001097          	auipc	ra,0x1
    80005784:	306080e7          	jalr	774(ra) # 80006a86 <releasesleep>
    80005788:	0001e517          	auipc	a0,0x1e
    8000578c:	6e050513          	addi	a0,a0,1760 # 80023e68 <icache>
    80005790:	ffffc097          	auipc	ra,0xffffc
    80005794:	b42080e7          	jalr	-1214(ra) # 800012d2 <acquire>
    80005798:	fe843783          	ld	a5,-24(s0)
    8000579c:	479c                	lw	a5,8(a5)
    8000579e:	37fd                	addiw	a5,a5,-1
    800057a0:	0007871b          	sext.w	a4,a5
    800057a4:	fe843783          	ld	a5,-24(s0)
    800057a8:	c798                	sw	a4,8(a5)
    800057aa:	0001e517          	auipc	a0,0x1e
    800057ae:	6be50513          	addi	a0,a0,1726 # 80023e68 <icache>
    800057b2:	ffffc097          	auipc	ra,0xffffc
    800057b6:	b84080e7          	jalr	-1148(ra) # 80001336 <release>
    800057ba:	0001                	nop
    800057bc:	60e2                	ld	ra,24(sp)
    800057be:	6442                	ld	s0,16(sp)
    800057c0:	6105                	addi	sp,sp,32
    800057c2:	8082                	ret

00000000800057c4 <iunlockput>:
    800057c4:	1101                	addi	sp,sp,-32
    800057c6:	ec06                	sd	ra,24(sp)
    800057c8:	e822                	sd	s0,16(sp)
    800057ca:	1000                	addi	s0,sp,32
    800057cc:	fea43423          	sd	a0,-24(s0)
    800057d0:	fe843503          	ld	a0,-24(s0)
    800057d4:	00000097          	auipc	ra,0x0
    800057d8:	ec6080e7          	jalr	-314(ra) # 8000569a <iunlock>
    800057dc:	fe843503          	ld	a0,-24(s0)
    800057e0:	00000097          	auipc	ra,0x0
    800057e4:	f14080e7          	jalr	-236(ra) # 800056f4 <iput>
    800057e8:	0001                	nop
    800057ea:	60e2                	ld	ra,24(sp)
    800057ec:	6442                	ld	s0,16(sp)
    800057ee:	6105                	addi	sp,sp,32
    800057f0:	8082                	ret

00000000800057f2 <bmap>:
    800057f2:	7139                	addi	sp,sp,-64
    800057f4:	fc06                	sd	ra,56(sp)
    800057f6:	f822                	sd	s0,48(sp)
    800057f8:	0080                	addi	s0,sp,64
    800057fa:	fca43423          	sd	a0,-56(s0)
    800057fe:	87ae                	mv	a5,a1
    80005800:	fcf42223          	sw	a5,-60(s0)
    80005804:	fc442783          	lw	a5,-60(s0)
    80005808:	0007871b          	sext.w	a4,a5
    8000580c:	47ad                	li	a5,11
    8000580e:	04e7e863          	bltu	a5,a4,8000585e <bmap+0x6c>
    80005812:	fc843703          	ld	a4,-56(s0)
    80005816:	fc446783          	lwu	a5,-60(s0)
    8000581a:	07d1                	addi	a5,a5,20
    8000581c:	078a                	slli	a5,a5,0x2
    8000581e:	97ba                	add	a5,a5,a4
    80005820:	439c                	lw	a5,0(a5)
    80005822:	fef42623          	sw	a5,-20(s0)
    80005826:	fec42783          	lw	a5,-20(s0)
    8000582a:	2781                	sext.w	a5,a5
    8000582c:	e795                	bnez	a5,80005858 <bmap+0x66>
    8000582e:	fc843783          	ld	a5,-56(s0)
    80005832:	439c                	lw	a5,0(a5)
    80005834:	853e                	mv	a0,a5
    80005836:	fffff097          	auipc	ra,0xfffff
    8000583a:	6aa080e7          	jalr	1706(ra) # 80004ee0 <balloc>
    8000583e:	87aa                	mv	a5,a0
    80005840:	fef42623          	sw	a5,-20(s0)
    80005844:	fc843703          	ld	a4,-56(s0)
    80005848:	fc446783          	lwu	a5,-60(s0)
    8000584c:	07d1                	addi	a5,a5,20
    8000584e:	078a                	slli	a5,a5,0x2
    80005850:	97ba                	add	a5,a5,a4
    80005852:	fec42703          	lw	a4,-20(s0)
    80005856:	c398                	sw	a4,0(a5)
    80005858:	fec42783          	lw	a5,-20(s0)
    8000585c:	a0e5                	j	80005944 <bmap+0x152>
    8000585e:	fc442783          	lw	a5,-60(s0)
    80005862:	37d1                	addiw	a5,a5,-12
    80005864:	fcf42223          	sw	a5,-60(s0)
    80005868:	fc442783          	lw	a5,-60(s0)
    8000586c:	0007871b          	sext.w	a4,a5
    80005870:	0ff00793          	li	a5,255
    80005874:	0ce7e063          	bltu	a5,a4,80005934 <bmap+0x142>
    80005878:	fc843783          	ld	a5,-56(s0)
    8000587c:	0807a783          	lw	a5,128(a5)
    80005880:	fef42623          	sw	a5,-20(s0)
    80005884:	fec42783          	lw	a5,-20(s0)
    80005888:	2781                	sext.w	a5,a5
    8000588a:	e395                	bnez	a5,800058ae <bmap+0xbc>
    8000588c:	fc843783          	ld	a5,-56(s0)
    80005890:	439c                	lw	a5,0(a5)
    80005892:	853e                	mv	a0,a5
    80005894:	fffff097          	auipc	ra,0xfffff
    80005898:	64c080e7          	jalr	1612(ra) # 80004ee0 <balloc>
    8000589c:	87aa                	mv	a5,a0
    8000589e:	fef42623          	sw	a5,-20(s0)
    800058a2:	fc843783          	ld	a5,-56(s0)
    800058a6:	fec42703          	lw	a4,-20(s0)
    800058aa:	08e7a023          	sw	a4,128(a5)
    800058ae:	fc843783          	ld	a5,-56(s0)
    800058b2:	439c                	lw	a5,0(a5)
    800058b4:	fec42703          	lw	a4,-20(s0)
    800058b8:	85ba                	mv	a1,a4
    800058ba:	853e                	mv	a0,a5
    800058bc:	fffff097          	auipc	ra,0xfffff
    800058c0:	2da080e7          	jalr	730(ra) # 80004b96 <bread>
    800058c4:	fea43023          	sd	a0,-32(s0)
    800058c8:	fe043783          	ld	a5,-32(s0)
    800058cc:	05878793          	addi	a5,a5,88
    800058d0:	fcf43c23          	sd	a5,-40(s0)
    800058d4:	fc446783          	lwu	a5,-60(s0)
    800058d8:	078a                	slli	a5,a5,0x2
    800058da:	fd843703          	ld	a4,-40(s0)
    800058de:	97ba                	add	a5,a5,a4
    800058e0:	439c                	lw	a5,0(a5)
    800058e2:	fef42623          	sw	a5,-20(s0)
    800058e6:	fec42783          	lw	a5,-20(s0)
    800058ea:	2781                	sext.w	a5,a5
    800058ec:	eb9d                	bnez	a5,80005922 <bmap+0x130>
    800058ee:	fc843783          	ld	a5,-56(s0)
    800058f2:	439c                	lw	a5,0(a5)
    800058f4:	853e                	mv	a0,a5
    800058f6:	fffff097          	auipc	ra,0xfffff
    800058fa:	5ea080e7          	jalr	1514(ra) # 80004ee0 <balloc>
    800058fe:	87aa                	mv	a5,a0
    80005900:	fef42623          	sw	a5,-20(s0)
    80005904:	fc446783          	lwu	a5,-60(s0)
    80005908:	078a                	slli	a5,a5,0x2
    8000590a:	fd843703          	ld	a4,-40(s0)
    8000590e:	97ba                	add	a5,a5,a4
    80005910:	fec42703          	lw	a4,-20(s0)
    80005914:	c398                	sw	a4,0(a5)
    80005916:	fe043503          	ld	a0,-32(s0)
    8000591a:	00001097          	auipc	ra,0x1
    8000591e:	f7e080e7          	jalr	-130(ra) # 80006898 <log_write>
    80005922:	fe043503          	ld	a0,-32(s0)
    80005926:	fffff097          	auipc	ra,0xfffff
    8000592a:	312080e7          	jalr	786(ra) # 80004c38 <brelse>
    8000592e:	fec42783          	lw	a5,-20(s0)
    80005932:	a809                	j	80005944 <bmap+0x152>
    80005934:	00007517          	auipc	a0,0x7
    80005938:	bc450513          	addi	a0,a0,-1084 # 8000c4f8 <etext+0x4f8>
    8000593c:	ffffb097          	auipc	ra,0xffffb
    80005940:	362080e7          	jalr	866(ra) # 80000c9e <panic>
    80005944:	853e                	mv	a0,a5
    80005946:	70e2                	ld	ra,56(sp)
    80005948:	7442                	ld	s0,48(sp)
    8000594a:	6121                	addi	sp,sp,64
    8000594c:	8082                	ret

000000008000594e <itrunc>:
    8000594e:	7139                	addi	sp,sp,-64
    80005950:	fc06                	sd	ra,56(sp)
    80005952:	f822                	sd	s0,48(sp)
    80005954:	0080                	addi	s0,sp,64
    80005956:	fca43423          	sd	a0,-56(s0)
    8000595a:	fe042623          	sw	zero,-20(s0)
    8000595e:	a899                	j	800059b4 <itrunc+0x66>
    80005960:	fc843703          	ld	a4,-56(s0)
    80005964:	fec42783          	lw	a5,-20(s0)
    80005968:	07d1                	addi	a5,a5,20
    8000596a:	078a                	slli	a5,a5,0x2
    8000596c:	97ba                	add	a5,a5,a4
    8000596e:	439c                	lw	a5,0(a5)
    80005970:	cf8d                	beqz	a5,800059aa <itrunc+0x5c>
    80005972:	fc843783          	ld	a5,-56(s0)
    80005976:	439c                	lw	a5,0(a5)
    80005978:	0007869b          	sext.w	a3,a5
    8000597c:	fc843703          	ld	a4,-56(s0)
    80005980:	fec42783          	lw	a5,-20(s0)
    80005984:	07d1                	addi	a5,a5,20
    80005986:	078a                	slli	a5,a5,0x2
    80005988:	97ba                	add	a5,a5,a4
    8000598a:	439c                	lw	a5,0(a5)
    8000598c:	85be                	mv	a1,a5
    8000598e:	8536                	mv	a0,a3
    80005990:	fffff097          	auipc	ra,0xfffff
    80005994:	6f6080e7          	jalr	1782(ra) # 80005086 <bfree>
    80005998:	fc843703          	ld	a4,-56(s0)
    8000599c:	fec42783          	lw	a5,-20(s0)
    800059a0:	07d1                	addi	a5,a5,20
    800059a2:	078a                	slli	a5,a5,0x2
    800059a4:	97ba                	add	a5,a5,a4
    800059a6:	0007a023          	sw	zero,0(a5)
    800059aa:	fec42783          	lw	a5,-20(s0)
    800059ae:	2785                	addiw	a5,a5,1
    800059b0:	fef42623          	sw	a5,-20(s0)
    800059b4:	fec42783          	lw	a5,-20(s0)
    800059b8:	0007871b          	sext.w	a4,a5
    800059bc:	47ad                	li	a5,11
    800059be:	fae7d1e3          	bge	a5,a4,80005960 <itrunc+0x12>
    800059c2:	fc843783          	ld	a5,-56(s0)
    800059c6:	0807a783          	lw	a5,128(a5)
    800059ca:	cbc5                	beqz	a5,80005a7a <itrunc+0x12c>
    800059cc:	fc843783          	ld	a5,-56(s0)
    800059d0:	4398                	lw	a4,0(a5)
    800059d2:	fc843783          	ld	a5,-56(s0)
    800059d6:	0807a783          	lw	a5,128(a5)
    800059da:	85be                	mv	a1,a5
    800059dc:	853a                	mv	a0,a4
    800059de:	fffff097          	auipc	ra,0xfffff
    800059e2:	1b8080e7          	jalr	440(ra) # 80004b96 <bread>
    800059e6:	fea43023          	sd	a0,-32(s0)
    800059ea:	fe043783          	ld	a5,-32(s0)
    800059ee:	05878793          	addi	a5,a5,88
    800059f2:	fcf43c23          	sd	a5,-40(s0)
    800059f6:	fe042423          	sw	zero,-24(s0)
    800059fa:	a081                	j	80005a3a <itrunc+0xec>
    800059fc:	fe842783          	lw	a5,-24(s0)
    80005a00:	078a                	slli	a5,a5,0x2
    80005a02:	fd843703          	ld	a4,-40(s0)
    80005a06:	97ba                	add	a5,a5,a4
    80005a08:	439c                	lw	a5,0(a5)
    80005a0a:	c39d                	beqz	a5,80005a30 <itrunc+0xe2>
    80005a0c:	fc843783          	ld	a5,-56(s0)
    80005a10:	439c                	lw	a5,0(a5)
    80005a12:	0007869b          	sext.w	a3,a5
    80005a16:	fe842783          	lw	a5,-24(s0)
    80005a1a:	078a                	slli	a5,a5,0x2
    80005a1c:	fd843703          	ld	a4,-40(s0)
    80005a20:	97ba                	add	a5,a5,a4
    80005a22:	439c                	lw	a5,0(a5)
    80005a24:	85be                	mv	a1,a5
    80005a26:	8536                	mv	a0,a3
    80005a28:	fffff097          	auipc	ra,0xfffff
    80005a2c:	65e080e7          	jalr	1630(ra) # 80005086 <bfree>
    80005a30:	fe842783          	lw	a5,-24(s0)
    80005a34:	2785                	addiw	a5,a5,1
    80005a36:	fef42423          	sw	a5,-24(s0)
    80005a3a:	fe842783          	lw	a5,-24(s0)
    80005a3e:	873e                	mv	a4,a5
    80005a40:	0ff00793          	li	a5,255
    80005a44:	fae7fce3          	bgeu	a5,a4,800059fc <itrunc+0xae>
    80005a48:	fe043503          	ld	a0,-32(s0)
    80005a4c:	fffff097          	auipc	ra,0xfffff
    80005a50:	1ec080e7          	jalr	492(ra) # 80004c38 <brelse>
    80005a54:	fc843783          	ld	a5,-56(s0)
    80005a58:	439c                	lw	a5,0(a5)
    80005a5a:	0007871b          	sext.w	a4,a5
    80005a5e:	fc843783          	ld	a5,-56(s0)
    80005a62:	0807a783          	lw	a5,128(a5)
    80005a66:	85be                	mv	a1,a5
    80005a68:	853a                	mv	a0,a4
    80005a6a:	fffff097          	auipc	ra,0xfffff
    80005a6e:	61c080e7          	jalr	1564(ra) # 80005086 <bfree>
    80005a72:	fc843783          	ld	a5,-56(s0)
    80005a76:	0807a023          	sw	zero,128(a5)
    80005a7a:	fc843783          	ld	a5,-56(s0)
    80005a7e:	0407a623          	sw	zero,76(a5)
    80005a82:	fc843503          	ld	a0,-56(s0)
    80005a86:	00000097          	auipc	ra,0x0
    80005a8a:	890080e7          	jalr	-1904(ra) # 80005316 <iupdate>
    80005a8e:	0001                	nop
    80005a90:	70e2                	ld	ra,56(sp)
    80005a92:	7442                	ld	s0,48(sp)
    80005a94:	6121                	addi	sp,sp,64
    80005a96:	8082                	ret

0000000080005a98 <stati>:
    80005a98:	1101                	addi	sp,sp,-32
    80005a9a:	ec22                	sd	s0,24(sp)
    80005a9c:	1000                	addi	s0,sp,32
    80005a9e:	fea43423          	sd	a0,-24(s0)
    80005aa2:	feb43023          	sd	a1,-32(s0)
    80005aa6:	fe843783          	ld	a5,-24(s0)
    80005aaa:	439c                	lw	a5,0(a5)
    80005aac:	0007871b          	sext.w	a4,a5
    80005ab0:	fe043783          	ld	a5,-32(s0)
    80005ab4:	c398                	sw	a4,0(a5)
    80005ab6:	fe843783          	ld	a5,-24(s0)
    80005aba:	43d8                	lw	a4,4(a5)
    80005abc:	fe043783          	ld	a5,-32(s0)
    80005ac0:	c3d8                	sw	a4,4(a5)
    80005ac2:	fe843783          	ld	a5,-24(s0)
    80005ac6:	04479703          	lh	a4,68(a5)
    80005aca:	fe043783          	ld	a5,-32(s0)
    80005ace:	00e79423          	sh	a4,8(a5)
    80005ad2:	fe843783          	ld	a5,-24(s0)
    80005ad6:	04a79703          	lh	a4,74(a5)
    80005ada:	fe043783          	ld	a5,-32(s0)
    80005ade:	00e79523          	sh	a4,10(a5)
    80005ae2:	fe843783          	ld	a5,-24(s0)
    80005ae6:	47fc                	lw	a5,76(a5)
    80005ae8:	02079713          	slli	a4,a5,0x20
    80005aec:	9301                	srli	a4,a4,0x20
    80005aee:	fe043783          	ld	a5,-32(s0)
    80005af2:	eb98                	sd	a4,16(a5)
    80005af4:	0001                	nop
    80005af6:	6462                	ld	s0,24(sp)
    80005af8:	6105                	addi	sp,sp,32
    80005afa:	8082                	ret

0000000080005afc <readi>:
    80005afc:	711d                	addi	sp,sp,-96
    80005afe:	ec86                	sd	ra,88(sp)
    80005b00:	e8a2                	sd	s0,80(sp)
    80005b02:	e4a6                	sd	s1,72(sp)
    80005b04:	1080                	addi	s0,sp,96
    80005b06:	faa43c23          	sd	a0,-72(s0)
    80005b0a:	87ae                	mv	a5,a1
    80005b0c:	fac43423          	sd	a2,-88(s0)
    80005b10:	faf42a23          	sw	a5,-76(s0)
    80005b14:	87b6                	mv	a5,a3
    80005b16:	faf42823          	sw	a5,-80(s0)
    80005b1a:	87ba                	mv	a5,a4
    80005b1c:	faf42223          	sw	a5,-92(s0)
    80005b20:	fb843783          	ld	a5,-72(s0)
    80005b24:	47f8                	lw	a4,76(a5)
    80005b26:	fb042783          	lw	a5,-80(s0)
    80005b2a:	2781                	sext.w	a5,a5
    80005b2c:	00f76f63          	bltu	a4,a5,80005b4a <readi+0x4e>
    80005b30:	fb042783          	lw	a5,-80(s0)
    80005b34:	873e                	mv	a4,a5
    80005b36:	fa442783          	lw	a5,-92(s0)
    80005b3a:	9fb9                	addw	a5,a5,a4
    80005b3c:	0007871b          	sext.w	a4,a5
    80005b40:	fb042783          	lw	a5,-80(s0)
    80005b44:	2781                	sext.w	a5,a5
    80005b46:	00f77463          	bgeu	a4,a5,80005b4e <readi+0x52>
    80005b4a:	4781                	li	a5,0
    80005b4c:	a23d                	j	80005c7a <readi+0x17e>
    80005b4e:	fb042783          	lw	a5,-80(s0)
    80005b52:	873e                	mv	a4,a5
    80005b54:	fa442783          	lw	a5,-92(s0)
    80005b58:	9fb9                	addw	a5,a5,a4
    80005b5a:	0007871b          	sext.w	a4,a5
    80005b5e:	fb843783          	ld	a5,-72(s0)
    80005b62:	47fc                	lw	a5,76(a5)
    80005b64:	00e7fa63          	bgeu	a5,a4,80005b78 <readi+0x7c>
    80005b68:	fb843783          	ld	a5,-72(s0)
    80005b6c:	47fc                	lw	a5,76(a5)
    80005b6e:	fb042703          	lw	a4,-80(s0)
    80005b72:	9f99                	subw	a5,a5,a4
    80005b74:	faf42223          	sw	a5,-92(s0)
    80005b78:	fc042e23          	sw	zero,-36(s0)
    80005b7c:	a0e5                	j	80005c64 <readi+0x168>
    80005b7e:	fb843783          	ld	a5,-72(s0)
    80005b82:	4384                	lw	s1,0(a5)
    80005b84:	fb042783          	lw	a5,-80(s0)
    80005b88:	00a7d79b          	srliw	a5,a5,0xa
    80005b8c:	2781                	sext.w	a5,a5
    80005b8e:	85be                	mv	a1,a5
    80005b90:	fb843503          	ld	a0,-72(s0)
    80005b94:	00000097          	auipc	ra,0x0
    80005b98:	c5e080e7          	jalr	-930(ra) # 800057f2 <bmap>
    80005b9c:	87aa                	mv	a5,a0
    80005b9e:	2781                	sext.w	a5,a5
    80005ba0:	85be                	mv	a1,a5
    80005ba2:	8526                	mv	a0,s1
    80005ba4:	fffff097          	auipc	ra,0xfffff
    80005ba8:	ff2080e7          	jalr	-14(ra) # 80004b96 <bread>
    80005bac:	fca43823          	sd	a0,-48(s0)
    80005bb0:	fb042783          	lw	a5,-80(s0)
    80005bb4:	3ff7f793          	andi	a5,a5,1023
    80005bb8:	2781                	sext.w	a5,a5
    80005bba:	40000713          	li	a4,1024
    80005bbe:	40f707bb          	subw	a5,a4,a5
    80005bc2:	2781                	sext.w	a5,a5
    80005bc4:	fa442703          	lw	a4,-92(s0)
    80005bc8:	86ba                	mv	a3,a4
    80005bca:	fdc42703          	lw	a4,-36(s0)
    80005bce:	40e6873b          	subw	a4,a3,a4
    80005bd2:	2701                	sext.w	a4,a4
    80005bd4:	863a                	mv	a2,a4
    80005bd6:	0007869b          	sext.w	a3,a5
    80005bda:	0006071b          	sext.w	a4,a2
    80005bde:	00d77363          	bgeu	a4,a3,80005be4 <readi+0xe8>
    80005be2:	87b2                	mv	a5,a2
    80005be4:	fcf42623          	sw	a5,-52(s0)
    80005be8:	fd043783          	ld	a5,-48(s0)
    80005bec:	05878713          	addi	a4,a5,88
    80005bf0:	fb046783          	lwu	a5,-80(s0)
    80005bf4:	3ff7f793          	andi	a5,a5,1023
    80005bf8:	973e                	add	a4,a4,a5
    80005bfa:	fcc46683          	lwu	a3,-52(s0)
    80005bfe:	fb442783          	lw	a5,-76(s0)
    80005c02:	863a                	mv	a2,a4
    80005c04:	fa843583          	ld	a1,-88(s0)
    80005c08:	853e                	mv	a0,a5
    80005c0a:	ffffe097          	auipc	ra,0xffffe
    80005c0e:	f1a080e7          	jalr	-230(ra) # 80003b24 <either_copyout>
    80005c12:	87aa                	mv	a5,a0
    80005c14:	873e                	mv	a4,a5
    80005c16:	57fd                	li	a5,-1
    80005c18:	00f71963          	bne	a4,a5,80005c2a <readi+0x12e>
    80005c1c:	fd043503          	ld	a0,-48(s0)
    80005c20:	fffff097          	auipc	ra,0xfffff
    80005c24:	018080e7          	jalr	24(ra) # 80004c38 <brelse>
    80005c28:	a0b9                	j	80005c76 <readi+0x17a>
    80005c2a:	fd043503          	ld	a0,-48(s0)
    80005c2e:	fffff097          	auipc	ra,0xfffff
    80005c32:	00a080e7          	jalr	10(ra) # 80004c38 <brelse>
    80005c36:	fdc42783          	lw	a5,-36(s0)
    80005c3a:	873e                	mv	a4,a5
    80005c3c:	fcc42783          	lw	a5,-52(s0)
    80005c40:	9fb9                	addw	a5,a5,a4
    80005c42:	fcf42e23          	sw	a5,-36(s0)
    80005c46:	fb042783          	lw	a5,-80(s0)
    80005c4a:	873e                	mv	a4,a5
    80005c4c:	fcc42783          	lw	a5,-52(s0)
    80005c50:	9fb9                	addw	a5,a5,a4
    80005c52:	faf42823          	sw	a5,-80(s0)
    80005c56:	fcc46783          	lwu	a5,-52(s0)
    80005c5a:	fa843703          	ld	a4,-88(s0)
    80005c5e:	97ba                	add	a5,a5,a4
    80005c60:	faf43423          	sd	a5,-88(s0)
    80005c64:	fdc42783          	lw	a5,-36(s0)
    80005c68:	873e                	mv	a4,a5
    80005c6a:	fa442783          	lw	a5,-92(s0)
    80005c6e:	2701                	sext.w	a4,a4
    80005c70:	2781                	sext.w	a5,a5
    80005c72:	f0f766e3          	bltu	a4,a5,80005b7e <readi+0x82>
    80005c76:	fdc42783          	lw	a5,-36(s0)
    80005c7a:	853e                	mv	a0,a5
    80005c7c:	60e6                	ld	ra,88(sp)
    80005c7e:	6446                	ld	s0,80(sp)
    80005c80:	64a6                	ld	s1,72(sp)
    80005c82:	6125                	addi	sp,sp,96
    80005c84:	8082                	ret

0000000080005c86 <writei>:
    80005c86:	711d                	addi	sp,sp,-96
    80005c88:	ec86                	sd	ra,88(sp)
    80005c8a:	e8a2                	sd	s0,80(sp)
    80005c8c:	e4a6                	sd	s1,72(sp)
    80005c8e:	1080                	addi	s0,sp,96
    80005c90:	faa43c23          	sd	a0,-72(s0)
    80005c94:	87ae                	mv	a5,a1
    80005c96:	fac43423          	sd	a2,-88(s0)
    80005c9a:	faf42a23          	sw	a5,-76(s0)
    80005c9e:	87b6                	mv	a5,a3
    80005ca0:	faf42823          	sw	a5,-80(s0)
    80005ca4:	87ba                	mv	a5,a4
    80005ca6:	faf42223          	sw	a5,-92(s0)
    80005caa:	fb843783          	ld	a5,-72(s0)
    80005cae:	47f8                	lw	a4,76(a5)
    80005cb0:	fb042783          	lw	a5,-80(s0)
    80005cb4:	2781                	sext.w	a5,a5
    80005cb6:	00f76f63          	bltu	a4,a5,80005cd4 <writei+0x4e>
    80005cba:	fb042783          	lw	a5,-80(s0)
    80005cbe:	873e                	mv	a4,a5
    80005cc0:	fa442783          	lw	a5,-92(s0)
    80005cc4:	9fb9                	addw	a5,a5,a4
    80005cc6:	0007871b          	sext.w	a4,a5
    80005cca:	fb042783          	lw	a5,-80(s0)
    80005cce:	2781                	sext.w	a5,a5
    80005cd0:	00f77463          	bgeu	a4,a5,80005cd8 <writei+0x52>
    80005cd4:	57fd                	li	a5,-1
    80005cd6:	aaa9                	j	80005e30 <writei+0x1aa>
    80005cd8:	fb042783          	lw	a5,-80(s0)
    80005cdc:	873e                	mv	a4,a5
    80005cde:	fa442783          	lw	a5,-92(s0)
    80005ce2:	9fb9                	addw	a5,a5,a4
    80005ce4:	2781                	sext.w	a5,a5
    80005ce6:	873e                	mv	a4,a5
    80005ce8:	000437b7          	lui	a5,0x43
    80005cec:	00e7f463          	bgeu	a5,a4,80005cf4 <writei+0x6e>
    80005cf0:	57fd                	li	a5,-1
    80005cf2:	aa3d                	j	80005e30 <writei+0x1aa>
    80005cf4:	fc042e23          	sw	zero,-36(s0)
    80005cf8:	a8d5                	j	80005dec <writei+0x166>
    80005cfa:	fb843783          	ld	a5,-72(s0)
    80005cfe:	4384                	lw	s1,0(a5)
    80005d00:	fb042783          	lw	a5,-80(s0)
    80005d04:	00a7d79b          	srliw	a5,a5,0xa
    80005d08:	2781                	sext.w	a5,a5
    80005d0a:	85be                	mv	a1,a5
    80005d0c:	fb843503          	ld	a0,-72(s0)
    80005d10:	00000097          	auipc	ra,0x0
    80005d14:	ae2080e7          	jalr	-1310(ra) # 800057f2 <bmap>
    80005d18:	87aa                	mv	a5,a0
    80005d1a:	2781                	sext.w	a5,a5
    80005d1c:	85be                	mv	a1,a5
    80005d1e:	8526                	mv	a0,s1
    80005d20:	fffff097          	auipc	ra,0xfffff
    80005d24:	e76080e7          	jalr	-394(ra) # 80004b96 <bread>
    80005d28:	fca43823          	sd	a0,-48(s0)
    80005d2c:	fb042783          	lw	a5,-80(s0)
    80005d30:	3ff7f793          	andi	a5,a5,1023
    80005d34:	2781                	sext.w	a5,a5
    80005d36:	40000713          	li	a4,1024
    80005d3a:	40f707bb          	subw	a5,a4,a5
    80005d3e:	2781                	sext.w	a5,a5
    80005d40:	fa442703          	lw	a4,-92(s0)
    80005d44:	86ba                	mv	a3,a4
    80005d46:	fdc42703          	lw	a4,-36(s0)
    80005d4a:	40e6873b          	subw	a4,a3,a4
    80005d4e:	2701                	sext.w	a4,a4
    80005d50:	863a                	mv	a2,a4
    80005d52:	0007869b          	sext.w	a3,a5
    80005d56:	0006071b          	sext.w	a4,a2
    80005d5a:	00d77363          	bgeu	a4,a3,80005d60 <writei+0xda>
    80005d5e:	87b2                	mv	a5,a2
    80005d60:	fcf42623          	sw	a5,-52(s0)
    80005d64:	fd043783          	ld	a5,-48(s0)
    80005d68:	05878713          	addi	a4,a5,88 # 43058 <_entry-0x7ffbcfa8>
    80005d6c:	fb046783          	lwu	a5,-80(s0)
    80005d70:	3ff7f793          	andi	a5,a5,1023
    80005d74:	97ba                	add	a5,a5,a4
    80005d76:	fcc46683          	lwu	a3,-52(s0)
    80005d7a:	fb442703          	lw	a4,-76(s0)
    80005d7e:	fa843603          	ld	a2,-88(s0)
    80005d82:	85ba                	mv	a1,a4
    80005d84:	853e                	mv	a0,a5
    80005d86:	ffffe097          	auipc	ra,0xffffe
    80005d8a:	e12080e7          	jalr	-494(ra) # 80003b98 <either_copyin>
    80005d8e:	87aa                	mv	a5,a0
    80005d90:	873e                	mv	a4,a5
    80005d92:	57fd                	li	a5,-1
    80005d94:	00f71963          	bne	a4,a5,80005da6 <writei+0x120>
    80005d98:	fd043503          	ld	a0,-48(s0)
    80005d9c:	fffff097          	auipc	ra,0xfffff
    80005da0:	e9c080e7          	jalr	-356(ra) # 80004c38 <brelse>
    80005da4:	a8a9                	j	80005dfe <writei+0x178>
    80005da6:	fd043503          	ld	a0,-48(s0)
    80005daa:	00001097          	auipc	ra,0x1
    80005dae:	aee080e7          	jalr	-1298(ra) # 80006898 <log_write>
    80005db2:	fd043503          	ld	a0,-48(s0)
    80005db6:	fffff097          	auipc	ra,0xfffff
    80005dba:	e82080e7          	jalr	-382(ra) # 80004c38 <brelse>
    80005dbe:	fdc42783          	lw	a5,-36(s0)
    80005dc2:	873e                	mv	a4,a5
    80005dc4:	fcc42783          	lw	a5,-52(s0)
    80005dc8:	9fb9                	addw	a5,a5,a4
    80005dca:	fcf42e23          	sw	a5,-36(s0)
    80005dce:	fb042783          	lw	a5,-80(s0)
    80005dd2:	873e                	mv	a4,a5
    80005dd4:	fcc42783          	lw	a5,-52(s0)
    80005dd8:	9fb9                	addw	a5,a5,a4
    80005dda:	faf42823          	sw	a5,-80(s0)
    80005dde:	fcc46783          	lwu	a5,-52(s0)
    80005de2:	fa843703          	ld	a4,-88(s0)
    80005de6:	97ba                	add	a5,a5,a4
    80005de8:	faf43423          	sd	a5,-88(s0)
    80005dec:	fdc42783          	lw	a5,-36(s0)
    80005df0:	873e                	mv	a4,a5
    80005df2:	fa442783          	lw	a5,-92(s0)
    80005df6:	2701                	sext.w	a4,a4
    80005df8:	2781                	sext.w	a5,a5
    80005dfa:	f0f760e3          	bltu	a4,a5,80005cfa <writei+0x74>
    80005dfe:	fa442783          	lw	a5,-92(s0)
    80005e02:	2781                	sext.w	a5,a5
    80005e04:	c785                	beqz	a5,80005e2c <writei+0x1a6>
    80005e06:	fb843783          	ld	a5,-72(s0)
    80005e0a:	47f8                	lw	a4,76(a5)
    80005e0c:	fb042783          	lw	a5,-80(s0)
    80005e10:	2781                	sext.w	a5,a5
    80005e12:	00f77763          	bgeu	a4,a5,80005e20 <writei+0x19a>
    80005e16:	fb843783          	ld	a5,-72(s0)
    80005e1a:	fb042703          	lw	a4,-80(s0)
    80005e1e:	c7f8                	sw	a4,76(a5)
    80005e20:	fb843503          	ld	a0,-72(s0)
    80005e24:	fffff097          	auipc	ra,0xfffff
    80005e28:	4f2080e7          	jalr	1266(ra) # 80005316 <iupdate>
    80005e2c:	fa442783          	lw	a5,-92(s0)
    80005e30:	853e                	mv	a0,a5
    80005e32:	60e6                	ld	ra,88(sp)
    80005e34:	6446                	ld	s0,80(sp)
    80005e36:	64a6                	ld	s1,72(sp)
    80005e38:	6125                	addi	sp,sp,96
    80005e3a:	8082                	ret

0000000080005e3c <namecmp>:
    80005e3c:	1101                	addi	sp,sp,-32
    80005e3e:	ec06                	sd	ra,24(sp)
    80005e40:	e822                	sd	s0,16(sp)
    80005e42:	1000                	addi	s0,sp,32
    80005e44:	fea43423          	sd	a0,-24(s0)
    80005e48:	feb43023          	sd	a1,-32(s0)
    80005e4c:	4639                	li	a2,14
    80005e4e:	fe043583          	ld	a1,-32(s0)
    80005e52:	fe843503          	ld	a0,-24(s0)
    80005e56:	ffffc097          	auipc	ra,0xffffc
    80005e5a:	83a080e7          	jalr	-1990(ra) # 80001690 <strncmp>
    80005e5e:	87aa                	mv	a5,a0
    80005e60:	853e                	mv	a0,a5
    80005e62:	60e2                	ld	ra,24(sp)
    80005e64:	6442                	ld	s0,16(sp)
    80005e66:	6105                	addi	sp,sp,32
    80005e68:	8082                	ret

0000000080005e6a <dirlookup>:
    80005e6a:	715d                	addi	sp,sp,-80
    80005e6c:	e486                	sd	ra,72(sp)
    80005e6e:	e0a2                	sd	s0,64(sp)
    80005e70:	0880                	addi	s0,sp,80
    80005e72:	fca43423          	sd	a0,-56(s0)
    80005e76:	fcb43023          	sd	a1,-64(s0)
    80005e7a:	fac43c23          	sd	a2,-72(s0)
    80005e7e:	fc843783          	ld	a5,-56(s0)
    80005e82:	04479783          	lh	a5,68(a5)
    80005e86:	873e                	mv	a4,a5
    80005e88:	4785                	li	a5,1
    80005e8a:	00f70a63          	beq	a4,a5,80005e9e <dirlookup+0x34>
    80005e8e:	00006517          	auipc	a0,0x6
    80005e92:	68250513          	addi	a0,a0,1666 # 8000c510 <etext+0x510>
    80005e96:	ffffb097          	auipc	ra,0xffffb
    80005e9a:	e08080e7          	jalr	-504(ra) # 80000c9e <panic>
    80005e9e:	fe042623          	sw	zero,-20(s0)
    80005ea2:	a849                	j	80005f34 <dirlookup+0xca>
    80005ea4:	fd840793          	addi	a5,s0,-40
    80005ea8:	fec42683          	lw	a3,-20(s0)
    80005eac:	4741                	li	a4,16
    80005eae:	863e                	mv	a2,a5
    80005eb0:	4581                	li	a1,0
    80005eb2:	fc843503          	ld	a0,-56(s0)
    80005eb6:	00000097          	auipc	ra,0x0
    80005eba:	c46080e7          	jalr	-954(ra) # 80005afc <readi>
    80005ebe:	87aa                	mv	a5,a0
    80005ec0:	873e                	mv	a4,a5
    80005ec2:	47c1                	li	a5,16
    80005ec4:	00f70a63          	beq	a4,a5,80005ed8 <dirlookup+0x6e>
    80005ec8:	00006517          	auipc	a0,0x6
    80005ecc:	66050513          	addi	a0,a0,1632 # 8000c528 <etext+0x528>
    80005ed0:	ffffb097          	auipc	ra,0xffffb
    80005ed4:	dce080e7          	jalr	-562(ra) # 80000c9e <panic>
    80005ed8:	fd845783          	lhu	a5,-40(s0)
    80005edc:	c7b1                	beqz	a5,80005f28 <dirlookup+0xbe>
    80005ede:	fd840793          	addi	a5,s0,-40
    80005ee2:	0789                	addi	a5,a5,2
    80005ee4:	85be                	mv	a1,a5
    80005ee6:	fc043503          	ld	a0,-64(s0)
    80005eea:	00000097          	auipc	ra,0x0
    80005eee:	f52080e7          	jalr	-174(ra) # 80005e3c <namecmp>
    80005ef2:	87aa                	mv	a5,a0
    80005ef4:	eb9d                	bnez	a5,80005f2a <dirlookup+0xc0>
    80005ef6:	fb843783          	ld	a5,-72(s0)
    80005efa:	c791                	beqz	a5,80005f06 <dirlookup+0x9c>
    80005efc:	fb843783          	ld	a5,-72(s0)
    80005f00:	fec42703          	lw	a4,-20(s0)
    80005f04:	c398                	sw	a4,0(a5)
    80005f06:	fd845783          	lhu	a5,-40(s0)
    80005f0a:	fef42423          	sw	a5,-24(s0)
    80005f0e:	fc843783          	ld	a5,-56(s0)
    80005f12:	439c                	lw	a5,0(a5)
    80005f14:	fe842703          	lw	a4,-24(s0)
    80005f18:	85ba                	mv	a1,a4
    80005f1a:	853e                	mv	a0,a5
    80005f1c:	fffff097          	auipc	ra,0xfffff
    80005f20:	4e2080e7          	jalr	1250(ra) # 800053fe <iget>
    80005f24:	87aa                	mv	a5,a0
    80005f26:	a005                	j	80005f46 <dirlookup+0xdc>
    80005f28:	0001                	nop
    80005f2a:	fec42783          	lw	a5,-20(s0)
    80005f2e:	27c1                	addiw	a5,a5,16
    80005f30:	fef42623          	sw	a5,-20(s0)
    80005f34:	fc843783          	ld	a5,-56(s0)
    80005f38:	47f8                	lw	a4,76(a5)
    80005f3a:	fec42783          	lw	a5,-20(s0)
    80005f3e:	2781                	sext.w	a5,a5
    80005f40:	f6e7e2e3          	bltu	a5,a4,80005ea4 <dirlookup+0x3a>
    80005f44:	4781                	li	a5,0
    80005f46:	853e                	mv	a0,a5
    80005f48:	60a6                	ld	ra,72(sp)
    80005f4a:	6406                	ld	s0,64(sp)
    80005f4c:	6161                	addi	sp,sp,80
    80005f4e:	8082                	ret

0000000080005f50 <dirlink>:
    80005f50:	715d                	addi	sp,sp,-80
    80005f52:	e486                	sd	ra,72(sp)
    80005f54:	e0a2                	sd	s0,64(sp)
    80005f56:	0880                	addi	s0,sp,80
    80005f58:	fca43423          	sd	a0,-56(s0)
    80005f5c:	fcb43023          	sd	a1,-64(s0)
    80005f60:	87b2                	mv	a5,a2
    80005f62:	faf42e23          	sw	a5,-68(s0)
    80005f66:	4601                	li	a2,0
    80005f68:	fc043583          	ld	a1,-64(s0)
    80005f6c:	fc843503          	ld	a0,-56(s0)
    80005f70:	00000097          	auipc	ra,0x0
    80005f74:	efa080e7          	jalr	-262(ra) # 80005e6a <dirlookup>
    80005f78:	fea43023          	sd	a0,-32(s0)
    80005f7c:	fe043783          	ld	a5,-32(s0)
    80005f80:	cb89                	beqz	a5,80005f92 <dirlink+0x42>
    80005f82:	fe043503          	ld	a0,-32(s0)
    80005f86:	fffff097          	auipc	ra,0xfffff
    80005f8a:	76e080e7          	jalr	1902(ra) # 800056f4 <iput>
    80005f8e:	57fd                	li	a5,-1
    80005f90:	a865                	j	80006048 <dirlink+0xf8>
    80005f92:	fe042623          	sw	zero,-20(s0)
    80005f96:	a0a1                	j	80005fde <dirlink+0x8e>
    80005f98:	fd040793          	addi	a5,s0,-48
    80005f9c:	fec42683          	lw	a3,-20(s0)
    80005fa0:	4741                	li	a4,16
    80005fa2:	863e                	mv	a2,a5
    80005fa4:	4581                	li	a1,0
    80005fa6:	fc843503          	ld	a0,-56(s0)
    80005faa:	00000097          	auipc	ra,0x0
    80005fae:	b52080e7          	jalr	-1198(ra) # 80005afc <readi>
    80005fb2:	87aa                	mv	a5,a0
    80005fb4:	873e                	mv	a4,a5
    80005fb6:	47c1                	li	a5,16
    80005fb8:	00f70a63          	beq	a4,a5,80005fcc <dirlink+0x7c>
    80005fbc:	00006517          	auipc	a0,0x6
    80005fc0:	57c50513          	addi	a0,a0,1404 # 8000c538 <etext+0x538>
    80005fc4:	ffffb097          	auipc	ra,0xffffb
    80005fc8:	cda080e7          	jalr	-806(ra) # 80000c9e <panic>
    80005fcc:	fd045783          	lhu	a5,-48(s0)
    80005fd0:	cf99                	beqz	a5,80005fee <dirlink+0x9e>
    80005fd2:	fec42783          	lw	a5,-20(s0)
    80005fd6:	27c1                	addiw	a5,a5,16
    80005fd8:	2781                	sext.w	a5,a5
    80005fda:	fef42623          	sw	a5,-20(s0)
    80005fde:	fc843783          	ld	a5,-56(s0)
    80005fe2:	47f8                	lw	a4,76(a5)
    80005fe4:	fec42783          	lw	a5,-20(s0)
    80005fe8:	fae7e8e3          	bltu	a5,a4,80005f98 <dirlink+0x48>
    80005fec:	a011                	j	80005ff0 <dirlink+0xa0>
    80005fee:	0001                	nop
    80005ff0:	fd040793          	addi	a5,s0,-48
    80005ff4:	0789                	addi	a5,a5,2
    80005ff6:	4639                	li	a2,14
    80005ff8:	fc043583          	ld	a1,-64(s0)
    80005ffc:	853e                	mv	a0,a5
    80005ffe:	ffffb097          	auipc	ra,0xffffb
    80006002:	71c080e7          	jalr	1820(ra) # 8000171a <strncpy>
    80006006:	fbc42783          	lw	a5,-68(s0)
    8000600a:	17c2                	slli	a5,a5,0x30
    8000600c:	93c1                	srli	a5,a5,0x30
    8000600e:	fcf41823          	sh	a5,-48(s0)
    80006012:	fd040793          	addi	a5,s0,-48
    80006016:	fec42683          	lw	a3,-20(s0)
    8000601a:	4741                	li	a4,16
    8000601c:	863e                	mv	a2,a5
    8000601e:	4581                	li	a1,0
    80006020:	fc843503          	ld	a0,-56(s0)
    80006024:	00000097          	auipc	ra,0x0
    80006028:	c62080e7          	jalr	-926(ra) # 80005c86 <writei>
    8000602c:	87aa                	mv	a5,a0
    8000602e:	873e                	mv	a4,a5
    80006030:	47c1                	li	a5,16
    80006032:	00f70a63          	beq	a4,a5,80006046 <dirlink+0xf6>
    80006036:	00006517          	auipc	a0,0x6
    8000603a:	51250513          	addi	a0,a0,1298 # 8000c548 <etext+0x548>
    8000603e:	ffffb097          	auipc	ra,0xffffb
    80006042:	c60080e7          	jalr	-928(ra) # 80000c9e <panic>
    80006046:	4781                	li	a5,0
    80006048:	853e                	mv	a0,a5
    8000604a:	60a6                	ld	ra,72(sp)
    8000604c:	6406                	ld	s0,64(sp)
    8000604e:	6161                	addi	sp,sp,80
    80006050:	8082                	ret

0000000080006052 <skipelem>:
    80006052:	7179                	addi	sp,sp,-48
    80006054:	f406                	sd	ra,40(sp)
    80006056:	f022                	sd	s0,32(sp)
    80006058:	1800                	addi	s0,sp,48
    8000605a:	fca43c23          	sd	a0,-40(s0)
    8000605e:	fcb43823          	sd	a1,-48(s0)
    80006062:	a031                	j	8000606e <skipelem+0x1c>
    80006064:	fd843783          	ld	a5,-40(s0)
    80006068:	0785                	addi	a5,a5,1
    8000606a:	fcf43c23          	sd	a5,-40(s0)
    8000606e:	fd843783          	ld	a5,-40(s0)
    80006072:	0007c783          	lbu	a5,0(a5)
    80006076:	873e                	mv	a4,a5
    80006078:	02f00793          	li	a5,47
    8000607c:	fef704e3          	beq	a4,a5,80006064 <skipelem+0x12>
    80006080:	fd843783          	ld	a5,-40(s0)
    80006084:	0007c783          	lbu	a5,0(a5)
    80006088:	e399                	bnez	a5,8000608e <skipelem+0x3c>
    8000608a:	4781                	li	a5,0
    8000608c:	a06d                	j	80006136 <skipelem+0xe4>
    8000608e:	fd843783          	ld	a5,-40(s0)
    80006092:	fef43423          	sd	a5,-24(s0)
    80006096:	a031                	j	800060a2 <skipelem+0x50>
    80006098:	fd843783          	ld	a5,-40(s0)
    8000609c:	0785                	addi	a5,a5,1
    8000609e:	fcf43c23          	sd	a5,-40(s0)
    800060a2:	fd843783          	ld	a5,-40(s0)
    800060a6:	0007c783          	lbu	a5,0(a5)
    800060aa:	873e                	mv	a4,a5
    800060ac:	02f00793          	li	a5,47
    800060b0:	00f70763          	beq	a4,a5,800060be <skipelem+0x6c>
    800060b4:	fd843783          	ld	a5,-40(s0)
    800060b8:	0007c783          	lbu	a5,0(a5)
    800060bc:	fff1                	bnez	a5,80006098 <skipelem+0x46>
    800060be:	fd843703          	ld	a4,-40(s0)
    800060c2:	fe843783          	ld	a5,-24(s0)
    800060c6:	40f707b3          	sub	a5,a4,a5
    800060ca:	fef42223          	sw	a5,-28(s0)
    800060ce:	fe442783          	lw	a5,-28(s0)
    800060d2:	0007871b          	sext.w	a4,a5
    800060d6:	47b5                	li	a5,13
    800060d8:	00e7dc63          	bge	a5,a4,800060f0 <skipelem+0x9e>
    800060dc:	4639                	li	a2,14
    800060de:	fe843583          	ld	a1,-24(s0)
    800060e2:	fd043503          	ld	a0,-48(s0)
    800060e6:	ffffb097          	auipc	ra,0xffffb
    800060ea:	4a4080e7          	jalr	1188(ra) # 8000158a <memmove>
    800060ee:	a80d                	j	80006120 <skipelem+0xce>
    800060f0:	fe442783          	lw	a5,-28(s0)
    800060f4:	863e                	mv	a2,a5
    800060f6:	fe843583          	ld	a1,-24(s0)
    800060fa:	fd043503          	ld	a0,-48(s0)
    800060fe:	ffffb097          	auipc	ra,0xffffb
    80006102:	48c080e7          	jalr	1164(ra) # 8000158a <memmove>
    80006106:	fe442783          	lw	a5,-28(s0)
    8000610a:	fd043703          	ld	a4,-48(s0)
    8000610e:	97ba                	add	a5,a5,a4
    80006110:	00078023          	sb	zero,0(a5)
    80006114:	a031                	j	80006120 <skipelem+0xce>
    80006116:	fd843783          	ld	a5,-40(s0)
    8000611a:	0785                	addi	a5,a5,1
    8000611c:	fcf43c23          	sd	a5,-40(s0)
    80006120:	fd843783          	ld	a5,-40(s0)
    80006124:	0007c783          	lbu	a5,0(a5)
    80006128:	873e                	mv	a4,a5
    8000612a:	02f00793          	li	a5,47
    8000612e:	fef704e3          	beq	a4,a5,80006116 <skipelem+0xc4>
    80006132:	fd843783          	ld	a5,-40(s0)
    80006136:	853e                	mv	a0,a5
    80006138:	70a2                	ld	ra,40(sp)
    8000613a:	7402                	ld	s0,32(sp)
    8000613c:	6145                	addi	sp,sp,48
    8000613e:	8082                	ret

0000000080006140 <namex>:
    80006140:	7139                	addi	sp,sp,-64
    80006142:	fc06                	sd	ra,56(sp)
    80006144:	f822                	sd	s0,48(sp)
    80006146:	0080                	addi	s0,sp,64
    80006148:	fca43c23          	sd	a0,-40(s0)
    8000614c:	87ae                	mv	a5,a1
    8000614e:	fcc43423          	sd	a2,-56(s0)
    80006152:	fcf42a23          	sw	a5,-44(s0)
    80006156:	fd843783          	ld	a5,-40(s0)
    8000615a:	0007c783          	lbu	a5,0(a5)
    8000615e:	873e                	mv	a4,a5
    80006160:	02f00793          	li	a5,47
    80006164:	00f71b63          	bne	a4,a5,8000617a <namex+0x3a>
    80006168:	4585                	li	a1,1
    8000616a:	4505                	li	a0,1
    8000616c:	fffff097          	auipc	ra,0xfffff
    80006170:	292080e7          	jalr	658(ra) # 800053fe <iget>
    80006174:	fea43423          	sd	a0,-24(s0)
    80006178:	a845                	j	80006228 <namex+0xe8>
    8000617a:	ffffc097          	auipc	ra,0xffffc
    8000617e:	7d8080e7          	jalr	2008(ra) # 80002952 <myproc>
    80006182:	87aa                	mv	a5,a0
    80006184:	1507b783          	ld	a5,336(a5)
    80006188:	853e                	mv	a0,a5
    8000618a:	fffff097          	auipc	ra,0xfffff
    8000618e:	390080e7          	jalr	912(ra) # 8000551a <idup>
    80006192:	fea43423          	sd	a0,-24(s0)
    80006196:	a849                	j	80006228 <namex+0xe8>
    80006198:	fe843503          	ld	a0,-24(s0)
    8000619c:	fffff097          	auipc	ra,0xfffff
    800061a0:	3ca080e7          	jalr	970(ra) # 80005566 <ilock>
    800061a4:	fe843783          	ld	a5,-24(s0)
    800061a8:	04479783          	lh	a5,68(a5)
    800061ac:	873e                	mv	a4,a5
    800061ae:	4785                	li	a5,1
    800061b0:	00f70a63          	beq	a4,a5,800061c4 <namex+0x84>
    800061b4:	fe843503          	ld	a0,-24(s0)
    800061b8:	fffff097          	auipc	ra,0xfffff
    800061bc:	60c080e7          	jalr	1548(ra) # 800057c4 <iunlockput>
    800061c0:	4781                	li	a5,0
    800061c2:	a871                	j	8000625e <namex+0x11e>
    800061c4:	fd442783          	lw	a5,-44(s0)
    800061c8:	2781                	sext.w	a5,a5
    800061ca:	cf99                	beqz	a5,800061e8 <namex+0xa8>
    800061cc:	fd843783          	ld	a5,-40(s0)
    800061d0:	0007c783          	lbu	a5,0(a5)
    800061d4:	eb91                	bnez	a5,800061e8 <namex+0xa8>
    800061d6:	fe843503          	ld	a0,-24(s0)
    800061da:	fffff097          	auipc	ra,0xfffff
    800061de:	4c0080e7          	jalr	1216(ra) # 8000569a <iunlock>
    800061e2:	fe843783          	ld	a5,-24(s0)
    800061e6:	a8a5                	j	8000625e <namex+0x11e>
    800061e8:	4601                	li	a2,0
    800061ea:	fc843583          	ld	a1,-56(s0)
    800061ee:	fe843503          	ld	a0,-24(s0)
    800061f2:	00000097          	auipc	ra,0x0
    800061f6:	c78080e7          	jalr	-904(ra) # 80005e6a <dirlookup>
    800061fa:	fea43023          	sd	a0,-32(s0)
    800061fe:	fe043783          	ld	a5,-32(s0)
    80006202:	eb89                	bnez	a5,80006214 <namex+0xd4>
    80006204:	fe843503          	ld	a0,-24(s0)
    80006208:	fffff097          	auipc	ra,0xfffff
    8000620c:	5bc080e7          	jalr	1468(ra) # 800057c4 <iunlockput>
    80006210:	4781                	li	a5,0
    80006212:	a0b1                	j	8000625e <namex+0x11e>
    80006214:	fe843503          	ld	a0,-24(s0)
    80006218:	fffff097          	auipc	ra,0xfffff
    8000621c:	5ac080e7          	jalr	1452(ra) # 800057c4 <iunlockput>
    80006220:	fe043783          	ld	a5,-32(s0)
    80006224:	fef43423          	sd	a5,-24(s0)
    80006228:	fc843583          	ld	a1,-56(s0)
    8000622c:	fd843503          	ld	a0,-40(s0)
    80006230:	00000097          	auipc	ra,0x0
    80006234:	e22080e7          	jalr	-478(ra) # 80006052 <skipelem>
    80006238:	fca43c23          	sd	a0,-40(s0)
    8000623c:	fd843783          	ld	a5,-40(s0)
    80006240:	ffa1                	bnez	a5,80006198 <namex+0x58>
    80006242:	fd442783          	lw	a5,-44(s0)
    80006246:	2781                	sext.w	a5,a5
    80006248:	cb89                	beqz	a5,8000625a <namex+0x11a>
    8000624a:	fe843503          	ld	a0,-24(s0)
    8000624e:	fffff097          	auipc	ra,0xfffff
    80006252:	4a6080e7          	jalr	1190(ra) # 800056f4 <iput>
    80006256:	4781                	li	a5,0
    80006258:	a019                	j	8000625e <namex+0x11e>
    8000625a:	fe843783          	ld	a5,-24(s0)
    8000625e:	853e                	mv	a0,a5
    80006260:	70e2                	ld	ra,56(sp)
    80006262:	7442                	ld	s0,48(sp)
    80006264:	6121                	addi	sp,sp,64
    80006266:	8082                	ret

0000000080006268 <namei>:
    80006268:	7179                	addi	sp,sp,-48
    8000626a:	f406                	sd	ra,40(sp)
    8000626c:	f022                	sd	s0,32(sp)
    8000626e:	1800                	addi	s0,sp,48
    80006270:	fca43c23          	sd	a0,-40(s0)
    80006274:	fe040793          	addi	a5,s0,-32
    80006278:	863e                	mv	a2,a5
    8000627a:	4581                	li	a1,0
    8000627c:	fd843503          	ld	a0,-40(s0)
    80006280:	00000097          	auipc	ra,0x0
    80006284:	ec0080e7          	jalr	-320(ra) # 80006140 <namex>
    80006288:	87aa                	mv	a5,a0
    8000628a:	853e                	mv	a0,a5
    8000628c:	70a2                	ld	ra,40(sp)
    8000628e:	7402                	ld	s0,32(sp)
    80006290:	6145                	addi	sp,sp,48
    80006292:	8082                	ret

0000000080006294 <nameiparent>:
    80006294:	1101                	addi	sp,sp,-32
    80006296:	ec06                	sd	ra,24(sp)
    80006298:	e822                	sd	s0,16(sp)
    8000629a:	1000                	addi	s0,sp,32
    8000629c:	fea43423          	sd	a0,-24(s0)
    800062a0:	feb43023          	sd	a1,-32(s0)
    800062a4:	fe043603          	ld	a2,-32(s0)
    800062a8:	4585                	li	a1,1
    800062aa:	fe843503          	ld	a0,-24(s0)
    800062ae:	00000097          	auipc	ra,0x0
    800062b2:	e92080e7          	jalr	-366(ra) # 80006140 <namex>
    800062b6:	87aa                	mv	a5,a0
    800062b8:	853e                	mv	a0,a5
    800062ba:	60e2                	ld	ra,24(sp)
    800062bc:	6442                	ld	s0,16(sp)
    800062be:	6105                	addi	sp,sp,32
    800062c0:	8082                	ret

00000000800062c2 <initlog>:
    800062c2:	1101                	addi	sp,sp,-32
    800062c4:	ec06                	sd	ra,24(sp)
    800062c6:	e822                	sd	s0,16(sp)
    800062c8:	1000                	addi	s0,sp,32
    800062ca:	87aa                	mv	a5,a0
    800062cc:	feb43023          	sd	a1,-32(s0)
    800062d0:	fef42623          	sw	a5,-20(s0)
    800062d4:	00006597          	auipc	a1,0x6
    800062d8:	27c58593          	addi	a1,a1,636 # 8000c550 <etext+0x550>
    800062dc:	0001f517          	auipc	a0,0x1f
    800062e0:	63450513          	addi	a0,a0,1588 # 80025910 <log>
    800062e4:	ffffb097          	auipc	ra,0xffffb
    800062e8:	fbe080e7          	jalr	-66(ra) # 800012a2 <initlock>
    800062ec:	fe043783          	ld	a5,-32(s0)
    800062f0:	4bdc                	lw	a5,20(a5)
    800062f2:	0007871b          	sext.w	a4,a5
    800062f6:	0001f797          	auipc	a5,0x1f
    800062fa:	61a78793          	addi	a5,a5,1562 # 80025910 <log>
    800062fe:	cf98                	sw	a4,24(a5)
    80006300:	fe043783          	ld	a5,-32(s0)
    80006304:	4b9c                	lw	a5,16(a5)
    80006306:	0007871b          	sext.w	a4,a5
    8000630a:	0001f797          	auipc	a5,0x1f
    8000630e:	60678793          	addi	a5,a5,1542 # 80025910 <log>
    80006312:	cfd8                	sw	a4,28(a5)
    80006314:	0001f797          	auipc	a5,0x1f
    80006318:	5fc78793          	addi	a5,a5,1532 # 80025910 <log>
    8000631c:	fec42703          	lw	a4,-20(s0)
    80006320:	d798                	sw	a4,40(a5)
    80006322:	00000097          	auipc	ra,0x0
    80006326:	264080e7          	jalr	612(ra) # 80006586 <recover_from_log>
    8000632a:	0001                	nop
    8000632c:	60e2                	ld	ra,24(sp)
    8000632e:	6442                	ld	s0,16(sp)
    80006330:	6105                	addi	sp,sp,32
    80006332:	8082                	ret

0000000080006334 <install_trans>:
    80006334:	7179                	addi	sp,sp,-48
    80006336:	f406                	sd	ra,40(sp)
    80006338:	f022                	sd	s0,32(sp)
    8000633a:	1800                	addi	s0,sp,48
    8000633c:	fe042623          	sw	zero,-20(s0)
    80006340:	a0d9                	j	80006406 <install_trans+0xd2>
    80006342:	0001f797          	auipc	a5,0x1f
    80006346:	5ce78793          	addi	a5,a5,1486 # 80025910 <log>
    8000634a:	579c                	lw	a5,40(a5)
    8000634c:	0007871b          	sext.w	a4,a5
    80006350:	0001f797          	auipc	a5,0x1f
    80006354:	5c078793          	addi	a5,a5,1472 # 80025910 <log>
    80006358:	4f9c                	lw	a5,24(a5)
    8000635a:	fec42683          	lw	a3,-20(s0)
    8000635e:	9fb5                	addw	a5,a5,a3
    80006360:	2781                	sext.w	a5,a5
    80006362:	2785                	addiw	a5,a5,1
    80006364:	2781                	sext.w	a5,a5
    80006366:	2781                	sext.w	a5,a5
    80006368:	85be                	mv	a1,a5
    8000636a:	853a                	mv	a0,a4
    8000636c:	fffff097          	auipc	ra,0xfffff
    80006370:	82a080e7          	jalr	-2006(ra) # 80004b96 <bread>
    80006374:	fea43023          	sd	a0,-32(s0)
    80006378:	0001f797          	auipc	a5,0x1f
    8000637c:	59878793          	addi	a5,a5,1432 # 80025910 <log>
    80006380:	579c                	lw	a5,40(a5)
    80006382:	0007869b          	sext.w	a3,a5
    80006386:	0001f717          	auipc	a4,0x1f
    8000638a:	58a70713          	addi	a4,a4,1418 # 80025910 <log>
    8000638e:	fec42783          	lw	a5,-20(s0)
    80006392:	07a1                	addi	a5,a5,8
    80006394:	078a                	slli	a5,a5,0x2
    80006396:	97ba                	add	a5,a5,a4
    80006398:	4b9c                	lw	a5,16(a5)
    8000639a:	2781                	sext.w	a5,a5
    8000639c:	85be                	mv	a1,a5
    8000639e:	8536                	mv	a0,a3
    800063a0:	ffffe097          	auipc	ra,0xffffe
    800063a4:	7f6080e7          	jalr	2038(ra) # 80004b96 <bread>
    800063a8:	fca43c23          	sd	a0,-40(s0)
    800063ac:	fd843783          	ld	a5,-40(s0)
    800063b0:	05878713          	addi	a4,a5,88
    800063b4:	fe043783          	ld	a5,-32(s0)
    800063b8:	05878793          	addi	a5,a5,88
    800063bc:	40000613          	li	a2,1024
    800063c0:	85be                	mv	a1,a5
    800063c2:	853a                	mv	a0,a4
    800063c4:	ffffb097          	auipc	ra,0xffffb
    800063c8:	1c6080e7          	jalr	454(ra) # 8000158a <memmove>
    800063cc:	fd843503          	ld	a0,-40(s0)
    800063d0:	fffff097          	auipc	ra,0xfffff
    800063d4:	820080e7          	jalr	-2016(ra) # 80004bf0 <bwrite>
    800063d8:	fd843503          	ld	a0,-40(s0)
    800063dc:	fffff097          	auipc	ra,0xfffff
    800063e0:	992080e7          	jalr	-1646(ra) # 80004d6e <bunpin>
    800063e4:	fe043503          	ld	a0,-32(s0)
    800063e8:	fffff097          	auipc	ra,0xfffff
    800063ec:	850080e7          	jalr	-1968(ra) # 80004c38 <brelse>
    800063f0:	fd843503          	ld	a0,-40(s0)
    800063f4:	fffff097          	auipc	ra,0xfffff
    800063f8:	844080e7          	jalr	-1980(ra) # 80004c38 <brelse>
    800063fc:	fec42783          	lw	a5,-20(s0)
    80006400:	2785                	addiw	a5,a5,1
    80006402:	fef42623          	sw	a5,-20(s0)
    80006406:	0001f797          	auipc	a5,0x1f
    8000640a:	50a78793          	addi	a5,a5,1290 # 80025910 <log>
    8000640e:	57d8                	lw	a4,44(a5)
    80006410:	fec42783          	lw	a5,-20(s0)
    80006414:	2781                	sext.w	a5,a5
    80006416:	f2e7c6e3          	blt	a5,a4,80006342 <install_trans+0xe>
    8000641a:	0001                	nop
    8000641c:	0001                	nop
    8000641e:	70a2                	ld	ra,40(sp)
    80006420:	7402                	ld	s0,32(sp)
    80006422:	6145                	addi	sp,sp,48
    80006424:	8082                	ret

0000000080006426 <read_head>:
    80006426:	7179                	addi	sp,sp,-48
    80006428:	f406                	sd	ra,40(sp)
    8000642a:	f022                	sd	s0,32(sp)
    8000642c:	1800                	addi	s0,sp,48
    8000642e:	0001f797          	auipc	a5,0x1f
    80006432:	4e278793          	addi	a5,a5,1250 # 80025910 <log>
    80006436:	579c                	lw	a5,40(a5)
    80006438:	0007871b          	sext.w	a4,a5
    8000643c:	0001f797          	auipc	a5,0x1f
    80006440:	4d478793          	addi	a5,a5,1236 # 80025910 <log>
    80006444:	4f9c                	lw	a5,24(a5)
    80006446:	2781                	sext.w	a5,a5
    80006448:	85be                	mv	a1,a5
    8000644a:	853a                	mv	a0,a4
    8000644c:	ffffe097          	auipc	ra,0xffffe
    80006450:	74a080e7          	jalr	1866(ra) # 80004b96 <bread>
    80006454:	fea43023          	sd	a0,-32(s0)
    80006458:	fe043783          	ld	a5,-32(s0)
    8000645c:	05878793          	addi	a5,a5,88
    80006460:	fcf43c23          	sd	a5,-40(s0)
    80006464:	fd843783          	ld	a5,-40(s0)
    80006468:	4398                	lw	a4,0(a5)
    8000646a:	0001f797          	auipc	a5,0x1f
    8000646e:	4a678793          	addi	a5,a5,1190 # 80025910 <log>
    80006472:	d7d8                	sw	a4,44(a5)
    80006474:	fe042623          	sw	zero,-20(s0)
    80006478:	a03d                	j	800064a6 <read_head+0x80>
    8000647a:	fd843703          	ld	a4,-40(s0)
    8000647e:	fec42783          	lw	a5,-20(s0)
    80006482:	078a                	slli	a5,a5,0x2
    80006484:	97ba                	add	a5,a5,a4
    80006486:	43d8                	lw	a4,4(a5)
    80006488:	0001f697          	auipc	a3,0x1f
    8000648c:	48868693          	addi	a3,a3,1160 # 80025910 <log>
    80006490:	fec42783          	lw	a5,-20(s0)
    80006494:	07a1                	addi	a5,a5,8
    80006496:	078a                	slli	a5,a5,0x2
    80006498:	97b6                	add	a5,a5,a3
    8000649a:	cb98                	sw	a4,16(a5)
    8000649c:	fec42783          	lw	a5,-20(s0)
    800064a0:	2785                	addiw	a5,a5,1
    800064a2:	fef42623          	sw	a5,-20(s0)
    800064a6:	0001f797          	auipc	a5,0x1f
    800064aa:	46a78793          	addi	a5,a5,1130 # 80025910 <log>
    800064ae:	57d8                	lw	a4,44(a5)
    800064b0:	fec42783          	lw	a5,-20(s0)
    800064b4:	2781                	sext.w	a5,a5
    800064b6:	fce7c2e3          	blt	a5,a4,8000647a <read_head+0x54>
    800064ba:	fe043503          	ld	a0,-32(s0)
    800064be:	ffffe097          	auipc	ra,0xffffe
    800064c2:	77a080e7          	jalr	1914(ra) # 80004c38 <brelse>
    800064c6:	0001                	nop
    800064c8:	70a2                	ld	ra,40(sp)
    800064ca:	7402                	ld	s0,32(sp)
    800064cc:	6145                	addi	sp,sp,48
    800064ce:	8082                	ret

00000000800064d0 <write_head>:
    800064d0:	7179                	addi	sp,sp,-48
    800064d2:	f406                	sd	ra,40(sp)
    800064d4:	f022                	sd	s0,32(sp)
    800064d6:	1800                	addi	s0,sp,48
    800064d8:	0001f797          	auipc	a5,0x1f
    800064dc:	43878793          	addi	a5,a5,1080 # 80025910 <log>
    800064e0:	579c                	lw	a5,40(a5)
    800064e2:	0007871b          	sext.w	a4,a5
    800064e6:	0001f797          	auipc	a5,0x1f
    800064ea:	42a78793          	addi	a5,a5,1066 # 80025910 <log>
    800064ee:	4f9c                	lw	a5,24(a5)
    800064f0:	2781                	sext.w	a5,a5
    800064f2:	85be                	mv	a1,a5
    800064f4:	853a                	mv	a0,a4
    800064f6:	ffffe097          	auipc	ra,0xffffe
    800064fa:	6a0080e7          	jalr	1696(ra) # 80004b96 <bread>
    800064fe:	fea43023          	sd	a0,-32(s0)
    80006502:	fe043783          	ld	a5,-32(s0)
    80006506:	05878793          	addi	a5,a5,88
    8000650a:	fcf43c23          	sd	a5,-40(s0)
    8000650e:	0001f797          	auipc	a5,0x1f
    80006512:	40278793          	addi	a5,a5,1026 # 80025910 <log>
    80006516:	57d8                	lw	a4,44(a5)
    80006518:	fd843783          	ld	a5,-40(s0)
    8000651c:	c398                	sw	a4,0(a5)
    8000651e:	fe042623          	sw	zero,-20(s0)
    80006522:	a03d                	j	80006550 <write_head+0x80>
    80006524:	0001f717          	auipc	a4,0x1f
    80006528:	3ec70713          	addi	a4,a4,1004 # 80025910 <log>
    8000652c:	fec42783          	lw	a5,-20(s0)
    80006530:	07a1                	addi	a5,a5,8
    80006532:	078a                	slli	a5,a5,0x2
    80006534:	97ba                	add	a5,a5,a4
    80006536:	4b98                	lw	a4,16(a5)
    80006538:	fd843683          	ld	a3,-40(s0)
    8000653c:	fec42783          	lw	a5,-20(s0)
    80006540:	078a                	slli	a5,a5,0x2
    80006542:	97b6                	add	a5,a5,a3
    80006544:	c3d8                	sw	a4,4(a5)
    80006546:	fec42783          	lw	a5,-20(s0)
    8000654a:	2785                	addiw	a5,a5,1
    8000654c:	fef42623          	sw	a5,-20(s0)
    80006550:	0001f797          	auipc	a5,0x1f
    80006554:	3c078793          	addi	a5,a5,960 # 80025910 <log>
    80006558:	57d8                	lw	a4,44(a5)
    8000655a:	fec42783          	lw	a5,-20(s0)
    8000655e:	2781                	sext.w	a5,a5
    80006560:	fce7c2e3          	blt	a5,a4,80006524 <write_head+0x54>
    80006564:	fe043503          	ld	a0,-32(s0)
    80006568:	ffffe097          	auipc	ra,0xffffe
    8000656c:	688080e7          	jalr	1672(ra) # 80004bf0 <bwrite>
    80006570:	fe043503          	ld	a0,-32(s0)
    80006574:	ffffe097          	auipc	ra,0xffffe
    80006578:	6c4080e7          	jalr	1732(ra) # 80004c38 <brelse>
    8000657c:	0001                	nop
    8000657e:	70a2                	ld	ra,40(sp)
    80006580:	7402                	ld	s0,32(sp)
    80006582:	6145                	addi	sp,sp,48
    80006584:	8082                	ret

0000000080006586 <recover_from_log>:
    80006586:	1141                	addi	sp,sp,-16
    80006588:	e406                	sd	ra,8(sp)
    8000658a:	e022                	sd	s0,0(sp)
    8000658c:	0800                	addi	s0,sp,16
    8000658e:	00000097          	auipc	ra,0x0
    80006592:	e98080e7          	jalr	-360(ra) # 80006426 <read_head>
    80006596:	00000097          	auipc	ra,0x0
    8000659a:	d9e080e7          	jalr	-610(ra) # 80006334 <install_trans>
    8000659e:	0001f797          	auipc	a5,0x1f
    800065a2:	37278793          	addi	a5,a5,882 # 80025910 <log>
    800065a6:	0207a623          	sw	zero,44(a5)
    800065aa:	00000097          	auipc	ra,0x0
    800065ae:	f26080e7          	jalr	-218(ra) # 800064d0 <write_head>
    800065b2:	0001                	nop
    800065b4:	60a2                	ld	ra,8(sp)
    800065b6:	6402                	ld	s0,0(sp)
    800065b8:	0141                	addi	sp,sp,16
    800065ba:	8082                	ret

00000000800065bc <begin_op>:
    800065bc:	1141                	addi	sp,sp,-16
    800065be:	e406                	sd	ra,8(sp)
    800065c0:	e022                	sd	s0,0(sp)
    800065c2:	0800                	addi	s0,sp,16
    800065c4:	0001f517          	auipc	a0,0x1f
    800065c8:	34c50513          	addi	a0,a0,844 # 80025910 <log>
    800065cc:	ffffb097          	auipc	ra,0xffffb
    800065d0:	d06080e7          	jalr	-762(ra) # 800012d2 <acquire>
    800065d4:	0001f797          	auipc	a5,0x1f
    800065d8:	33c78793          	addi	a5,a5,828 # 80025910 <log>
    800065dc:	53dc                	lw	a5,36(a5)
    800065de:	cf91                	beqz	a5,800065fa <begin_op+0x3e>
    800065e0:	0001f597          	auipc	a1,0x1f
    800065e4:	33058593          	addi	a1,a1,816 # 80025910 <log>
    800065e8:	0001f517          	auipc	a0,0x1f
    800065ec:	32850513          	addi	a0,a0,808 # 80025910 <log>
    800065f0:	ffffd097          	auipc	ra,0xffffd
    800065f4:	322080e7          	jalr	802(ra) # 80003912 <sleep>
    800065f8:	bff1                	j	800065d4 <begin_op+0x18>
    800065fa:	0001f797          	auipc	a5,0x1f
    800065fe:	31678793          	addi	a5,a5,790 # 80025910 <log>
    80006602:	57d8                	lw	a4,44(a5)
    80006604:	0001f797          	auipc	a5,0x1f
    80006608:	30c78793          	addi	a5,a5,780 # 80025910 <log>
    8000660c:	539c                	lw	a5,32(a5)
    8000660e:	2785                	addiw	a5,a5,1
    80006610:	2781                	sext.w	a5,a5
    80006612:	86be                	mv	a3,a5
    80006614:	87b6                	mv	a5,a3
    80006616:	0027979b          	slliw	a5,a5,0x2
    8000661a:	9fb5                	addw	a5,a5,a3
    8000661c:	0017979b          	slliw	a5,a5,0x1
    80006620:	2781                	sext.w	a5,a5
    80006622:	9fb9                	addw	a5,a5,a4
    80006624:	2781                	sext.w	a5,a5
    80006626:	873e                	mv	a4,a5
    80006628:	47f9                	li	a5,30
    8000662a:	00e7df63          	bge	a5,a4,80006648 <begin_op+0x8c>
    8000662e:	0001f597          	auipc	a1,0x1f
    80006632:	2e258593          	addi	a1,a1,738 # 80025910 <log>
    80006636:	0001f517          	auipc	a0,0x1f
    8000663a:	2da50513          	addi	a0,a0,730 # 80025910 <log>
    8000663e:	ffffd097          	auipc	ra,0xffffd
    80006642:	2d4080e7          	jalr	724(ra) # 80003912 <sleep>
    80006646:	b779                	j	800065d4 <begin_op+0x18>
    80006648:	0001f797          	auipc	a5,0x1f
    8000664c:	2c878793          	addi	a5,a5,712 # 80025910 <log>
    80006650:	539c                	lw	a5,32(a5)
    80006652:	2785                	addiw	a5,a5,1
    80006654:	0007871b          	sext.w	a4,a5
    80006658:	0001f797          	auipc	a5,0x1f
    8000665c:	2b878793          	addi	a5,a5,696 # 80025910 <log>
    80006660:	d398                	sw	a4,32(a5)
    80006662:	0001f517          	auipc	a0,0x1f
    80006666:	2ae50513          	addi	a0,a0,686 # 80025910 <log>
    8000666a:	ffffb097          	auipc	ra,0xffffb
    8000666e:	ccc080e7          	jalr	-820(ra) # 80001336 <release>
    80006672:	0001                	nop
    80006674:	0001                	nop
    80006676:	60a2                	ld	ra,8(sp)
    80006678:	6402                	ld	s0,0(sp)
    8000667a:	0141                	addi	sp,sp,16
    8000667c:	8082                	ret

000000008000667e <end_op>:
    8000667e:	1101                	addi	sp,sp,-32
    80006680:	ec06                	sd	ra,24(sp)
    80006682:	e822                	sd	s0,16(sp)
    80006684:	1000                	addi	s0,sp,32
    80006686:	fe042623          	sw	zero,-20(s0)
    8000668a:	0001f517          	auipc	a0,0x1f
    8000668e:	28650513          	addi	a0,a0,646 # 80025910 <log>
    80006692:	ffffb097          	auipc	ra,0xffffb
    80006696:	c40080e7          	jalr	-960(ra) # 800012d2 <acquire>
    8000669a:	0001f797          	auipc	a5,0x1f
    8000669e:	27678793          	addi	a5,a5,630 # 80025910 <log>
    800066a2:	539c                	lw	a5,32(a5)
    800066a4:	37fd                	addiw	a5,a5,-1
    800066a6:	0007871b          	sext.w	a4,a5
    800066aa:	0001f797          	auipc	a5,0x1f
    800066ae:	26678793          	addi	a5,a5,614 # 80025910 <log>
    800066b2:	d398                	sw	a4,32(a5)
    800066b4:	0001f797          	auipc	a5,0x1f
    800066b8:	25c78793          	addi	a5,a5,604 # 80025910 <log>
    800066bc:	53dc                	lw	a5,36(a5)
    800066be:	cb89                	beqz	a5,800066d0 <end_op+0x52>
    800066c0:	00006517          	auipc	a0,0x6
    800066c4:	e9850513          	addi	a0,a0,-360 # 8000c558 <etext+0x558>
    800066c8:	ffffa097          	auipc	ra,0xffffa
    800066cc:	5d6080e7          	jalr	1494(ra) # 80000c9e <panic>
    800066d0:	0001f797          	auipc	a5,0x1f
    800066d4:	24078793          	addi	a5,a5,576 # 80025910 <log>
    800066d8:	539c                	lw	a5,32(a5)
    800066da:	eb99                	bnez	a5,800066f0 <end_op+0x72>
    800066dc:	4785                	li	a5,1
    800066de:	fef42623          	sw	a5,-20(s0)
    800066e2:	0001f797          	auipc	a5,0x1f
    800066e6:	22e78793          	addi	a5,a5,558 # 80025910 <log>
    800066ea:	4705                	li	a4,1
    800066ec:	d3d8                	sw	a4,36(a5)
    800066ee:	a809                	j	80006700 <end_op+0x82>
    800066f0:	0001f517          	auipc	a0,0x1f
    800066f4:	22050513          	addi	a0,a0,544 # 80025910 <log>
    800066f8:	ffffd097          	auipc	ra,0xffffd
    800066fc:	2ae080e7          	jalr	686(ra) # 800039a6 <wakeup>
    80006700:	0001f517          	auipc	a0,0x1f
    80006704:	21050513          	addi	a0,a0,528 # 80025910 <log>
    80006708:	ffffb097          	auipc	ra,0xffffb
    8000670c:	c2e080e7          	jalr	-978(ra) # 80001336 <release>
    80006710:	fec42783          	lw	a5,-20(s0)
    80006714:	2781                	sext.w	a5,a5
    80006716:	c3b9                	beqz	a5,8000675c <end_op+0xde>
    80006718:	00000097          	auipc	ra,0x0
    8000671c:	134080e7          	jalr	308(ra) # 8000684c <commit>
    80006720:	0001f517          	auipc	a0,0x1f
    80006724:	1f050513          	addi	a0,a0,496 # 80025910 <log>
    80006728:	ffffb097          	auipc	ra,0xffffb
    8000672c:	baa080e7          	jalr	-1110(ra) # 800012d2 <acquire>
    80006730:	0001f797          	auipc	a5,0x1f
    80006734:	1e078793          	addi	a5,a5,480 # 80025910 <log>
    80006738:	0207a223          	sw	zero,36(a5)
    8000673c:	0001f517          	auipc	a0,0x1f
    80006740:	1d450513          	addi	a0,a0,468 # 80025910 <log>
    80006744:	ffffd097          	auipc	ra,0xffffd
    80006748:	262080e7          	jalr	610(ra) # 800039a6 <wakeup>
    8000674c:	0001f517          	auipc	a0,0x1f
    80006750:	1c450513          	addi	a0,a0,452 # 80025910 <log>
    80006754:	ffffb097          	auipc	ra,0xffffb
    80006758:	be2080e7          	jalr	-1054(ra) # 80001336 <release>
    8000675c:	0001                	nop
    8000675e:	60e2                	ld	ra,24(sp)
    80006760:	6442                	ld	s0,16(sp)
    80006762:	6105                	addi	sp,sp,32
    80006764:	8082                	ret

0000000080006766 <write_log>:
    80006766:	7179                	addi	sp,sp,-48
    80006768:	f406                	sd	ra,40(sp)
    8000676a:	f022                	sd	s0,32(sp)
    8000676c:	1800                	addi	s0,sp,48
    8000676e:	fe042623          	sw	zero,-20(s0)
    80006772:	a86d                	j	8000682c <write_log+0xc6>
    80006774:	0001f797          	auipc	a5,0x1f
    80006778:	19c78793          	addi	a5,a5,412 # 80025910 <log>
    8000677c:	579c                	lw	a5,40(a5)
    8000677e:	0007871b          	sext.w	a4,a5
    80006782:	0001f797          	auipc	a5,0x1f
    80006786:	18e78793          	addi	a5,a5,398 # 80025910 <log>
    8000678a:	4f9c                	lw	a5,24(a5)
    8000678c:	fec42683          	lw	a3,-20(s0)
    80006790:	9fb5                	addw	a5,a5,a3
    80006792:	2781                	sext.w	a5,a5
    80006794:	2785                	addiw	a5,a5,1
    80006796:	2781                	sext.w	a5,a5
    80006798:	2781                	sext.w	a5,a5
    8000679a:	85be                	mv	a1,a5
    8000679c:	853a                	mv	a0,a4
    8000679e:	ffffe097          	auipc	ra,0xffffe
    800067a2:	3f8080e7          	jalr	1016(ra) # 80004b96 <bread>
    800067a6:	fea43023          	sd	a0,-32(s0)
    800067aa:	0001f797          	auipc	a5,0x1f
    800067ae:	16678793          	addi	a5,a5,358 # 80025910 <log>
    800067b2:	579c                	lw	a5,40(a5)
    800067b4:	0007869b          	sext.w	a3,a5
    800067b8:	0001f717          	auipc	a4,0x1f
    800067bc:	15870713          	addi	a4,a4,344 # 80025910 <log>
    800067c0:	fec42783          	lw	a5,-20(s0)
    800067c4:	07a1                	addi	a5,a5,8
    800067c6:	078a                	slli	a5,a5,0x2
    800067c8:	97ba                	add	a5,a5,a4
    800067ca:	4b9c                	lw	a5,16(a5)
    800067cc:	2781                	sext.w	a5,a5
    800067ce:	85be                	mv	a1,a5
    800067d0:	8536                	mv	a0,a3
    800067d2:	ffffe097          	auipc	ra,0xffffe
    800067d6:	3c4080e7          	jalr	964(ra) # 80004b96 <bread>
    800067da:	fca43c23          	sd	a0,-40(s0)
    800067de:	fe043783          	ld	a5,-32(s0)
    800067e2:	05878713          	addi	a4,a5,88
    800067e6:	fd843783          	ld	a5,-40(s0)
    800067ea:	05878793          	addi	a5,a5,88
    800067ee:	40000613          	li	a2,1024
    800067f2:	85be                	mv	a1,a5
    800067f4:	853a                	mv	a0,a4
    800067f6:	ffffb097          	auipc	ra,0xffffb
    800067fa:	d94080e7          	jalr	-620(ra) # 8000158a <memmove>
    800067fe:	fe043503          	ld	a0,-32(s0)
    80006802:	ffffe097          	auipc	ra,0xffffe
    80006806:	3ee080e7          	jalr	1006(ra) # 80004bf0 <bwrite>
    8000680a:	fd843503          	ld	a0,-40(s0)
    8000680e:	ffffe097          	auipc	ra,0xffffe
    80006812:	42a080e7          	jalr	1066(ra) # 80004c38 <brelse>
    80006816:	fe043503          	ld	a0,-32(s0)
    8000681a:	ffffe097          	auipc	ra,0xffffe
    8000681e:	41e080e7          	jalr	1054(ra) # 80004c38 <brelse>
    80006822:	fec42783          	lw	a5,-20(s0)
    80006826:	2785                	addiw	a5,a5,1
    80006828:	fef42623          	sw	a5,-20(s0)
    8000682c:	0001f797          	auipc	a5,0x1f
    80006830:	0e478793          	addi	a5,a5,228 # 80025910 <log>
    80006834:	57d8                	lw	a4,44(a5)
    80006836:	fec42783          	lw	a5,-20(s0)
    8000683a:	2781                	sext.w	a5,a5
    8000683c:	f2e7cce3          	blt	a5,a4,80006774 <write_log+0xe>
    80006840:	0001                	nop
    80006842:	0001                	nop
    80006844:	70a2                	ld	ra,40(sp)
    80006846:	7402                	ld	s0,32(sp)
    80006848:	6145                	addi	sp,sp,48
    8000684a:	8082                	ret

000000008000684c <commit>:
    8000684c:	1141                	addi	sp,sp,-16
    8000684e:	e406                	sd	ra,8(sp)
    80006850:	e022                	sd	s0,0(sp)
    80006852:	0800                	addi	s0,sp,16
    80006854:	0001f797          	auipc	a5,0x1f
    80006858:	0bc78793          	addi	a5,a5,188 # 80025910 <log>
    8000685c:	57dc                	lw	a5,44(a5)
    8000685e:	02f05863          	blez	a5,8000688e <commit+0x42>
    80006862:	00000097          	auipc	ra,0x0
    80006866:	f04080e7          	jalr	-252(ra) # 80006766 <write_log>
    8000686a:	00000097          	auipc	ra,0x0
    8000686e:	c66080e7          	jalr	-922(ra) # 800064d0 <write_head>
    80006872:	00000097          	auipc	ra,0x0
    80006876:	ac2080e7          	jalr	-1342(ra) # 80006334 <install_trans>
    8000687a:	0001f797          	auipc	a5,0x1f
    8000687e:	09678793          	addi	a5,a5,150 # 80025910 <log>
    80006882:	0207a623          	sw	zero,44(a5)
    80006886:	00000097          	auipc	ra,0x0
    8000688a:	c4a080e7          	jalr	-950(ra) # 800064d0 <write_head>
    8000688e:	0001                	nop
    80006890:	60a2                	ld	ra,8(sp)
    80006892:	6402                	ld	s0,0(sp)
    80006894:	0141                	addi	sp,sp,16
    80006896:	8082                	ret

0000000080006898 <log_write>:
    80006898:	7179                	addi	sp,sp,-48
    8000689a:	f406                	sd	ra,40(sp)
    8000689c:	f022                	sd	s0,32(sp)
    8000689e:	1800                	addi	s0,sp,48
    800068a0:	fca43c23          	sd	a0,-40(s0)
    800068a4:	0001f797          	auipc	a5,0x1f
    800068a8:	06c78793          	addi	a5,a5,108 # 80025910 <log>
    800068ac:	57dc                	lw	a5,44(a5)
    800068ae:	873e                	mv	a4,a5
    800068b0:	47f5                	li	a5,29
    800068b2:	02e7c063          	blt	a5,a4,800068d2 <log_write+0x3a>
    800068b6:	0001f797          	auipc	a5,0x1f
    800068ba:	05a78793          	addi	a5,a5,90 # 80025910 <log>
    800068be:	57d8                	lw	a4,44(a5)
    800068c0:	0001f797          	auipc	a5,0x1f
    800068c4:	05078793          	addi	a5,a5,80 # 80025910 <log>
    800068c8:	4fdc                	lw	a5,28(a5)
    800068ca:	37fd                	addiw	a5,a5,-1
    800068cc:	2781                	sext.w	a5,a5
    800068ce:	00f74a63          	blt	a4,a5,800068e2 <log_write+0x4a>
    800068d2:	00006517          	auipc	a0,0x6
    800068d6:	c9650513          	addi	a0,a0,-874 # 8000c568 <etext+0x568>
    800068da:	ffffa097          	auipc	ra,0xffffa
    800068de:	3c4080e7          	jalr	964(ra) # 80000c9e <panic>
    800068e2:	0001f797          	auipc	a5,0x1f
    800068e6:	02e78793          	addi	a5,a5,46 # 80025910 <log>
    800068ea:	539c                	lw	a5,32(a5)
    800068ec:	00f04a63          	bgtz	a5,80006900 <log_write+0x68>
    800068f0:	00006517          	auipc	a0,0x6
    800068f4:	c9050513          	addi	a0,a0,-880 # 8000c580 <etext+0x580>
    800068f8:	ffffa097          	auipc	ra,0xffffa
    800068fc:	3a6080e7          	jalr	934(ra) # 80000c9e <panic>
    80006900:	0001f517          	auipc	a0,0x1f
    80006904:	01050513          	addi	a0,a0,16 # 80025910 <log>
    80006908:	ffffb097          	auipc	ra,0xffffb
    8000690c:	9ca080e7          	jalr	-1590(ra) # 800012d2 <acquire>
    80006910:	fe042623          	sw	zero,-20(s0)
    80006914:	a03d                	j	80006942 <log_write+0xaa>
    80006916:	0001f717          	auipc	a4,0x1f
    8000691a:	ffa70713          	addi	a4,a4,-6 # 80025910 <log>
    8000691e:	fec42783          	lw	a5,-20(s0)
    80006922:	07a1                	addi	a5,a5,8
    80006924:	078a                	slli	a5,a5,0x2
    80006926:	97ba                	add	a5,a5,a4
    80006928:	4b9c                	lw	a5,16(a5)
    8000692a:	0007871b          	sext.w	a4,a5
    8000692e:	fd843783          	ld	a5,-40(s0)
    80006932:	47dc                	lw	a5,12(a5)
    80006934:	02f70263          	beq	a4,a5,80006958 <log_write+0xc0>
    80006938:	fec42783          	lw	a5,-20(s0)
    8000693c:	2785                	addiw	a5,a5,1
    8000693e:	fef42623          	sw	a5,-20(s0)
    80006942:	0001f797          	auipc	a5,0x1f
    80006946:	fce78793          	addi	a5,a5,-50 # 80025910 <log>
    8000694a:	57d8                	lw	a4,44(a5)
    8000694c:	fec42783          	lw	a5,-20(s0)
    80006950:	2781                	sext.w	a5,a5
    80006952:	fce7c2e3          	blt	a5,a4,80006916 <log_write+0x7e>
    80006956:	a011                	j	8000695a <log_write+0xc2>
    80006958:	0001                	nop
    8000695a:	fd843783          	ld	a5,-40(s0)
    8000695e:	47dc                	lw	a5,12(a5)
    80006960:	0007871b          	sext.w	a4,a5
    80006964:	0001f697          	auipc	a3,0x1f
    80006968:	fac68693          	addi	a3,a3,-84 # 80025910 <log>
    8000696c:	fec42783          	lw	a5,-20(s0)
    80006970:	07a1                	addi	a5,a5,8
    80006972:	078a                	slli	a5,a5,0x2
    80006974:	97b6                	add	a5,a5,a3
    80006976:	cb98                	sw	a4,16(a5)
    80006978:	0001f797          	auipc	a5,0x1f
    8000697c:	f9878793          	addi	a5,a5,-104 # 80025910 <log>
    80006980:	57d8                	lw	a4,44(a5)
    80006982:	fec42783          	lw	a5,-20(s0)
    80006986:	2781                	sext.w	a5,a5
    80006988:	02e79563          	bne	a5,a4,800069b2 <log_write+0x11a>
    8000698c:	fd843503          	ld	a0,-40(s0)
    80006990:	ffffe097          	auipc	ra,0xffffe
    80006994:	396080e7          	jalr	918(ra) # 80004d26 <bpin>
    80006998:	0001f797          	auipc	a5,0x1f
    8000699c:	f7878793          	addi	a5,a5,-136 # 80025910 <log>
    800069a0:	57dc                	lw	a5,44(a5)
    800069a2:	2785                	addiw	a5,a5,1
    800069a4:	0007871b          	sext.w	a4,a5
    800069a8:	0001f797          	auipc	a5,0x1f
    800069ac:	f6878793          	addi	a5,a5,-152 # 80025910 <log>
    800069b0:	d7d8                	sw	a4,44(a5)
    800069b2:	0001f517          	auipc	a0,0x1f
    800069b6:	f5e50513          	addi	a0,a0,-162 # 80025910 <log>
    800069ba:	ffffb097          	auipc	ra,0xffffb
    800069be:	97c080e7          	jalr	-1668(ra) # 80001336 <release>
    800069c2:	0001                	nop
    800069c4:	70a2                	ld	ra,40(sp)
    800069c6:	7402                	ld	s0,32(sp)
    800069c8:	6145                	addi	sp,sp,48
    800069ca:	8082                	ret

00000000800069cc <initsleeplock>:
    800069cc:	1101                	addi	sp,sp,-32
    800069ce:	ec06                	sd	ra,24(sp)
    800069d0:	e822                	sd	s0,16(sp)
    800069d2:	1000                	addi	s0,sp,32
    800069d4:	fea43423          	sd	a0,-24(s0)
    800069d8:	feb43023          	sd	a1,-32(s0)
    800069dc:	fe843783          	ld	a5,-24(s0)
    800069e0:	07a1                	addi	a5,a5,8
    800069e2:	00006597          	auipc	a1,0x6
    800069e6:	bbe58593          	addi	a1,a1,-1090 # 8000c5a0 <etext+0x5a0>
    800069ea:	853e                	mv	a0,a5
    800069ec:	ffffb097          	auipc	ra,0xffffb
    800069f0:	8b6080e7          	jalr	-1866(ra) # 800012a2 <initlock>
    800069f4:	fe843783          	ld	a5,-24(s0)
    800069f8:	fe043703          	ld	a4,-32(s0)
    800069fc:	f398                	sd	a4,32(a5)
    800069fe:	fe843783          	ld	a5,-24(s0)
    80006a02:	0007a023          	sw	zero,0(a5)
    80006a06:	fe843783          	ld	a5,-24(s0)
    80006a0a:	0207a423          	sw	zero,40(a5)
    80006a0e:	0001                	nop
    80006a10:	60e2                	ld	ra,24(sp)
    80006a12:	6442                	ld	s0,16(sp)
    80006a14:	6105                	addi	sp,sp,32
    80006a16:	8082                	ret

0000000080006a18 <acquiresleep>:
    80006a18:	1101                	addi	sp,sp,-32
    80006a1a:	ec06                	sd	ra,24(sp)
    80006a1c:	e822                	sd	s0,16(sp)
    80006a1e:	1000                	addi	s0,sp,32
    80006a20:	fea43423          	sd	a0,-24(s0)
    80006a24:	fe843783          	ld	a5,-24(s0)
    80006a28:	07a1                	addi	a5,a5,8
    80006a2a:	853e                	mv	a0,a5
    80006a2c:	ffffb097          	auipc	ra,0xffffb
    80006a30:	8a6080e7          	jalr	-1882(ra) # 800012d2 <acquire>
    80006a34:	a819                	j	80006a4a <acquiresleep+0x32>
    80006a36:	fe843783          	ld	a5,-24(s0)
    80006a3a:	07a1                	addi	a5,a5,8
    80006a3c:	85be                	mv	a1,a5
    80006a3e:	fe843503          	ld	a0,-24(s0)
    80006a42:	ffffd097          	auipc	ra,0xffffd
    80006a46:	ed0080e7          	jalr	-304(ra) # 80003912 <sleep>
    80006a4a:	fe843783          	ld	a5,-24(s0)
    80006a4e:	439c                	lw	a5,0(a5)
    80006a50:	f3fd                	bnez	a5,80006a36 <acquiresleep+0x1e>
    80006a52:	fe843783          	ld	a5,-24(s0)
    80006a56:	4705                	li	a4,1
    80006a58:	c398                	sw	a4,0(a5)
    80006a5a:	ffffc097          	auipc	ra,0xffffc
    80006a5e:	ef8080e7          	jalr	-264(ra) # 80002952 <myproc>
    80006a62:	87aa                	mv	a5,a0
    80006a64:	5f98                	lw	a4,56(a5)
    80006a66:	fe843783          	ld	a5,-24(s0)
    80006a6a:	d798                	sw	a4,40(a5)
    80006a6c:	fe843783          	ld	a5,-24(s0)
    80006a70:	07a1                	addi	a5,a5,8
    80006a72:	853e                	mv	a0,a5
    80006a74:	ffffb097          	auipc	ra,0xffffb
    80006a78:	8c2080e7          	jalr	-1854(ra) # 80001336 <release>
    80006a7c:	0001                	nop
    80006a7e:	60e2                	ld	ra,24(sp)
    80006a80:	6442                	ld	s0,16(sp)
    80006a82:	6105                	addi	sp,sp,32
    80006a84:	8082                	ret

0000000080006a86 <releasesleep>:
    80006a86:	1101                	addi	sp,sp,-32
    80006a88:	ec06                	sd	ra,24(sp)
    80006a8a:	e822                	sd	s0,16(sp)
    80006a8c:	1000                	addi	s0,sp,32
    80006a8e:	fea43423          	sd	a0,-24(s0)
    80006a92:	fe843783          	ld	a5,-24(s0)
    80006a96:	07a1                	addi	a5,a5,8
    80006a98:	853e                	mv	a0,a5
    80006a9a:	ffffb097          	auipc	ra,0xffffb
    80006a9e:	838080e7          	jalr	-1992(ra) # 800012d2 <acquire>
    80006aa2:	fe843783          	ld	a5,-24(s0)
    80006aa6:	0007a023          	sw	zero,0(a5)
    80006aaa:	fe843783          	ld	a5,-24(s0)
    80006aae:	0207a423          	sw	zero,40(a5)
    80006ab2:	fe843503          	ld	a0,-24(s0)
    80006ab6:	ffffd097          	auipc	ra,0xffffd
    80006aba:	ef0080e7          	jalr	-272(ra) # 800039a6 <wakeup>
    80006abe:	fe843783          	ld	a5,-24(s0)
    80006ac2:	07a1                	addi	a5,a5,8
    80006ac4:	853e                	mv	a0,a5
    80006ac6:	ffffb097          	auipc	ra,0xffffb
    80006aca:	870080e7          	jalr	-1936(ra) # 80001336 <release>
    80006ace:	0001                	nop
    80006ad0:	60e2                	ld	ra,24(sp)
    80006ad2:	6442                	ld	s0,16(sp)
    80006ad4:	6105                	addi	sp,sp,32
    80006ad6:	8082                	ret

0000000080006ad8 <holdingsleep>:
    80006ad8:	7139                	addi	sp,sp,-64
    80006ada:	fc06                	sd	ra,56(sp)
    80006adc:	f822                	sd	s0,48(sp)
    80006ade:	f426                	sd	s1,40(sp)
    80006ae0:	0080                	addi	s0,sp,64
    80006ae2:	fca43423          	sd	a0,-56(s0)
    80006ae6:	fc843783          	ld	a5,-56(s0)
    80006aea:	07a1                	addi	a5,a5,8
    80006aec:	853e                	mv	a0,a5
    80006aee:	ffffa097          	auipc	ra,0xffffa
    80006af2:	7e4080e7          	jalr	2020(ra) # 800012d2 <acquire>
    80006af6:	fc843783          	ld	a5,-56(s0)
    80006afa:	439c                	lw	a5,0(a5)
    80006afc:	cf99                	beqz	a5,80006b1a <holdingsleep+0x42>
    80006afe:	fc843783          	ld	a5,-56(s0)
    80006b02:	5784                	lw	s1,40(a5)
    80006b04:	ffffc097          	auipc	ra,0xffffc
    80006b08:	e4e080e7          	jalr	-434(ra) # 80002952 <myproc>
    80006b0c:	87aa                	mv	a5,a0
    80006b0e:	5f9c                	lw	a5,56(a5)
    80006b10:	8726                	mv	a4,s1
    80006b12:	00f71463          	bne	a4,a5,80006b1a <holdingsleep+0x42>
    80006b16:	4785                	li	a5,1
    80006b18:	a011                	j	80006b1c <holdingsleep+0x44>
    80006b1a:	4781                	li	a5,0
    80006b1c:	fcf42e23          	sw	a5,-36(s0)
    80006b20:	fc843783          	ld	a5,-56(s0)
    80006b24:	07a1                	addi	a5,a5,8
    80006b26:	853e                	mv	a0,a5
    80006b28:	ffffb097          	auipc	ra,0xffffb
    80006b2c:	80e080e7          	jalr	-2034(ra) # 80001336 <release>
    80006b30:	fdc42783          	lw	a5,-36(s0)
    80006b34:	853e                	mv	a0,a5
    80006b36:	70e2                	ld	ra,56(sp)
    80006b38:	7442                	ld	s0,48(sp)
    80006b3a:	74a2                	ld	s1,40(sp)
    80006b3c:	6121                	addi	sp,sp,64
    80006b3e:	8082                	ret

0000000080006b40 <fileinit>:
    80006b40:	1141                	addi	sp,sp,-16
    80006b42:	e406                	sd	ra,8(sp)
    80006b44:	e022                	sd	s0,0(sp)
    80006b46:	0800                	addi	s0,sp,16
    80006b48:	00006597          	auipc	a1,0x6
    80006b4c:	a6858593          	addi	a1,a1,-1432 # 8000c5b0 <etext+0x5b0>
    80006b50:	0001f517          	auipc	a0,0x1f
    80006b54:	f0850513          	addi	a0,a0,-248 # 80025a58 <ftable>
    80006b58:	ffffa097          	auipc	ra,0xffffa
    80006b5c:	74a080e7          	jalr	1866(ra) # 800012a2 <initlock>
    80006b60:	0001                	nop
    80006b62:	60a2                	ld	ra,8(sp)
    80006b64:	6402                	ld	s0,0(sp)
    80006b66:	0141                	addi	sp,sp,16
    80006b68:	8082                	ret

0000000080006b6a <filealloc>:
    80006b6a:	1101                	addi	sp,sp,-32
    80006b6c:	ec06                	sd	ra,24(sp)
    80006b6e:	e822                	sd	s0,16(sp)
    80006b70:	1000                	addi	s0,sp,32
    80006b72:	0001f517          	auipc	a0,0x1f
    80006b76:	ee650513          	addi	a0,a0,-282 # 80025a58 <ftable>
    80006b7a:	ffffa097          	auipc	ra,0xffffa
    80006b7e:	758080e7          	jalr	1880(ra) # 800012d2 <acquire>
    80006b82:	0001f797          	auipc	a5,0x1f
    80006b86:	eee78793          	addi	a5,a5,-274 # 80025a70 <ftable+0x18>
    80006b8a:	fef43423          	sd	a5,-24(s0)
    80006b8e:	a815                	j	80006bc2 <filealloc+0x58>
    80006b90:	fe843783          	ld	a5,-24(s0)
    80006b94:	43dc                	lw	a5,4(a5)
    80006b96:	e385                	bnez	a5,80006bb6 <filealloc+0x4c>
    80006b98:	fe843783          	ld	a5,-24(s0)
    80006b9c:	4705                	li	a4,1
    80006b9e:	c3d8                	sw	a4,4(a5)
    80006ba0:	0001f517          	auipc	a0,0x1f
    80006ba4:	eb850513          	addi	a0,a0,-328 # 80025a58 <ftable>
    80006ba8:	ffffa097          	auipc	ra,0xffffa
    80006bac:	78e080e7          	jalr	1934(ra) # 80001336 <release>
    80006bb0:	fe843783          	ld	a5,-24(s0)
    80006bb4:	a805                	j	80006be4 <filealloc+0x7a>
    80006bb6:	fe843783          	ld	a5,-24(s0)
    80006bba:	02878793          	addi	a5,a5,40
    80006bbe:	fef43423          	sd	a5,-24(s0)
    80006bc2:	00020797          	auipc	a5,0x20
    80006bc6:	e4e78793          	addi	a5,a5,-434 # 80026a10 <ftable+0xfb8>
    80006bca:	fe843703          	ld	a4,-24(s0)
    80006bce:	fcf761e3          	bltu	a4,a5,80006b90 <filealloc+0x26>
    80006bd2:	0001f517          	auipc	a0,0x1f
    80006bd6:	e8650513          	addi	a0,a0,-378 # 80025a58 <ftable>
    80006bda:	ffffa097          	auipc	ra,0xffffa
    80006bde:	75c080e7          	jalr	1884(ra) # 80001336 <release>
    80006be2:	4781                	li	a5,0
    80006be4:	853e                	mv	a0,a5
    80006be6:	60e2                	ld	ra,24(sp)
    80006be8:	6442                	ld	s0,16(sp)
    80006bea:	6105                	addi	sp,sp,32
    80006bec:	8082                	ret

0000000080006bee <filedup>:
    80006bee:	1101                	addi	sp,sp,-32
    80006bf0:	ec06                	sd	ra,24(sp)
    80006bf2:	e822                	sd	s0,16(sp)
    80006bf4:	1000                	addi	s0,sp,32
    80006bf6:	fea43423          	sd	a0,-24(s0)
    80006bfa:	0001f517          	auipc	a0,0x1f
    80006bfe:	e5e50513          	addi	a0,a0,-418 # 80025a58 <ftable>
    80006c02:	ffffa097          	auipc	ra,0xffffa
    80006c06:	6d0080e7          	jalr	1744(ra) # 800012d2 <acquire>
    80006c0a:	fe843783          	ld	a5,-24(s0)
    80006c0e:	43dc                	lw	a5,4(a5)
    80006c10:	00f04a63          	bgtz	a5,80006c24 <filedup+0x36>
    80006c14:	00006517          	auipc	a0,0x6
    80006c18:	9a450513          	addi	a0,a0,-1628 # 8000c5b8 <etext+0x5b8>
    80006c1c:	ffffa097          	auipc	ra,0xffffa
    80006c20:	082080e7          	jalr	130(ra) # 80000c9e <panic>
    80006c24:	fe843783          	ld	a5,-24(s0)
    80006c28:	43dc                	lw	a5,4(a5)
    80006c2a:	2785                	addiw	a5,a5,1
    80006c2c:	0007871b          	sext.w	a4,a5
    80006c30:	fe843783          	ld	a5,-24(s0)
    80006c34:	c3d8                	sw	a4,4(a5)
    80006c36:	0001f517          	auipc	a0,0x1f
    80006c3a:	e2250513          	addi	a0,a0,-478 # 80025a58 <ftable>
    80006c3e:	ffffa097          	auipc	ra,0xffffa
    80006c42:	6f8080e7          	jalr	1784(ra) # 80001336 <release>
    80006c46:	fe843783          	ld	a5,-24(s0)
    80006c4a:	853e                	mv	a0,a5
    80006c4c:	60e2                	ld	ra,24(sp)
    80006c4e:	6442                	ld	s0,16(sp)
    80006c50:	6105                	addi	sp,sp,32
    80006c52:	8082                	ret

0000000080006c54 <fileclose>:
    80006c54:	715d                	addi	sp,sp,-80
    80006c56:	e486                	sd	ra,72(sp)
    80006c58:	e0a2                	sd	s0,64(sp)
    80006c5a:	0880                	addi	s0,sp,80
    80006c5c:	faa43c23          	sd	a0,-72(s0)
    80006c60:	0001f517          	auipc	a0,0x1f
    80006c64:	df850513          	addi	a0,a0,-520 # 80025a58 <ftable>
    80006c68:	ffffa097          	auipc	ra,0xffffa
    80006c6c:	66a080e7          	jalr	1642(ra) # 800012d2 <acquire>
    80006c70:	fb843783          	ld	a5,-72(s0)
    80006c74:	43dc                	lw	a5,4(a5)
    80006c76:	00f04a63          	bgtz	a5,80006c8a <fileclose+0x36>
    80006c7a:	00006517          	auipc	a0,0x6
    80006c7e:	94650513          	addi	a0,a0,-1722 # 8000c5c0 <etext+0x5c0>
    80006c82:	ffffa097          	auipc	ra,0xffffa
    80006c86:	01c080e7          	jalr	28(ra) # 80000c9e <panic>
    80006c8a:	fb843783          	ld	a5,-72(s0)
    80006c8e:	43dc                	lw	a5,4(a5)
    80006c90:	37fd                	addiw	a5,a5,-1
    80006c92:	0007871b          	sext.w	a4,a5
    80006c96:	fb843783          	ld	a5,-72(s0)
    80006c9a:	c3d8                	sw	a4,4(a5)
    80006c9c:	fb843783          	ld	a5,-72(s0)
    80006ca0:	43dc                	lw	a5,4(a5)
    80006ca2:	00f05b63          	blez	a5,80006cb8 <fileclose+0x64>
    80006ca6:	0001f517          	auipc	a0,0x1f
    80006caa:	db250513          	addi	a0,a0,-590 # 80025a58 <ftable>
    80006cae:	ffffa097          	auipc	ra,0xffffa
    80006cb2:	688080e7          	jalr	1672(ra) # 80001336 <release>
    80006cb6:	a879                	j	80006d54 <fileclose+0x100>
    80006cb8:	fb843783          	ld	a5,-72(s0)
    80006cbc:	638c                	ld	a1,0(a5)
    80006cbe:	6790                	ld	a2,8(a5)
    80006cc0:	6b94                	ld	a3,16(a5)
    80006cc2:	6f98                	ld	a4,24(a5)
    80006cc4:	739c                	ld	a5,32(a5)
    80006cc6:	fcb43423          	sd	a1,-56(s0)
    80006cca:	fcc43823          	sd	a2,-48(s0)
    80006cce:	fcd43c23          	sd	a3,-40(s0)
    80006cd2:	fee43023          	sd	a4,-32(s0)
    80006cd6:	fef43423          	sd	a5,-24(s0)
    80006cda:	fb843783          	ld	a5,-72(s0)
    80006cde:	0007a223          	sw	zero,4(a5)
    80006ce2:	fb843783          	ld	a5,-72(s0)
    80006ce6:	0007a023          	sw	zero,0(a5)
    80006cea:	0001f517          	auipc	a0,0x1f
    80006cee:	d6e50513          	addi	a0,a0,-658 # 80025a58 <ftable>
    80006cf2:	ffffa097          	auipc	ra,0xffffa
    80006cf6:	644080e7          	jalr	1604(ra) # 80001336 <release>
    80006cfa:	fc842783          	lw	a5,-56(s0)
    80006cfe:	873e                	mv	a4,a5
    80006d00:	4785                	li	a5,1
    80006d02:	00f71e63          	bne	a4,a5,80006d1e <fileclose+0xca>
    80006d06:	fd843783          	ld	a5,-40(s0)
    80006d0a:	fd144703          	lbu	a4,-47(s0)
    80006d0e:	2701                	sext.w	a4,a4
    80006d10:	85ba                	mv	a1,a4
    80006d12:	853e                	mv	a0,a5
    80006d14:	00000097          	auipc	ra,0x0
    80006d18:	5c0080e7          	jalr	1472(ra) # 800072d4 <pipeclose>
    80006d1c:	a825                	j	80006d54 <fileclose+0x100>
    80006d1e:	fc842783          	lw	a5,-56(s0)
    80006d22:	873e                	mv	a4,a5
    80006d24:	4789                	li	a5,2
    80006d26:	00f70863          	beq	a4,a5,80006d36 <fileclose+0xe2>
    80006d2a:	fc842783          	lw	a5,-56(s0)
    80006d2e:	873e                	mv	a4,a5
    80006d30:	478d                	li	a5,3
    80006d32:	02f71163          	bne	a4,a5,80006d54 <fileclose+0x100>
    80006d36:	00000097          	auipc	ra,0x0
    80006d3a:	886080e7          	jalr	-1914(ra) # 800065bc <begin_op>
    80006d3e:	fe043783          	ld	a5,-32(s0)
    80006d42:	853e                	mv	a0,a5
    80006d44:	fffff097          	auipc	ra,0xfffff
    80006d48:	9b0080e7          	jalr	-1616(ra) # 800056f4 <iput>
    80006d4c:	00000097          	auipc	ra,0x0
    80006d50:	932080e7          	jalr	-1742(ra) # 8000667e <end_op>
    80006d54:	60a6                	ld	ra,72(sp)
    80006d56:	6406                	ld	s0,64(sp)
    80006d58:	6161                	addi	sp,sp,80
    80006d5a:	8082                	ret

0000000080006d5c <filestat>:
    80006d5c:	7139                	addi	sp,sp,-64
    80006d5e:	fc06                	sd	ra,56(sp)
    80006d60:	f822                	sd	s0,48(sp)
    80006d62:	0080                	addi	s0,sp,64
    80006d64:	fca43423          	sd	a0,-56(s0)
    80006d68:	fcb43023          	sd	a1,-64(s0)
    80006d6c:	ffffc097          	auipc	ra,0xffffc
    80006d70:	be6080e7          	jalr	-1050(ra) # 80002952 <myproc>
    80006d74:	fea43423          	sd	a0,-24(s0)
    80006d78:	fc843783          	ld	a5,-56(s0)
    80006d7c:	439c                	lw	a5,0(a5)
    80006d7e:	873e                	mv	a4,a5
    80006d80:	4789                	li	a5,2
    80006d82:	00f70963          	beq	a4,a5,80006d94 <filestat+0x38>
    80006d86:	fc843783          	ld	a5,-56(s0)
    80006d8a:	439c                	lw	a5,0(a5)
    80006d8c:	873e                	mv	a4,a5
    80006d8e:	478d                	li	a5,3
    80006d90:	06f71263          	bne	a4,a5,80006df4 <filestat+0x98>
    80006d94:	fc843783          	ld	a5,-56(s0)
    80006d98:	6f9c                	ld	a5,24(a5)
    80006d9a:	853e                	mv	a0,a5
    80006d9c:	ffffe097          	auipc	ra,0xffffe
    80006da0:	7ca080e7          	jalr	1994(ra) # 80005566 <ilock>
    80006da4:	fc843783          	ld	a5,-56(s0)
    80006da8:	6f9c                	ld	a5,24(a5)
    80006daa:	fd040713          	addi	a4,s0,-48
    80006dae:	85ba                	mv	a1,a4
    80006db0:	853e                	mv	a0,a5
    80006db2:	fffff097          	auipc	ra,0xfffff
    80006db6:	ce6080e7          	jalr	-794(ra) # 80005a98 <stati>
    80006dba:	fc843783          	ld	a5,-56(s0)
    80006dbe:	6f9c                	ld	a5,24(a5)
    80006dc0:	853e                	mv	a0,a5
    80006dc2:	fffff097          	auipc	ra,0xfffff
    80006dc6:	8d8080e7          	jalr	-1832(ra) # 8000569a <iunlock>
    80006dca:	fe843783          	ld	a5,-24(s0)
    80006dce:	6bbc                	ld	a5,80(a5)
    80006dd0:	fd040713          	addi	a4,s0,-48
    80006dd4:	46e1                	li	a3,24
    80006dd6:	863a                	mv	a2,a4
    80006dd8:	fc043583          	ld	a1,-64(s0)
    80006ddc:	853e                	mv	a0,a5
    80006dde:	ffffb097          	auipc	ra,0xffffb
    80006de2:	68a080e7          	jalr	1674(ra) # 80002468 <copyout>
    80006de6:	87aa                	mv	a5,a0
    80006de8:	0007d463          	bgez	a5,80006df0 <filestat+0x94>
    80006dec:	57fd                	li	a5,-1
    80006dee:	a021                	j	80006df6 <filestat+0x9a>
    80006df0:	4781                	li	a5,0
    80006df2:	a011                	j	80006df6 <filestat+0x9a>
    80006df4:	57fd                	li	a5,-1
    80006df6:	853e                	mv	a0,a5
    80006df8:	70e2                	ld	ra,56(sp)
    80006dfa:	7442                	ld	s0,48(sp)
    80006dfc:	6121                	addi	sp,sp,64
    80006dfe:	8082                	ret

0000000080006e00 <fileread>:
    80006e00:	7139                	addi	sp,sp,-64
    80006e02:	fc06                	sd	ra,56(sp)
    80006e04:	f822                	sd	s0,48(sp)
    80006e06:	0080                	addi	s0,sp,64
    80006e08:	fca43c23          	sd	a0,-40(s0)
    80006e0c:	fcb43823          	sd	a1,-48(s0)
    80006e10:	87b2                	mv	a5,a2
    80006e12:	fcf42623          	sw	a5,-52(s0)
    80006e16:	fe042623          	sw	zero,-20(s0)
    80006e1a:	fd843783          	ld	a5,-40(s0)
    80006e1e:	0087c783          	lbu	a5,8(a5)
    80006e22:	e399                	bnez	a5,80006e28 <fileread+0x28>
    80006e24:	57fd                	li	a5,-1
    80006e26:	a23d                	j	80006f54 <fileread+0x154>
    80006e28:	fd843783          	ld	a5,-40(s0)
    80006e2c:	439c                	lw	a5,0(a5)
    80006e2e:	873e                	mv	a4,a5
    80006e30:	4785                	li	a5,1
    80006e32:	02f71363          	bne	a4,a5,80006e58 <fileread+0x58>
    80006e36:	fd843783          	ld	a5,-40(s0)
    80006e3a:	6b9c                	ld	a5,16(a5)
    80006e3c:	fcc42703          	lw	a4,-52(s0)
    80006e40:	863a                	mv	a2,a4
    80006e42:	fd043583          	ld	a1,-48(s0)
    80006e46:	853e                	mv	a0,a5
    80006e48:	00000097          	auipc	ra,0x0
    80006e4c:	67e080e7          	jalr	1662(ra) # 800074c6 <piperead>
    80006e50:	87aa                	mv	a5,a0
    80006e52:	fef42623          	sw	a5,-20(s0)
    80006e56:	a8ed                	j	80006f50 <fileread+0x150>
    80006e58:	fd843783          	ld	a5,-40(s0)
    80006e5c:	439c                	lw	a5,0(a5)
    80006e5e:	873e                	mv	a4,a5
    80006e60:	478d                	li	a5,3
    80006e62:	06f71463          	bne	a4,a5,80006eca <fileread+0xca>
    80006e66:	fd843783          	ld	a5,-40(s0)
    80006e6a:	02479783          	lh	a5,36(a5)
    80006e6e:	0207c663          	bltz	a5,80006e9a <fileread+0x9a>
    80006e72:	fd843783          	ld	a5,-40(s0)
    80006e76:	02479783          	lh	a5,36(a5)
    80006e7a:	873e                	mv	a4,a5
    80006e7c:	47a5                	li	a5,9
    80006e7e:	00e7ce63          	blt	a5,a4,80006e9a <fileread+0x9a>
    80006e82:	fd843783          	ld	a5,-40(s0)
    80006e86:	02479783          	lh	a5,36(a5)
    80006e8a:	0001f717          	auipc	a4,0x1f
    80006e8e:	b2e70713          	addi	a4,a4,-1234 # 800259b8 <devsw>
    80006e92:	0792                	slli	a5,a5,0x4
    80006e94:	97ba                	add	a5,a5,a4
    80006e96:	639c                	ld	a5,0(a5)
    80006e98:	e399                	bnez	a5,80006e9e <fileread+0x9e>
    80006e9a:	57fd                	li	a5,-1
    80006e9c:	a865                	j	80006f54 <fileread+0x154>
    80006e9e:	fd843783          	ld	a5,-40(s0)
    80006ea2:	02479783          	lh	a5,36(a5)
    80006ea6:	0001f717          	auipc	a4,0x1f
    80006eaa:	b1270713          	addi	a4,a4,-1262 # 800259b8 <devsw>
    80006eae:	0792                	slli	a5,a5,0x4
    80006eb0:	97ba                	add	a5,a5,a4
    80006eb2:	639c                	ld	a5,0(a5)
    80006eb4:	fcc42703          	lw	a4,-52(s0)
    80006eb8:	863a                	mv	a2,a4
    80006eba:	fd043583          	ld	a1,-48(s0)
    80006ebe:	4505                	li	a0,1
    80006ec0:	9782                	jalr	a5
    80006ec2:	87aa                	mv	a5,a0
    80006ec4:	fef42623          	sw	a5,-20(s0)
    80006ec8:	a061                	j	80006f50 <fileread+0x150>
    80006eca:	fd843783          	ld	a5,-40(s0)
    80006ece:	439c                	lw	a5,0(a5)
    80006ed0:	873e                	mv	a4,a5
    80006ed2:	4789                	li	a5,2
    80006ed4:	06f71663          	bne	a4,a5,80006f40 <fileread+0x140>
    80006ed8:	fd843783          	ld	a5,-40(s0)
    80006edc:	6f9c                	ld	a5,24(a5)
    80006ede:	853e                	mv	a0,a5
    80006ee0:	ffffe097          	auipc	ra,0xffffe
    80006ee4:	686080e7          	jalr	1670(ra) # 80005566 <ilock>
    80006ee8:	fd843783          	ld	a5,-40(s0)
    80006eec:	6f88                	ld	a0,24(a5)
    80006eee:	fd843783          	ld	a5,-40(s0)
    80006ef2:	539c                	lw	a5,32(a5)
    80006ef4:	fcc42703          	lw	a4,-52(s0)
    80006ef8:	86be                	mv	a3,a5
    80006efa:	fd043603          	ld	a2,-48(s0)
    80006efe:	4585                	li	a1,1
    80006f00:	fffff097          	auipc	ra,0xfffff
    80006f04:	bfc080e7          	jalr	-1028(ra) # 80005afc <readi>
    80006f08:	87aa                	mv	a5,a0
    80006f0a:	fef42623          	sw	a5,-20(s0)
    80006f0e:	fec42783          	lw	a5,-20(s0)
    80006f12:	2781                	sext.w	a5,a5
    80006f14:	00f05d63          	blez	a5,80006f2e <fileread+0x12e>
    80006f18:	fd843783          	ld	a5,-40(s0)
    80006f1c:	5398                	lw	a4,32(a5)
    80006f1e:	fec42783          	lw	a5,-20(s0)
    80006f22:	9fb9                	addw	a5,a5,a4
    80006f24:	0007871b          	sext.w	a4,a5
    80006f28:	fd843783          	ld	a5,-40(s0)
    80006f2c:	d398                	sw	a4,32(a5)
    80006f2e:	fd843783          	ld	a5,-40(s0)
    80006f32:	6f9c                	ld	a5,24(a5)
    80006f34:	853e                	mv	a0,a5
    80006f36:	ffffe097          	auipc	ra,0xffffe
    80006f3a:	764080e7          	jalr	1892(ra) # 8000569a <iunlock>
    80006f3e:	a809                	j	80006f50 <fileread+0x150>
    80006f40:	00005517          	auipc	a0,0x5
    80006f44:	69050513          	addi	a0,a0,1680 # 8000c5d0 <etext+0x5d0>
    80006f48:	ffffa097          	auipc	ra,0xffffa
    80006f4c:	d56080e7          	jalr	-682(ra) # 80000c9e <panic>
    80006f50:	fec42783          	lw	a5,-20(s0)
    80006f54:	853e                	mv	a0,a5
    80006f56:	70e2                	ld	ra,56(sp)
    80006f58:	7442                	ld	s0,48(sp)
    80006f5a:	6121                	addi	sp,sp,64
    80006f5c:	8082                	ret

0000000080006f5e <filewrite>:
    80006f5e:	715d                	addi	sp,sp,-80
    80006f60:	e486                	sd	ra,72(sp)
    80006f62:	e0a2                	sd	s0,64(sp)
    80006f64:	0880                	addi	s0,sp,80
    80006f66:	fca43423          	sd	a0,-56(s0)
    80006f6a:	fcb43023          	sd	a1,-64(s0)
    80006f6e:	87b2                	mv	a5,a2
    80006f70:	faf42e23          	sw	a5,-68(s0)
    80006f74:	fe042623          	sw	zero,-20(s0)
    80006f78:	fc843783          	ld	a5,-56(s0)
    80006f7c:	0097c783          	lbu	a5,9(a5)
    80006f80:	e399                	bnez	a5,80006f86 <filewrite+0x28>
    80006f82:	57fd                	li	a5,-1
    80006f84:	aacd                	j	80007176 <filewrite+0x218>
    80006f86:	fc843783          	ld	a5,-56(s0)
    80006f8a:	439c                	lw	a5,0(a5)
    80006f8c:	873e                	mv	a4,a5
    80006f8e:	4785                	li	a5,1
    80006f90:	02f71363          	bne	a4,a5,80006fb6 <filewrite+0x58>
    80006f94:	fc843783          	ld	a5,-56(s0)
    80006f98:	6b9c                	ld	a5,16(a5)
    80006f9a:	fbc42703          	lw	a4,-68(s0)
    80006f9e:	863a                	mv	a2,a4
    80006fa0:	fc043583          	ld	a1,-64(s0)
    80006fa4:	853e                	mv	a0,a5
    80006fa6:	00000097          	auipc	ra,0x0
    80006faa:	3d6080e7          	jalr	982(ra) # 8000737c <pipewrite>
    80006fae:	87aa                	mv	a5,a0
    80006fb0:	fef42623          	sw	a5,-20(s0)
    80006fb4:	aa7d                	j	80007172 <filewrite+0x214>
    80006fb6:	fc843783          	ld	a5,-56(s0)
    80006fba:	439c                	lw	a5,0(a5)
    80006fbc:	873e                	mv	a4,a5
    80006fbe:	478d                	li	a5,3
    80006fc0:	06f71463          	bne	a4,a5,80007028 <filewrite+0xca>
    80006fc4:	fc843783          	ld	a5,-56(s0)
    80006fc8:	02479783          	lh	a5,36(a5)
    80006fcc:	0207c663          	bltz	a5,80006ff8 <filewrite+0x9a>
    80006fd0:	fc843783          	ld	a5,-56(s0)
    80006fd4:	02479783          	lh	a5,36(a5)
    80006fd8:	873e                	mv	a4,a5
    80006fda:	47a5                	li	a5,9
    80006fdc:	00e7ce63          	blt	a5,a4,80006ff8 <filewrite+0x9a>
    80006fe0:	fc843783          	ld	a5,-56(s0)
    80006fe4:	02479783          	lh	a5,36(a5)
    80006fe8:	0001f717          	auipc	a4,0x1f
    80006fec:	9d070713          	addi	a4,a4,-1584 # 800259b8 <devsw>
    80006ff0:	0792                	slli	a5,a5,0x4
    80006ff2:	97ba                	add	a5,a5,a4
    80006ff4:	679c                	ld	a5,8(a5)
    80006ff6:	e399                	bnez	a5,80006ffc <filewrite+0x9e>
    80006ff8:	57fd                	li	a5,-1
    80006ffa:	aab5                	j	80007176 <filewrite+0x218>
    80006ffc:	fc843783          	ld	a5,-56(s0)
    80007000:	02479783          	lh	a5,36(a5)
    80007004:	0001f717          	auipc	a4,0x1f
    80007008:	9b470713          	addi	a4,a4,-1612 # 800259b8 <devsw>
    8000700c:	0792                	slli	a5,a5,0x4
    8000700e:	97ba                	add	a5,a5,a4
    80007010:	679c                	ld	a5,8(a5)
    80007012:	fbc42703          	lw	a4,-68(s0)
    80007016:	863a                	mv	a2,a4
    80007018:	fc043583          	ld	a1,-64(s0)
    8000701c:	4505                	li	a0,1
    8000701e:	9782                	jalr	a5
    80007020:	87aa                	mv	a5,a0
    80007022:	fef42623          	sw	a5,-20(s0)
    80007026:	a2b1                	j	80007172 <filewrite+0x214>
    80007028:	fc843783          	ld	a5,-56(s0)
    8000702c:	439c                	lw	a5,0(a5)
    8000702e:	873e                	mv	a4,a5
    80007030:	4789                	li	a5,2
    80007032:	12f71863          	bne	a4,a5,80007162 <filewrite+0x204>
    80007036:	6785                	lui	a5,0x1
    80007038:	c0078793          	addi	a5,a5,-1024 # c00 <_entry-0x7ffff400>
    8000703c:	fef42023          	sw	a5,-32(s0)
    80007040:	fe042423          	sw	zero,-24(s0)
    80007044:	a0e5                	j	8000712c <filewrite+0x1ce>
    80007046:	fbc42783          	lw	a5,-68(s0)
    8000704a:	873e                	mv	a4,a5
    8000704c:	fe842783          	lw	a5,-24(s0)
    80007050:	40f707bb          	subw	a5,a4,a5
    80007054:	fef42223          	sw	a5,-28(s0)
    80007058:	fe442783          	lw	a5,-28(s0)
    8000705c:	873e                	mv	a4,a5
    8000705e:	fe042783          	lw	a5,-32(s0)
    80007062:	2701                	sext.w	a4,a4
    80007064:	2781                	sext.w	a5,a5
    80007066:	00e7d663          	bge	a5,a4,80007072 <filewrite+0x114>
    8000706a:	fe042783          	lw	a5,-32(s0)
    8000706e:	fef42223          	sw	a5,-28(s0)
    80007072:	fffff097          	auipc	ra,0xfffff
    80007076:	54a080e7          	jalr	1354(ra) # 800065bc <begin_op>
    8000707a:	fc843783          	ld	a5,-56(s0)
    8000707e:	6f9c                	ld	a5,24(a5)
    80007080:	853e                	mv	a0,a5
    80007082:	ffffe097          	auipc	ra,0xffffe
    80007086:	4e4080e7          	jalr	1252(ra) # 80005566 <ilock>
    8000708a:	fc843783          	ld	a5,-56(s0)
    8000708e:	6f88                	ld	a0,24(a5)
    80007090:	fe842703          	lw	a4,-24(s0)
    80007094:	fc043783          	ld	a5,-64(s0)
    80007098:	00f70633          	add	a2,a4,a5
    8000709c:	fc843783          	ld	a5,-56(s0)
    800070a0:	539c                	lw	a5,32(a5)
    800070a2:	fe442703          	lw	a4,-28(s0)
    800070a6:	86be                	mv	a3,a5
    800070a8:	4585                	li	a1,1
    800070aa:	fffff097          	auipc	ra,0xfffff
    800070ae:	bdc080e7          	jalr	-1060(ra) # 80005c86 <writei>
    800070b2:	87aa                	mv	a5,a0
    800070b4:	fcf42e23          	sw	a5,-36(s0)
    800070b8:	fdc42783          	lw	a5,-36(s0)
    800070bc:	2781                	sext.w	a5,a5
    800070be:	00f05d63          	blez	a5,800070d8 <filewrite+0x17a>
    800070c2:	fc843783          	ld	a5,-56(s0)
    800070c6:	5398                	lw	a4,32(a5)
    800070c8:	fdc42783          	lw	a5,-36(s0)
    800070cc:	9fb9                	addw	a5,a5,a4
    800070ce:	0007871b          	sext.w	a4,a5
    800070d2:	fc843783          	ld	a5,-56(s0)
    800070d6:	d398                	sw	a4,32(a5)
    800070d8:	fc843783          	ld	a5,-56(s0)
    800070dc:	6f9c                	ld	a5,24(a5)
    800070de:	853e                	mv	a0,a5
    800070e0:	ffffe097          	auipc	ra,0xffffe
    800070e4:	5ba080e7          	jalr	1466(ra) # 8000569a <iunlock>
    800070e8:	fffff097          	auipc	ra,0xfffff
    800070ec:	596080e7          	jalr	1430(ra) # 8000667e <end_op>
    800070f0:	fdc42783          	lw	a5,-36(s0)
    800070f4:	2781                	sext.w	a5,a5
    800070f6:	0407c563          	bltz	a5,80007140 <filewrite+0x1e2>
    800070fa:	fdc42783          	lw	a5,-36(s0)
    800070fe:	873e                	mv	a4,a5
    80007100:	fe442783          	lw	a5,-28(s0)
    80007104:	2701                	sext.w	a4,a4
    80007106:	2781                	sext.w	a5,a5
    80007108:	00f70a63          	beq	a4,a5,8000711c <filewrite+0x1be>
    8000710c:	00005517          	auipc	a0,0x5
    80007110:	4d450513          	addi	a0,a0,1236 # 8000c5e0 <etext+0x5e0>
    80007114:	ffffa097          	auipc	ra,0xffffa
    80007118:	b8a080e7          	jalr	-1142(ra) # 80000c9e <panic>
    8000711c:	fe842783          	lw	a5,-24(s0)
    80007120:	873e                	mv	a4,a5
    80007122:	fdc42783          	lw	a5,-36(s0)
    80007126:	9fb9                	addw	a5,a5,a4
    80007128:	fef42423          	sw	a5,-24(s0)
    8000712c:	fe842783          	lw	a5,-24(s0)
    80007130:	873e                	mv	a4,a5
    80007132:	fbc42783          	lw	a5,-68(s0)
    80007136:	2701                	sext.w	a4,a4
    80007138:	2781                	sext.w	a5,a5
    8000713a:	f0f746e3          	blt	a4,a5,80007046 <filewrite+0xe8>
    8000713e:	a011                	j	80007142 <filewrite+0x1e4>
    80007140:	0001                	nop
    80007142:	fe842783          	lw	a5,-24(s0)
    80007146:	873e                	mv	a4,a5
    80007148:	fbc42783          	lw	a5,-68(s0)
    8000714c:	2701                	sext.w	a4,a4
    8000714e:	2781                	sext.w	a5,a5
    80007150:	00f71563          	bne	a4,a5,8000715a <filewrite+0x1fc>
    80007154:	fbc42783          	lw	a5,-68(s0)
    80007158:	a011                	j	8000715c <filewrite+0x1fe>
    8000715a:	57fd                	li	a5,-1
    8000715c:	fef42623          	sw	a5,-20(s0)
    80007160:	a809                	j	80007172 <filewrite+0x214>
    80007162:	00005517          	auipc	a0,0x5
    80007166:	48e50513          	addi	a0,a0,1166 # 8000c5f0 <etext+0x5f0>
    8000716a:	ffffa097          	auipc	ra,0xffffa
    8000716e:	b34080e7          	jalr	-1228(ra) # 80000c9e <panic>
    80007172:	fec42783          	lw	a5,-20(s0)
    80007176:	853e                	mv	a0,a5
    80007178:	60a6                	ld	ra,72(sp)
    8000717a:	6406                	ld	s0,64(sp)
    8000717c:	6161                	addi	sp,sp,80
    8000717e:	8082                	ret

0000000080007180 <pipealloc>:
    80007180:	7179                	addi	sp,sp,-48
    80007182:	f406                	sd	ra,40(sp)
    80007184:	f022                	sd	s0,32(sp)
    80007186:	1800                	addi	s0,sp,48
    80007188:	fca43c23          	sd	a0,-40(s0)
    8000718c:	fcb43823          	sd	a1,-48(s0)
    80007190:	fe043423          	sd	zero,-24(s0)
    80007194:	fd043783          	ld	a5,-48(s0)
    80007198:	0007b023          	sd	zero,0(a5)
    8000719c:	fd043783          	ld	a5,-48(s0)
    800071a0:	6398                	ld	a4,0(a5)
    800071a2:	fd843783          	ld	a5,-40(s0)
    800071a6:	e398                	sd	a4,0(a5)
    800071a8:	00000097          	auipc	ra,0x0
    800071ac:	9c2080e7          	jalr	-1598(ra) # 80006b6a <filealloc>
    800071b0:	872a                	mv	a4,a0
    800071b2:	fd843783          	ld	a5,-40(s0)
    800071b6:	e398                	sd	a4,0(a5)
    800071b8:	fd843783          	ld	a5,-40(s0)
    800071bc:	639c                	ld	a5,0(a5)
    800071be:	c3e9                	beqz	a5,80007280 <pipealloc+0x100>
    800071c0:	00000097          	auipc	ra,0x0
    800071c4:	9aa080e7          	jalr	-1622(ra) # 80006b6a <filealloc>
    800071c8:	872a                	mv	a4,a0
    800071ca:	fd043783          	ld	a5,-48(s0)
    800071ce:	e398                	sd	a4,0(a5)
    800071d0:	fd043783          	ld	a5,-48(s0)
    800071d4:	639c                	ld	a5,0(a5)
    800071d6:	c7cd                	beqz	a5,80007280 <pipealloc+0x100>
    800071d8:	ffffa097          	auipc	ra,0xffffa
    800071dc:	fa6080e7          	jalr	-90(ra) # 8000117e <kalloc>
    800071e0:	fea43423          	sd	a0,-24(s0)
    800071e4:	fe843783          	ld	a5,-24(s0)
    800071e8:	cfd1                	beqz	a5,80007284 <pipealloc+0x104>
    800071ea:	fe843783          	ld	a5,-24(s0)
    800071ee:	4705                	li	a4,1
    800071f0:	22e7a023          	sw	a4,544(a5)
    800071f4:	fe843783          	ld	a5,-24(s0)
    800071f8:	4705                	li	a4,1
    800071fa:	22e7a223          	sw	a4,548(a5)
    800071fe:	fe843783          	ld	a5,-24(s0)
    80007202:	2007ae23          	sw	zero,540(a5)
    80007206:	fe843783          	ld	a5,-24(s0)
    8000720a:	2007ac23          	sw	zero,536(a5)
    8000720e:	fe843783          	ld	a5,-24(s0)
    80007212:	00005597          	auipc	a1,0x5
    80007216:	3ee58593          	addi	a1,a1,1006 # 8000c600 <etext+0x600>
    8000721a:	853e                	mv	a0,a5
    8000721c:	ffffa097          	auipc	ra,0xffffa
    80007220:	086080e7          	jalr	134(ra) # 800012a2 <initlock>
    80007224:	fd843783          	ld	a5,-40(s0)
    80007228:	639c                	ld	a5,0(a5)
    8000722a:	4705                	li	a4,1
    8000722c:	c398                	sw	a4,0(a5)
    8000722e:	fd843783          	ld	a5,-40(s0)
    80007232:	639c                	ld	a5,0(a5)
    80007234:	4705                	li	a4,1
    80007236:	00e78423          	sb	a4,8(a5)
    8000723a:	fd843783          	ld	a5,-40(s0)
    8000723e:	639c                	ld	a5,0(a5)
    80007240:	000784a3          	sb	zero,9(a5)
    80007244:	fd843783          	ld	a5,-40(s0)
    80007248:	639c                	ld	a5,0(a5)
    8000724a:	fe843703          	ld	a4,-24(s0)
    8000724e:	eb98                	sd	a4,16(a5)
    80007250:	fd043783          	ld	a5,-48(s0)
    80007254:	639c                	ld	a5,0(a5)
    80007256:	4705                	li	a4,1
    80007258:	c398                	sw	a4,0(a5)
    8000725a:	fd043783          	ld	a5,-48(s0)
    8000725e:	639c                	ld	a5,0(a5)
    80007260:	00078423          	sb	zero,8(a5)
    80007264:	fd043783          	ld	a5,-48(s0)
    80007268:	639c                	ld	a5,0(a5)
    8000726a:	4705                	li	a4,1
    8000726c:	00e784a3          	sb	a4,9(a5)
    80007270:	fd043783          	ld	a5,-48(s0)
    80007274:	639c                	ld	a5,0(a5)
    80007276:	fe843703          	ld	a4,-24(s0)
    8000727a:	eb98                	sd	a4,16(a5)
    8000727c:	4781                	li	a5,0
    8000727e:	a0b1                	j	800072ca <pipealloc+0x14a>
    80007280:	0001                	nop
    80007282:	a011                	j	80007286 <pipealloc+0x106>
    80007284:	0001                	nop
    80007286:	fe843783          	ld	a5,-24(s0)
    8000728a:	c799                	beqz	a5,80007298 <pipealloc+0x118>
    8000728c:	fe843503          	ld	a0,-24(s0)
    80007290:	ffffa097          	auipc	ra,0xffffa
    80007294:	e4a080e7          	jalr	-438(ra) # 800010da <kfree>
    80007298:	fd843783          	ld	a5,-40(s0)
    8000729c:	639c                	ld	a5,0(a5)
    8000729e:	cb89                	beqz	a5,800072b0 <pipealloc+0x130>
    800072a0:	fd843783          	ld	a5,-40(s0)
    800072a4:	639c                	ld	a5,0(a5)
    800072a6:	853e                	mv	a0,a5
    800072a8:	00000097          	auipc	ra,0x0
    800072ac:	9ac080e7          	jalr	-1620(ra) # 80006c54 <fileclose>
    800072b0:	fd043783          	ld	a5,-48(s0)
    800072b4:	639c                	ld	a5,0(a5)
    800072b6:	cb89                	beqz	a5,800072c8 <pipealloc+0x148>
    800072b8:	fd043783          	ld	a5,-48(s0)
    800072bc:	639c                	ld	a5,0(a5)
    800072be:	853e                	mv	a0,a5
    800072c0:	00000097          	auipc	ra,0x0
    800072c4:	994080e7          	jalr	-1644(ra) # 80006c54 <fileclose>
    800072c8:	57fd                	li	a5,-1
    800072ca:	853e                	mv	a0,a5
    800072cc:	70a2                	ld	ra,40(sp)
    800072ce:	7402                	ld	s0,32(sp)
    800072d0:	6145                	addi	sp,sp,48
    800072d2:	8082                	ret

00000000800072d4 <pipeclose>:
    800072d4:	1101                	addi	sp,sp,-32
    800072d6:	ec06                	sd	ra,24(sp)
    800072d8:	e822                	sd	s0,16(sp)
    800072da:	1000                	addi	s0,sp,32
    800072dc:	fea43423          	sd	a0,-24(s0)
    800072e0:	87ae                	mv	a5,a1
    800072e2:	fef42223          	sw	a5,-28(s0)
    800072e6:	fe843783          	ld	a5,-24(s0)
    800072ea:	853e                	mv	a0,a5
    800072ec:	ffffa097          	auipc	ra,0xffffa
    800072f0:	fe6080e7          	jalr	-26(ra) # 800012d2 <acquire>
    800072f4:	fe442783          	lw	a5,-28(s0)
    800072f8:	2781                	sext.w	a5,a5
    800072fa:	cf99                	beqz	a5,80007318 <pipeclose+0x44>
    800072fc:	fe843783          	ld	a5,-24(s0)
    80007300:	2207a223          	sw	zero,548(a5)
    80007304:	fe843783          	ld	a5,-24(s0)
    80007308:	21878793          	addi	a5,a5,536
    8000730c:	853e                	mv	a0,a5
    8000730e:	ffffc097          	auipc	ra,0xffffc
    80007312:	698080e7          	jalr	1688(ra) # 800039a6 <wakeup>
    80007316:	a831                	j	80007332 <pipeclose+0x5e>
    80007318:	fe843783          	ld	a5,-24(s0)
    8000731c:	2207a023          	sw	zero,544(a5)
    80007320:	fe843783          	ld	a5,-24(s0)
    80007324:	21c78793          	addi	a5,a5,540
    80007328:	853e                	mv	a0,a5
    8000732a:	ffffc097          	auipc	ra,0xffffc
    8000732e:	67c080e7          	jalr	1660(ra) # 800039a6 <wakeup>
    80007332:	fe843783          	ld	a5,-24(s0)
    80007336:	2207a783          	lw	a5,544(a5)
    8000733a:	e785                	bnez	a5,80007362 <pipeclose+0x8e>
    8000733c:	fe843783          	ld	a5,-24(s0)
    80007340:	2247a783          	lw	a5,548(a5)
    80007344:	ef99                	bnez	a5,80007362 <pipeclose+0x8e>
    80007346:	fe843783          	ld	a5,-24(s0)
    8000734a:	853e                	mv	a0,a5
    8000734c:	ffffa097          	auipc	ra,0xffffa
    80007350:	fea080e7          	jalr	-22(ra) # 80001336 <release>
    80007354:	fe843503          	ld	a0,-24(s0)
    80007358:	ffffa097          	auipc	ra,0xffffa
    8000735c:	d82080e7          	jalr	-638(ra) # 800010da <kfree>
    80007360:	a809                	j	80007372 <pipeclose+0x9e>
    80007362:	fe843783          	ld	a5,-24(s0)
    80007366:	853e                	mv	a0,a5
    80007368:	ffffa097          	auipc	ra,0xffffa
    8000736c:	fce080e7          	jalr	-50(ra) # 80001336 <release>
    80007370:	0001                	nop
    80007372:	0001                	nop
    80007374:	60e2                	ld	ra,24(sp)
    80007376:	6442                	ld	s0,16(sp)
    80007378:	6105                	addi	sp,sp,32
    8000737a:	8082                	ret

000000008000737c <pipewrite>:
    8000737c:	715d                	addi	sp,sp,-80
    8000737e:	e486                	sd	ra,72(sp)
    80007380:	e0a2                	sd	s0,64(sp)
    80007382:	0880                	addi	s0,sp,80
    80007384:	fca43423          	sd	a0,-56(s0)
    80007388:	fcb43023          	sd	a1,-64(s0)
    8000738c:	87b2                	mv	a5,a2
    8000738e:	faf42e23          	sw	a5,-68(s0)
    80007392:	ffffb097          	auipc	ra,0xffffb
    80007396:	5c0080e7          	jalr	1472(ra) # 80002952 <myproc>
    8000739a:	fea43023          	sd	a0,-32(s0)
    8000739e:	fc843783          	ld	a5,-56(s0)
    800073a2:	853e                	mv	a0,a5
    800073a4:	ffffa097          	auipc	ra,0xffffa
    800073a8:	f2e080e7          	jalr	-210(ra) # 800012d2 <acquire>
    800073ac:	fe042623          	sw	zero,-20(s0)
    800073b0:	a8c9                	j	80007482 <pipewrite+0x106>
    800073b2:	fc843783          	ld	a5,-56(s0)
    800073b6:	2207a783          	lw	a5,544(a5)
    800073ba:	c789                	beqz	a5,800073c4 <pipewrite+0x48>
    800073bc:	fe043783          	ld	a5,-32(s0)
    800073c0:	5b9c                	lw	a5,48(a5)
    800073c2:	cb91                	beqz	a5,800073d6 <pipewrite+0x5a>
    800073c4:	fc843783          	ld	a5,-56(s0)
    800073c8:	853e                	mv	a0,a5
    800073ca:	ffffa097          	auipc	ra,0xffffa
    800073ce:	f6c080e7          	jalr	-148(ra) # 80001336 <release>
    800073d2:	57fd                	li	a5,-1
    800073d4:	a0e5                	j	800074bc <pipewrite+0x140>
    800073d6:	fc843783          	ld	a5,-56(s0)
    800073da:	21878793          	addi	a5,a5,536
    800073de:	853e                	mv	a0,a5
    800073e0:	ffffc097          	auipc	ra,0xffffc
    800073e4:	5c6080e7          	jalr	1478(ra) # 800039a6 <wakeup>
    800073e8:	fc843783          	ld	a5,-56(s0)
    800073ec:	21c78793          	addi	a5,a5,540
    800073f0:	fc843703          	ld	a4,-56(s0)
    800073f4:	85ba                	mv	a1,a4
    800073f6:	853e                	mv	a0,a5
    800073f8:	ffffc097          	auipc	ra,0xffffc
    800073fc:	51a080e7          	jalr	1306(ra) # 80003912 <sleep>
    80007400:	fc843783          	ld	a5,-56(s0)
    80007404:	21c7a703          	lw	a4,540(a5)
    80007408:	fc843783          	ld	a5,-56(s0)
    8000740c:	2187a783          	lw	a5,536(a5)
    80007410:	2007879b          	addiw	a5,a5,512
    80007414:	2781                	sext.w	a5,a5
    80007416:	f8f70ee3          	beq	a4,a5,800073b2 <pipewrite+0x36>
    8000741a:	fe043783          	ld	a5,-32(s0)
    8000741e:	6ba8                	ld	a0,80(a5)
    80007420:	fec42703          	lw	a4,-20(s0)
    80007424:	fc043783          	ld	a5,-64(s0)
    80007428:	973e                	add	a4,a4,a5
    8000742a:	fdf40793          	addi	a5,s0,-33
    8000742e:	4685                	li	a3,1
    80007430:	863a                	mv	a2,a4
    80007432:	85be                	mv	a1,a5
    80007434:	ffffb097          	auipc	ra,0xffffb
    80007438:	102080e7          	jalr	258(ra) # 80002536 <copyin>
    8000743c:	87aa                	mv	a5,a0
    8000743e:	873e                	mv	a4,a5
    80007440:	57fd                	li	a5,-1
    80007442:	04f70a63          	beq	a4,a5,80007496 <pipewrite+0x11a>
    80007446:	fc843783          	ld	a5,-56(s0)
    8000744a:	21c7a783          	lw	a5,540(a5)
    8000744e:	2781                	sext.w	a5,a5
    80007450:	0017871b          	addiw	a4,a5,1
    80007454:	0007069b          	sext.w	a3,a4
    80007458:	fc843703          	ld	a4,-56(s0)
    8000745c:	20d72e23          	sw	a3,540(a4)
    80007460:	1ff7f793          	andi	a5,a5,511
    80007464:	2781                	sext.w	a5,a5
    80007466:	fdf44703          	lbu	a4,-33(s0)
    8000746a:	fc843683          	ld	a3,-56(s0)
    8000746e:	1782                	slli	a5,a5,0x20
    80007470:	9381                	srli	a5,a5,0x20
    80007472:	97b6                	add	a5,a5,a3
    80007474:	00e78c23          	sb	a4,24(a5)
    80007478:	fec42783          	lw	a5,-20(s0)
    8000747c:	2785                	addiw	a5,a5,1
    8000747e:	fef42623          	sw	a5,-20(s0)
    80007482:	fec42783          	lw	a5,-20(s0)
    80007486:	873e                	mv	a4,a5
    80007488:	fbc42783          	lw	a5,-68(s0)
    8000748c:	2701                	sext.w	a4,a4
    8000748e:	2781                	sext.w	a5,a5
    80007490:	f6f748e3          	blt	a4,a5,80007400 <pipewrite+0x84>
    80007494:	a011                	j	80007498 <pipewrite+0x11c>
    80007496:	0001                	nop
    80007498:	fc843783          	ld	a5,-56(s0)
    8000749c:	21878793          	addi	a5,a5,536
    800074a0:	853e                	mv	a0,a5
    800074a2:	ffffc097          	auipc	ra,0xffffc
    800074a6:	504080e7          	jalr	1284(ra) # 800039a6 <wakeup>
    800074aa:	fc843783          	ld	a5,-56(s0)
    800074ae:	853e                	mv	a0,a5
    800074b0:	ffffa097          	auipc	ra,0xffffa
    800074b4:	e86080e7          	jalr	-378(ra) # 80001336 <release>
    800074b8:	fec42783          	lw	a5,-20(s0)
    800074bc:	853e                	mv	a0,a5
    800074be:	60a6                	ld	ra,72(sp)
    800074c0:	6406                	ld	s0,64(sp)
    800074c2:	6161                	addi	sp,sp,80
    800074c4:	8082                	ret

00000000800074c6 <piperead>:
    800074c6:	715d                	addi	sp,sp,-80
    800074c8:	e486                	sd	ra,72(sp)
    800074ca:	e0a2                	sd	s0,64(sp)
    800074cc:	0880                	addi	s0,sp,80
    800074ce:	fca43423          	sd	a0,-56(s0)
    800074d2:	fcb43023          	sd	a1,-64(s0)
    800074d6:	87b2                	mv	a5,a2
    800074d8:	faf42e23          	sw	a5,-68(s0)
    800074dc:	ffffb097          	auipc	ra,0xffffb
    800074e0:	476080e7          	jalr	1142(ra) # 80002952 <myproc>
    800074e4:	fea43023          	sd	a0,-32(s0)
    800074e8:	fc843783          	ld	a5,-56(s0)
    800074ec:	853e                	mv	a0,a5
    800074ee:	ffffa097          	auipc	ra,0xffffa
    800074f2:	de4080e7          	jalr	-540(ra) # 800012d2 <acquire>
    800074f6:	a815                	j	8000752a <piperead+0x64>
    800074f8:	fe043783          	ld	a5,-32(s0)
    800074fc:	5b9c                	lw	a5,48(a5)
    800074fe:	cb91                	beqz	a5,80007512 <piperead+0x4c>
    80007500:	fc843783          	ld	a5,-56(s0)
    80007504:	853e                	mv	a0,a5
    80007506:	ffffa097          	auipc	ra,0xffffa
    8000750a:	e30080e7          	jalr	-464(ra) # 80001336 <release>
    8000750e:	57fd                	li	a5,-1
    80007510:	a8e5                	j	80007608 <piperead+0x142>
    80007512:	fc843783          	ld	a5,-56(s0)
    80007516:	21878793          	addi	a5,a5,536
    8000751a:	fc843703          	ld	a4,-56(s0)
    8000751e:	85ba                	mv	a1,a4
    80007520:	853e                	mv	a0,a5
    80007522:	ffffc097          	auipc	ra,0xffffc
    80007526:	3f0080e7          	jalr	1008(ra) # 80003912 <sleep>
    8000752a:	fc843783          	ld	a5,-56(s0)
    8000752e:	2187a703          	lw	a4,536(a5)
    80007532:	fc843783          	ld	a5,-56(s0)
    80007536:	21c7a783          	lw	a5,540(a5)
    8000753a:	00f71763          	bne	a4,a5,80007548 <piperead+0x82>
    8000753e:	fc843783          	ld	a5,-56(s0)
    80007542:	2247a783          	lw	a5,548(a5)
    80007546:	fbcd                	bnez	a5,800074f8 <piperead+0x32>
    80007548:	fe042623          	sw	zero,-20(s0)
    8000754c:	a8bd                	j	800075ca <piperead+0x104>
    8000754e:	fc843783          	ld	a5,-56(s0)
    80007552:	2187a703          	lw	a4,536(a5)
    80007556:	fc843783          	ld	a5,-56(s0)
    8000755a:	21c7a783          	lw	a5,540(a5)
    8000755e:	08f70063          	beq	a4,a5,800075de <piperead+0x118>
    80007562:	fc843783          	ld	a5,-56(s0)
    80007566:	2187a783          	lw	a5,536(a5)
    8000756a:	2781                	sext.w	a5,a5
    8000756c:	0017871b          	addiw	a4,a5,1
    80007570:	0007069b          	sext.w	a3,a4
    80007574:	fc843703          	ld	a4,-56(s0)
    80007578:	20d72c23          	sw	a3,536(a4)
    8000757c:	1ff7f793          	andi	a5,a5,511
    80007580:	2781                	sext.w	a5,a5
    80007582:	fc843703          	ld	a4,-56(s0)
    80007586:	1782                	slli	a5,a5,0x20
    80007588:	9381                	srli	a5,a5,0x20
    8000758a:	97ba                	add	a5,a5,a4
    8000758c:	0187c783          	lbu	a5,24(a5)
    80007590:	fcf40fa3          	sb	a5,-33(s0)
    80007594:	fe043783          	ld	a5,-32(s0)
    80007598:	6ba8                	ld	a0,80(a5)
    8000759a:	fec42703          	lw	a4,-20(s0)
    8000759e:	fc043783          	ld	a5,-64(s0)
    800075a2:	97ba                	add	a5,a5,a4
    800075a4:	fdf40713          	addi	a4,s0,-33
    800075a8:	4685                	li	a3,1
    800075aa:	863a                	mv	a2,a4
    800075ac:	85be                	mv	a1,a5
    800075ae:	ffffb097          	auipc	ra,0xffffb
    800075b2:	eba080e7          	jalr	-326(ra) # 80002468 <copyout>
    800075b6:	87aa                	mv	a5,a0
    800075b8:	873e                	mv	a4,a5
    800075ba:	57fd                	li	a5,-1
    800075bc:	02f70363          	beq	a4,a5,800075e2 <piperead+0x11c>
    800075c0:	fec42783          	lw	a5,-20(s0)
    800075c4:	2785                	addiw	a5,a5,1
    800075c6:	fef42623          	sw	a5,-20(s0)
    800075ca:	fec42783          	lw	a5,-20(s0)
    800075ce:	873e                	mv	a4,a5
    800075d0:	fbc42783          	lw	a5,-68(s0)
    800075d4:	2701                	sext.w	a4,a4
    800075d6:	2781                	sext.w	a5,a5
    800075d8:	f6f74be3          	blt	a4,a5,8000754e <piperead+0x88>
    800075dc:	a021                	j	800075e4 <piperead+0x11e>
    800075de:	0001                	nop
    800075e0:	a011                	j	800075e4 <piperead+0x11e>
    800075e2:	0001                	nop
    800075e4:	fc843783          	ld	a5,-56(s0)
    800075e8:	21c78793          	addi	a5,a5,540
    800075ec:	853e                	mv	a0,a5
    800075ee:	ffffc097          	auipc	ra,0xffffc
    800075f2:	3b8080e7          	jalr	952(ra) # 800039a6 <wakeup>
    800075f6:	fc843783          	ld	a5,-56(s0)
    800075fa:	853e                	mv	a0,a5
    800075fc:	ffffa097          	auipc	ra,0xffffa
    80007600:	d3a080e7          	jalr	-710(ra) # 80001336 <release>
    80007604:	fec42783          	lw	a5,-20(s0)
    80007608:	853e                	mv	a0,a5
    8000760a:	60a6                	ld	ra,72(sp)
    8000760c:	6406                	ld	s0,64(sp)
    8000760e:	6161                	addi	sp,sp,80
    80007610:	8082                	ret

0000000080007612 <setflags>:
    80007612:	1101                	addi	sp,sp,-32
    80007614:	ec22                	sd	s0,24(sp)
    80007616:	1000                	addi	s0,sp,32
    80007618:	fea43423          	sd	a0,-24(s0)
    8000761c:	fe843783          	ld	a5,-24(s0)
    80007620:	8b89                	andi	a5,a5,2
    80007622:	c781                	beqz	a5,8000762a <setflags+0x18>
    80007624:	07200793          	li	a5,114
    80007628:	a019                	j	8000762e <setflags+0x1c>
    8000762a:	02d00793          	li	a5,45
    8000762e:	00005717          	auipc	a4,0x5
    80007632:	23a70713          	addi	a4,a4,570 # 8000c868 <flags.0>
    80007636:	00f70023          	sb	a5,0(a4)
    8000763a:	fe843783          	ld	a5,-24(s0)
    8000763e:	8b91                	andi	a5,a5,4
    80007640:	c781                	beqz	a5,80007648 <setflags+0x36>
    80007642:	07700793          	li	a5,119
    80007646:	a019                	j	8000764c <setflags+0x3a>
    80007648:	02d00793          	li	a5,45
    8000764c:	00005717          	auipc	a4,0x5
    80007650:	21c70713          	addi	a4,a4,540 # 8000c868 <flags.0>
    80007654:	00f700a3          	sb	a5,1(a4)
    80007658:	fe843783          	ld	a5,-24(s0)
    8000765c:	8ba1                	andi	a5,a5,8
    8000765e:	c781                	beqz	a5,80007666 <setflags+0x54>
    80007660:	07800793          	li	a5,120
    80007664:	a019                	j	8000766a <setflags+0x58>
    80007666:	02d00793          	li	a5,45
    8000766a:	00005717          	auipc	a4,0x5
    8000766e:	1fe70713          	addi	a4,a4,510 # 8000c868 <flags.0>
    80007672:	00f70123          	sb	a5,2(a4)
    80007676:	fe843783          	ld	a5,-24(s0)
    8000767a:	8bc1                	andi	a5,a5,16
    8000767c:	c781                	beqz	a5,80007684 <setflags+0x72>
    8000767e:	07500793          	li	a5,117
    80007682:	a019                	j	80007688 <setflags+0x76>
    80007684:	02d00793          	li	a5,45
    80007688:	00005717          	auipc	a4,0x5
    8000768c:	1e070713          	addi	a4,a4,480 # 8000c868 <flags.0>
    80007690:	00f701a3          	sb	a5,3(a4)
    80007694:	00005797          	auipc	a5,0x5
    80007698:	1d478793          	addi	a5,a5,468 # 8000c868 <flags.0>
    8000769c:	853e                	mv	a0,a5
    8000769e:	6462                	ld	s0,24(sp)
    800076a0:	6105                	addi	sp,sp,32
    800076a2:	8082                	ret

00000000800076a4 <_vmprint0>:
    800076a4:	715d                	addi	sp,sp,-80
    800076a6:	e486                	sd	ra,72(sp)
    800076a8:	e0a2                	sd	s0,64(sp)
    800076aa:	0880                	addi	s0,sp,80
    800076ac:	fca43423          	sd	a0,-56(s0)
    800076b0:	fcb43023          	sd	a1,-64(s0)
    800076b4:	fac43c23          	sd	a2,-72(s0)
    800076b8:	fe042623          	sw	zero,-20(s0)
    800076bc:	a8bd                	j	8000773a <_vmprint0+0x96>
    800076be:	fec42783          	lw	a5,-20(s0)
    800076c2:	078e                	slli	a5,a5,0x3
    800076c4:	fc843703          	ld	a4,-56(s0)
    800076c8:	97ba                	add	a5,a5,a4
    800076ca:	639c                	ld	a5,0(a5)
    800076cc:	fef43023          	sd	a5,-32(s0)
    800076d0:	fe043783          	ld	a5,-32(s0)
    800076d4:	8b85                	andi	a5,a5,1
    800076d6:	cfa9                	beqz	a5,80007730 <_vmprint0+0x8c>
    800076d8:	fe043503          	ld	a0,-32(s0)
    800076dc:	00000097          	auipc	ra,0x0
    800076e0:	f36080e7          	jalr	-202(ra) # 80007612 <setflags>
    800076e4:	fca43c23          	sd	a0,-40(s0)
    800076e8:	fc043783          	ld	a5,-64(s0)
    800076ec:	01e79713          	slli	a4,a5,0x1e
    800076f0:	fb843783          	ld	a5,-72(s0)
    800076f4:	07d6                	slli	a5,a5,0x15
    800076f6:	8fd9                	or	a5,a5,a4
    800076f8:	fec42703          	lw	a4,-20(s0)
    800076fc:	00c7171b          	slliw	a4,a4,0xc
    80007700:	2701                	sext.w	a4,a4
    80007702:	8fd9                	or	a5,a5,a4
    80007704:	fcf43823          	sd	a5,-48(s0)
    80007708:	fe043783          	ld	a5,-32(s0)
    8000770c:	83a9                	srli	a5,a5,0xa
    8000770e:	00c79693          	slli	a3,a5,0xc
    80007712:	fec42783          	lw	a5,-20(s0)
    80007716:	fd843703          	ld	a4,-40(s0)
    8000771a:	fd043603          	ld	a2,-48(s0)
    8000771e:	85be                	mv	a1,a5
    80007720:	00005517          	auipc	a0,0x5
    80007724:	ee850513          	addi	a0,a0,-280 # 8000c608 <etext+0x608>
    80007728:	ffff9097          	auipc	ra,0xffff9
    8000772c:	320080e7          	jalr	800(ra) # 80000a48 <printf>
    80007730:	fec42783          	lw	a5,-20(s0)
    80007734:	2785                	addiw	a5,a5,1
    80007736:	fef42623          	sw	a5,-20(s0)
    8000773a:	fec42783          	lw	a5,-20(s0)
    8000773e:	0007871b          	sext.w	a4,a5
    80007742:	1ff00793          	li	a5,511
    80007746:	f6e7dce3          	bge	a5,a4,800076be <_vmprint0+0x1a>
    8000774a:	0001                	nop
    8000774c:	60a6                	ld	ra,72(sp)
    8000774e:	6406                	ld	s0,64(sp)
    80007750:	6161                	addi	sp,sp,80
    80007752:	8082                	ret

0000000080007754 <_vmprint1>:
    80007754:	7139                	addi	sp,sp,-64
    80007756:	fc06                	sd	ra,56(sp)
    80007758:	f822                	sd	s0,48(sp)
    8000775a:	0080                	addi	s0,sp,64
    8000775c:	fca43423          	sd	a0,-56(s0)
    80007760:	fcb43023          	sd	a1,-64(s0)
    80007764:	fe042623          	sw	zero,-20(s0)
    80007768:	a8a5                	j	800077e0 <_vmprint1+0x8c>
    8000776a:	fec42783          	lw	a5,-20(s0)
    8000776e:	078e                	slli	a5,a5,0x3
    80007770:	fc843703          	ld	a4,-56(s0)
    80007774:	97ba                	add	a5,a5,a4
    80007776:	639c                	ld	a5,0(a5)
    80007778:	fef43023          	sd	a5,-32(s0)
    8000777c:	fe043783          	ld	a5,-32(s0)
    80007780:	8b85                	andi	a5,a5,1
    80007782:	cbb1                	beqz	a5,800077d6 <_vmprint1+0x82>
    80007784:	fe043783          	ld	a5,-32(s0)
    80007788:	83a9                	srli	a5,a5,0xa
    8000778a:	07b2                	slli	a5,a5,0xc
    8000778c:	fcf43c23          	sd	a5,-40(s0)
    80007790:	fe043503          	ld	a0,-32(s0)
    80007794:	00000097          	auipc	ra,0x0
    80007798:	e7e080e7          	jalr	-386(ra) # 80007612 <setflags>
    8000779c:	fca43823          	sd	a0,-48(s0)
    800077a0:	fec42783          	lw	a5,-20(s0)
    800077a4:	fd043683          	ld	a3,-48(s0)
    800077a8:	fd843603          	ld	a2,-40(s0)
    800077ac:	85be                	mv	a1,a5
    800077ae:	00005517          	auipc	a0,0x5
    800077b2:	e9250513          	addi	a0,a0,-366 # 8000c640 <etext+0x640>
    800077b6:	ffff9097          	auipc	ra,0xffff9
    800077ba:	292080e7          	jalr	658(ra) # 80000a48 <printf>
    800077be:	fd843783          	ld	a5,-40(s0)
    800077c2:	fec42703          	lw	a4,-20(s0)
    800077c6:	863a                	mv	a2,a4
    800077c8:	fc043583          	ld	a1,-64(s0)
    800077cc:	853e                	mv	a0,a5
    800077ce:	00000097          	auipc	ra,0x0
    800077d2:	ed6080e7          	jalr	-298(ra) # 800076a4 <_vmprint0>
    800077d6:	fec42783          	lw	a5,-20(s0)
    800077da:	2785                	addiw	a5,a5,1
    800077dc:	fef42623          	sw	a5,-20(s0)
    800077e0:	fec42783          	lw	a5,-20(s0)
    800077e4:	0007871b          	sext.w	a4,a5
    800077e8:	1ff00793          	li	a5,511
    800077ec:	f6e7dfe3          	bge	a5,a4,8000776a <_vmprint1+0x16>
    800077f0:	0001                	nop
    800077f2:	70e2                	ld	ra,56(sp)
    800077f4:	7442                	ld	s0,48(sp)
    800077f6:	6121                	addi	sp,sp,64
    800077f8:	8082                	ret

00000000800077fa <vmprint>:
    800077fa:	7139                	addi	sp,sp,-64
    800077fc:	fc06                	sd	ra,56(sp)
    800077fe:	f822                	sd	s0,48(sp)
    80007800:	0080                	addi	s0,sp,64
    80007802:	fca43423          	sd	a0,-56(s0)
    80007806:	fc843583          	ld	a1,-56(s0)
    8000780a:	00005517          	auipc	a0,0x5
    8000780e:	e5e50513          	addi	a0,a0,-418 # 8000c668 <etext+0x668>
    80007812:	ffff9097          	auipc	ra,0xffff9
    80007816:	236080e7          	jalr	566(ra) # 80000a48 <printf>
    8000781a:	fe042623          	sw	zero,-20(s0)
    8000781e:	a895                	j	80007892 <vmprint+0x98>
    80007820:	fec42783          	lw	a5,-20(s0)
    80007824:	078e                	slli	a5,a5,0x3
    80007826:	fc843703          	ld	a4,-56(s0)
    8000782a:	97ba                	add	a5,a5,a4
    8000782c:	639c                	ld	a5,0(a5)
    8000782e:	fef43023          	sd	a5,-32(s0)
    80007832:	fe043783          	ld	a5,-32(s0)
    80007836:	8b85                	andi	a5,a5,1
    80007838:	cba1                	beqz	a5,80007888 <vmprint+0x8e>
    8000783a:	fe043783          	ld	a5,-32(s0)
    8000783e:	83a9                	srli	a5,a5,0xa
    80007840:	07b2                	slli	a5,a5,0xc
    80007842:	fcf43c23          	sd	a5,-40(s0)
    80007846:	fe043503          	ld	a0,-32(s0)
    8000784a:	00000097          	auipc	ra,0x0
    8000784e:	dc8080e7          	jalr	-568(ra) # 80007612 <setflags>
    80007852:	fca43823          	sd	a0,-48(s0)
    80007856:	fec42783          	lw	a5,-20(s0)
    8000785a:	fd043683          	ld	a3,-48(s0)
    8000785e:	fd843603          	ld	a2,-40(s0)
    80007862:	85be                	mv	a1,a5
    80007864:	00005517          	auipc	a0,0x5
    80007868:	e1450513          	addi	a0,a0,-492 # 8000c678 <etext+0x678>
    8000786c:	ffff9097          	auipc	ra,0xffff9
    80007870:	1dc080e7          	jalr	476(ra) # 80000a48 <printf>
    80007874:	fd843783          	ld	a5,-40(s0)
    80007878:	fec42703          	lw	a4,-20(s0)
    8000787c:	85ba                	mv	a1,a4
    8000787e:	853e                	mv	a0,a5
    80007880:	00000097          	auipc	ra,0x0
    80007884:	ed4080e7          	jalr	-300(ra) # 80007754 <_vmprint1>
    80007888:	fec42783          	lw	a5,-20(s0)
    8000788c:	2785                	addiw	a5,a5,1
    8000788e:	fef42623          	sw	a5,-20(s0)
    80007892:	fec42783          	lw	a5,-20(s0)
    80007896:	0007871b          	sext.w	a4,a5
    8000789a:	1ff00793          	li	a5,511
    8000789e:	f8e7d1e3          	bge	a5,a4,80007820 <vmprint+0x26>
    800078a2:	0001                	nop
    800078a4:	70e2                	ld	ra,56(sp)
    800078a6:	7442                	ld	s0,48(sp)
    800078a8:	6121                	addi	sp,sp,64
    800078aa:	8082                	ret

00000000800078ac <exec>:
    800078ac:	de010113          	addi	sp,sp,-544
    800078b0:	20113c23          	sd	ra,536(sp)
    800078b4:	20813823          	sd	s0,528(sp)
    800078b8:	20913423          	sd	s1,520(sp)
    800078bc:	1400                	addi	s0,sp,544
    800078be:	dea43423          	sd	a0,-536(s0)
    800078c2:	deb43023          	sd	a1,-544(s0)
    800078c6:	fa043c23          	sd	zero,-72(s0)
    800078ca:	fa043023          	sd	zero,-96(s0)
    800078ce:	ffffb097          	auipc	ra,0xffffb
    800078d2:	084080e7          	jalr	132(ra) # 80002952 <myproc>
    800078d6:	f8a43c23          	sd	a0,-104(s0)
    800078da:	fffff097          	auipc	ra,0xfffff
    800078de:	ce2080e7          	jalr	-798(ra) # 800065bc <begin_op>
    800078e2:	de843503          	ld	a0,-536(s0)
    800078e6:	fffff097          	auipc	ra,0xfffff
    800078ea:	982080e7          	jalr	-1662(ra) # 80006268 <namei>
    800078ee:	faa43423          	sd	a0,-88(s0)
    800078f2:	fa843783          	ld	a5,-88(s0)
    800078f6:	e799                	bnez	a5,80007904 <exec+0x58>
    800078f8:	fffff097          	auipc	ra,0xfffff
    800078fc:	d86080e7          	jalr	-634(ra) # 8000667e <end_op>
    80007900:	57fd                	li	a5,-1
    80007902:	a13d                	j	80007d30 <exec+0x484>
    80007904:	fa843503          	ld	a0,-88(s0)
    80007908:	ffffe097          	auipc	ra,0xffffe
    8000790c:	c5e080e7          	jalr	-930(ra) # 80005566 <ilock>
    80007910:	e2840793          	addi	a5,s0,-472
    80007914:	04000713          	li	a4,64
    80007918:	4681                	li	a3,0
    8000791a:	863e                	mv	a2,a5
    8000791c:	4581                	li	a1,0
    8000791e:	fa843503          	ld	a0,-88(s0)
    80007922:	ffffe097          	auipc	ra,0xffffe
    80007926:	1da080e7          	jalr	474(ra) # 80005afc <readi>
    8000792a:	87aa                	mv	a5,a0
    8000792c:	873e                	mv	a4,a5
    8000792e:	04000793          	li	a5,64
    80007932:	38f71963          	bne	a4,a5,80007cc4 <exec+0x418>
    80007936:	e2842783          	lw	a5,-472(s0)
    8000793a:	873e                	mv	a4,a5
    8000793c:	464c47b7          	lui	a5,0x464c4
    80007940:	57f78793          	addi	a5,a5,1407 # 464c457f <_entry-0x39b3ba81>
    80007944:	38f71263          	bne	a4,a5,80007cc8 <exec+0x41c>
    80007948:	f9843503          	ld	a0,-104(s0)
    8000794c:	ffffb097          	auipc	ra,0xffffb
    80007950:	254080e7          	jalr	596(ra) # 80002ba0 <proc_pagetable>
    80007954:	faa43023          	sd	a0,-96(s0)
    80007958:	fa043783          	ld	a5,-96(s0)
    8000795c:	36078863          	beqz	a5,80007ccc <exec+0x420>
    80007960:	fc042623          	sw	zero,-52(s0)
    80007964:	e4843783          	ld	a5,-440(s0)
    80007968:	fcf42423          	sw	a5,-56(s0)
    8000796c:	a8e1                	j	80007a44 <exec+0x198>
    8000796e:	df040793          	addi	a5,s0,-528
    80007972:	fc842683          	lw	a3,-56(s0)
    80007976:	03800713          	li	a4,56
    8000797a:	863e                	mv	a2,a5
    8000797c:	4581                	li	a1,0
    8000797e:	fa843503          	ld	a0,-88(s0)
    80007982:	ffffe097          	auipc	ra,0xffffe
    80007986:	17a080e7          	jalr	378(ra) # 80005afc <readi>
    8000798a:	87aa                	mv	a5,a0
    8000798c:	873e                	mv	a4,a5
    8000798e:	03800793          	li	a5,56
    80007992:	32f71f63          	bne	a4,a5,80007cd0 <exec+0x424>
    80007996:	df042783          	lw	a5,-528(s0)
    8000799a:	873e                	mv	a4,a5
    8000799c:	4785                	li	a5,1
    8000799e:	08f71663          	bne	a4,a5,80007a2a <exec+0x17e>
    800079a2:	e1843703          	ld	a4,-488(s0)
    800079a6:	e1043783          	ld	a5,-496(s0)
    800079aa:	32f76563          	bltu	a4,a5,80007cd4 <exec+0x428>
    800079ae:	e0043703          	ld	a4,-512(s0)
    800079b2:	e1843783          	ld	a5,-488(s0)
    800079b6:	973e                	add	a4,a4,a5
    800079b8:	e0043783          	ld	a5,-512(s0)
    800079bc:	30f76e63          	bltu	a4,a5,80007cd8 <exec+0x42c>
    800079c0:	e0043703          	ld	a4,-512(s0)
    800079c4:	e1843783          	ld	a5,-488(s0)
    800079c8:	97ba                	add	a5,a5,a4
    800079ca:	863e                	mv	a2,a5
    800079cc:	fb843583          	ld	a1,-72(s0)
    800079d0:	fa043503          	ld	a0,-96(s0)
    800079d4:	ffffa097          	auipc	ra,0xffffa
    800079d8:	6a6080e7          	jalr	1702(ra) # 8000207a <uvmalloc>
    800079dc:	f6a43823          	sd	a0,-144(s0)
    800079e0:	f7043783          	ld	a5,-144(s0)
    800079e4:	2e078c63          	beqz	a5,80007cdc <exec+0x430>
    800079e8:	f7043783          	ld	a5,-144(s0)
    800079ec:	faf43c23          	sd	a5,-72(s0)
    800079f0:	e0043703          	ld	a4,-512(s0)
    800079f4:	6785                	lui	a5,0x1
    800079f6:	17fd                	addi	a5,a5,-1 # fff <_entry-0x7ffff001>
    800079f8:	8ff9                	and	a5,a5,a4
    800079fa:	2e079363          	bnez	a5,80007ce0 <exec+0x434>
    800079fe:	e0043783          	ld	a5,-512(s0)
    80007a02:	df843703          	ld	a4,-520(s0)
    80007a06:	0007069b          	sext.w	a3,a4
    80007a0a:	e1043703          	ld	a4,-496(s0)
    80007a0e:	2701                	sext.w	a4,a4
    80007a10:	fa843603          	ld	a2,-88(s0)
    80007a14:	85be                	mv	a1,a5
    80007a16:	fa043503          	ld	a0,-96(s0)
    80007a1a:	00000097          	auipc	ra,0x0
    80007a1e:	32a080e7          	jalr	810(ra) # 80007d44 <loadseg>
    80007a22:	87aa                	mv	a5,a0
    80007a24:	2c07c063          	bltz	a5,80007ce4 <exec+0x438>
    80007a28:	a011                	j	80007a2c <exec+0x180>
    80007a2a:	0001                	nop
    80007a2c:	fcc42783          	lw	a5,-52(s0)
    80007a30:	2785                	addiw	a5,a5,1
    80007a32:	fcf42623          	sw	a5,-52(s0)
    80007a36:	fc842783          	lw	a5,-56(s0)
    80007a3a:	0387879b          	addiw	a5,a5,56
    80007a3e:	2781                	sext.w	a5,a5
    80007a40:	fcf42423          	sw	a5,-56(s0)
    80007a44:	e6045783          	lhu	a5,-416(s0)
    80007a48:	0007871b          	sext.w	a4,a5
    80007a4c:	fcc42783          	lw	a5,-52(s0)
    80007a50:	2781                	sext.w	a5,a5
    80007a52:	f0e7cee3          	blt	a5,a4,8000796e <exec+0xc2>
    80007a56:	fa843503          	ld	a0,-88(s0)
    80007a5a:	ffffe097          	auipc	ra,0xffffe
    80007a5e:	d6a080e7          	jalr	-662(ra) # 800057c4 <iunlockput>
    80007a62:	fffff097          	auipc	ra,0xfffff
    80007a66:	c1c080e7          	jalr	-996(ra) # 8000667e <end_op>
    80007a6a:	fa043423          	sd	zero,-88(s0)
    80007a6e:	ffffb097          	auipc	ra,0xffffb
    80007a72:	ee4080e7          	jalr	-284(ra) # 80002952 <myproc>
    80007a76:	f8a43c23          	sd	a0,-104(s0)
    80007a7a:	f9843783          	ld	a5,-104(s0)
    80007a7e:	67bc                	ld	a5,72(a5)
    80007a80:	f8f43823          	sd	a5,-112(s0)
    80007a84:	fb843703          	ld	a4,-72(s0)
    80007a88:	6785                	lui	a5,0x1
    80007a8a:	17fd                	addi	a5,a5,-1 # fff <_entry-0x7ffff001>
    80007a8c:	973e                	add	a4,a4,a5
    80007a8e:	77fd                	lui	a5,0xfffff
    80007a90:	8ff9                	and	a5,a5,a4
    80007a92:	faf43c23          	sd	a5,-72(s0)
    80007a96:	fb843703          	ld	a4,-72(s0)
    80007a9a:	6789                	lui	a5,0x2
    80007a9c:	97ba                	add	a5,a5,a4
    80007a9e:	863e                	mv	a2,a5
    80007aa0:	fb843583          	ld	a1,-72(s0)
    80007aa4:	fa043503          	ld	a0,-96(s0)
    80007aa8:	ffffa097          	auipc	ra,0xffffa
    80007aac:	5d2080e7          	jalr	1490(ra) # 8000207a <uvmalloc>
    80007ab0:	f8a43423          	sd	a0,-120(s0)
    80007ab4:	f8843783          	ld	a5,-120(s0)
    80007ab8:	22078863          	beqz	a5,80007ce8 <exec+0x43c>
    80007abc:	f8843783          	ld	a5,-120(s0)
    80007ac0:	faf43c23          	sd	a5,-72(s0)
    80007ac4:	fb843703          	ld	a4,-72(s0)
    80007ac8:	77f9                	lui	a5,0xffffe
    80007aca:	97ba                	add	a5,a5,a4
    80007acc:	85be                	mv	a1,a5
    80007ace:	fa043503          	ld	a0,-96(s0)
    80007ad2:	ffffb097          	auipc	ra,0xffffb
    80007ad6:	940080e7          	jalr	-1728(ra) # 80002412 <uvmclear>
    80007ada:	fb843783          	ld	a5,-72(s0)
    80007ade:	faf43823          	sd	a5,-80(s0)
    80007ae2:	fb043703          	ld	a4,-80(s0)
    80007ae6:	77fd                	lui	a5,0xfffff
    80007ae8:	97ba                	add	a5,a5,a4
    80007aea:	f8f43023          	sd	a5,-128(s0)
    80007aee:	fc043023          	sd	zero,-64(s0)
    80007af2:	a07d                	j	80007ba0 <exec+0x2f4>
    80007af4:	fc043703          	ld	a4,-64(s0)
    80007af8:	47fd                	li	a5,31
    80007afa:	1ee7e963          	bltu	a5,a4,80007cec <exec+0x440>
    80007afe:	fc043783          	ld	a5,-64(s0)
    80007b02:	078e                	slli	a5,a5,0x3
    80007b04:	de043703          	ld	a4,-544(s0)
    80007b08:	97ba                	add	a5,a5,a4
    80007b0a:	639c                	ld	a5,0(a5)
    80007b0c:	853e                	mv	a0,a5
    80007b0e:	ffffa097          	auipc	ra,0xffffa
    80007b12:	d0a080e7          	jalr	-758(ra) # 80001818 <strlen>
    80007b16:	87aa                	mv	a5,a0
    80007b18:	2785                	addiw	a5,a5,1 # fffffffffffff001 <end+0xffffffff7ffd3fd9>
    80007b1a:	2781                	sext.w	a5,a5
    80007b1c:	873e                	mv	a4,a5
    80007b1e:	fb043783          	ld	a5,-80(s0)
    80007b22:	8f99                	sub	a5,a5,a4
    80007b24:	faf43823          	sd	a5,-80(s0)
    80007b28:	fb043783          	ld	a5,-80(s0)
    80007b2c:	9bc1                	andi	a5,a5,-16
    80007b2e:	faf43823          	sd	a5,-80(s0)
    80007b32:	fb043703          	ld	a4,-80(s0)
    80007b36:	f8043783          	ld	a5,-128(s0)
    80007b3a:	1af76b63          	bltu	a4,a5,80007cf0 <exec+0x444>
    80007b3e:	fc043783          	ld	a5,-64(s0)
    80007b42:	078e                	slli	a5,a5,0x3
    80007b44:	de043703          	ld	a4,-544(s0)
    80007b48:	97ba                	add	a5,a5,a4
    80007b4a:	6384                	ld	s1,0(a5)
    80007b4c:	fc043783          	ld	a5,-64(s0)
    80007b50:	078e                	slli	a5,a5,0x3
    80007b52:	de043703          	ld	a4,-544(s0)
    80007b56:	97ba                	add	a5,a5,a4
    80007b58:	639c                	ld	a5,0(a5)
    80007b5a:	853e                	mv	a0,a5
    80007b5c:	ffffa097          	auipc	ra,0xffffa
    80007b60:	cbc080e7          	jalr	-836(ra) # 80001818 <strlen>
    80007b64:	87aa                	mv	a5,a0
    80007b66:	2785                	addiw	a5,a5,1
    80007b68:	2781                	sext.w	a5,a5
    80007b6a:	86be                	mv	a3,a5
    80007b6c:	8626                	mv	a2,s1
    80007b6e:	fb043583          	ld	a1,-80(s0)
    80007b72:	fa043503          	ld	a0,-96(s0)
    80007b76:	ffffb097          	auipc	ra,0xffffb
    80007b7a:	8f2080e7          	jalr	-1806(ra) # 80002468 <copyout>
    80007b7e:	87aa                	mv	a5,a0
    80007b80:	1607ca63          	bltz	a5,80007cf4 <exec+0x448>
    80007b84:	fc043783          	ld	a5,-64(s0)
    80007b88:	078e                	slli	a5,a5,0x3
    80007b8a:	1781                	addi	a5,a5,-32
    80007b8c:	97a2                	add	a5,a5,s0
    80007b8e:	fb043703          	ld	a4,-80(s0)
    80007b92:	e8e7b423          	sd	a4,-376(a5)
    80007b96:	fc043783          	ld	a5,-64(s0)
    80007b9a:	0785                	addi	a5,a5,1
    80007b9c:	fcf43023          	sd	a5,-64(s0)
    80007ba0:	fc043783          	ld	a5,-64(s0)
    80007ba4:	078e                	slli	a5,a5,0x3
    80007ba6:	de043703          	ld	a4,-544(s0)
    80007baa:	97ba                	add	a5,a5,a4
    80007bac:	639c                	ld	a5,0(a5)
    80007bae:	f3b9                	bnez	a5,80007af4 <exec+0x248>
    80007bb0:	fc043783          	ld	a5,-64(s0)
    80007bb4:	078e                	slli	a5,a5,0x3
    80007bb6:	1781                	addi	a5,a5,-32
    80007bb8:	97a2                	add	a5,a5,s0
    80007bba:	e807b423          	sd	zero,-376(a5)
    80007bbe:	fc043783          	ld	a5,-64(s0)
    80007bc2:	0785                	addi	a5,a5,1
    80007bc4:	078e                	slli	a5,a5,0x3
    80007bc6:	fb043703          	ld	a4,-80(s0)
    80007bca:	40f707b3          	sub	a5,a4,a5
    80007bce:	faf43823          	sd	a5,-80(s0)
    80007bd2:	fb043783          	ld	a5,-80(s0)
    80007bd6:	9bc1                	andi	a5,a5,-16
    80007bd8:	faf43823          	sd	a5,-80(s0)
    80007bdc:	fb043703          	ld	a4,-80(s0)
    80007be0:	f8043783          	ld	a5,-128(s0)
    80007be4:	10f76a63          	bltu	a4,a5,80007cf8 <exec+0x44c>
    80007be8:	fc043783          	ld	a5,-64(s0)
    80007bec:	0785                	addi	a5,a5,1
    80007bee:	00379713          	slli	a4,a5,0x3
    80007bf2:	e6840793          	addi	a5,s0,-408
    80007bf6:	86ba                	mv	a3,a4
    80007bf8:	863e                	mv	a2,a5
    80007bfa:	fb043583          	ld	a1,-80(s0)
    80007bfe:	fa043503          	ld	a0,-96(s0)
    80007c02:	ffffb097          	auipc	ra,0xffffb
    80007c06:	866080e7          	jalr	-1946(ra) # 80002468 <copyout>
    80007c0a:	87aa                	mv	a5,a0
    80007c0c:	0e07c863          	bltz	a5,80007cfc <exec+0x450>
    80007c10:	f9843783          	ld	a5,-104(s0)
    80007c14:	6fbc                	ld	a5,88(a5)
    80007c16:	fb043703          	ld	a4,-80(s0)
    80007c1a:	ffb8                	sd	a4,120(a5)
    80007c1c:	de843783          	ld	a5,-536(s0)
    80007c20:	fcf43c23          	sd	a5,-40(s0)
    80007c24:	fd843783          	ld	a5,-40(s0)
    80007c28:	fcf43823          	sd	a5,-48(s0)
    80007c2c:	a025                	j	80007c54 <exec+0x3a8>
    80007c2e:	fd843783          	ld	a5,-40(s0)
    80007c32:	0007c783          	lbu	a5,0(a5)
    80007c36:	873e                	mv	a4,a5
    80007c38:	02f00793          	li	a5,47
    80007c3c:	00f71763          	bne	a4,a5,80007c4a <exec+0x39e>
    80007c40:	fd843783          	ld	a5,-40(s0)
    80007c44:	0785                	addi	a5,a5,1
    80007c46:	fcf43823          	sd	a5,-48(s0)
    80007c4a:	fd843783          	ld	a5,-40(s0)
    80007c4e:	0785                	addi	a5,a5,1
    80007c50:	fcf43c23          	sd	a5,-40(s0)
    80007c54:	fd843783          	ld	a5,-40(s0)
    80007c58:	0007c783          	lbu	a5,0(a5)
    80007c5c:	fbe9                	bnez	a5,80007c2e <exec+0x382>
    80007c5e:	f9843783          	ld	a5,-104(s0)
    80007c62:	15878793          	addi	a5,a5,344
    80007c66:	4641                	li	a2,16
    80007c68:	fd043583          	ld	a1,-48(s0)
    80007c6c:	853e                	mv	a0,a5
    80007c6e:	ffffa097          	auipc	ra,0xffffa
    80007c72:	b2e080e7          	jalr	-1234(ra) # 8000179c <safestrcpy>
    80007c76:	f9843783          	ld	a5,-104(s0)
    80007c7a:	6bbc                	ld	a5,80(a5)
    80007c7c:	f6f43c23          	sd	a5,-136(s0)
    80007c80:	f9843783          	ld	a5,-104(s0)
    80007c84:	fa043703          	ld	a4,-96(s0)
    80007c88:	ebb8                	sd	a4,80(a5)
    80007c8a:	f9843783          	ld	a5,-104(s0)
    80007c8e:	fb843703          	ld	a4,-72(s0)
    80007c92:	e7b8                	sd	a4,72(a5)
    80007c94:	f9843783          	ld	a5,-104(s0)
    80007c98:	6fbc                	ld	a5,88(a5)
    80007c9a:	e4043703          	ld	a4,-448(s0)
    80007c9e:	ef98                	sd	a4,24(a5)
    80007ca0:	f9843783          	ld	a5,-104(s0)
    80007ca4:	6fbc                	ld	a5,88(a5)
    80007ca6:	fb043703          	ld	a4,-80(s0)
    80007caa:	fb98                	sd	a4,48(a5)
    80007cac:	f9043583          	ld	a1,-112(s0)
    80007cb0:	f7843503          	ld	a0,-136(s0)
    80007cb4:	ffffb097          	auipc	ra,0xffffb
    80007cb8:	2a0080e7          	jalr	672(ra) # 80002f54 <proc_freepagetable>
    80007cbc:	fc043783          	ld	a5,-64(s0)
    80007cc0:	2781                	sext.w	a5,a5
    80007cc2:	a0bd                	j	80007d30 <exec+0x484>
    80007cc4:	0001                	nop
    80007cc6:	a825                	j	80007cfe <exec+0x452>
    80007cc8:	0001                	nop
    80007cca:	a815                	j	80007cfe <exec+0x452>
    80007ccc:	0001                	nop
    80007cce:	a805                	j	80007cfe <exec+0x452>
    80007cd0:	0001                	nop
    80007cd2:	a035                	j	80007cfe <exec+0x452>
    80007cd4:	0001                	nop
    80007cd6:	a025                	j	80007cfe <exec+0x452>
    80007cd8:	0001                	nop
    80007cda:	a015                	j	80007cfe <exec+0x452>
    80007cdc:	0001                	nop
    80007cde:	a005                	j	80007cfe <exec+0x452>
    80007ce0:	0001                	nop
    80007ce2:	a831                	j	80007cfe <exec+0x452>
    80007ce4:	0001                	nop
    80007ce6:	a821                	j	80007cfe <exec+0x452>
    80007ce8:	0001                	nop
    80007cea:	a811                	j	80007cfe <exec+0x452>
    80007cec:	0001                	nop
    80007cee:	a801                	j	80007cfe <exec+0x452>
    80007cf0:	0001                	nop
    80007cf2:	a031                	j	80007cfe <exec+0x452>
    80007cf4:	0001                	nop
    80007cf6:	a021                	j	80007cfe <exec+0x452>
    80007cf8:	0001                	nop
    80007cfa:	a011                	j	80007cfe <exec+0x452>
    80007cfc:	0001                	nop
    80007cfe:	fa043783          	ld	a5,-96(s0)
    80007d02:	cb89                	beqz	a5,80007d14 <exec+0x468>
    80007d04:	fb843583          	ld	a1,-72(s0)
    80007d08:	fa043503          	ld	a0,-96(s0)
    80007d0c:	ffffb097          	auipc	ra,0xffffb
    80007d10:	248080e7          	jalr	584(ra) # 80002f54 <proc_freepagetable>
    80007d14:	fa843783          	ld	a5,-88(s0)
    80007d18:	cb99                	beqz	a5,80007d2e <exec+0x482>
    80007d1a:	fa843503          	ld	a0,-88(s0)
    80007d1e:	ffffe097          	auipc	ra,0xffffe
    80007d22:	aa6080e7          	jalr	-1370(ra) # 800057c4 <iunlockput>
    80007d26:	fffff097          	auipc	ra,0xfffff
    80007d2a:	958080e7          	jalr	-1704(ra) # 8000667e <end_op>
    80007d2e:	57fd                	li	a5,-1
    80007d30:	853e                	mv	a0,a5
    80007d32:	21813083          	ld	ra,536(sp)
    80007d36:	21013403          	ld	s0,528(sp)
    80007d3a:	20813483          	ld	s1,520(sp)
    80007d3e:	22010113          	addi	sp,sp,544
    80007d42:	8082                	ret

0000000080007d44 <loadseg>:
    80007d44:	7139                	addi	sp,sp,-64
    80007d46:	fc06                	sd	ra,56(sp)
    80007d48:	f822                	sd	s0,48(sp)
    80007d4a:	0080                	addi	s0,sp,64
    80007d4c:	fca43c23          	sd	a0,-40(s0)
    80007d50:	fcb43823          	sd	a1,-48(s0)
    80007d54:	fcc43423          	sd	a2,-56(s0)
    80007d58:	87b6                	mv	a5,a3
    80007d5a:	fcf42223          	sw	a5,-60(s0)
    80007d5e:	87ba                	mv	a5,a4
    80007d60:	fcf42023          	sw	a5,-64(s0)
    80007d64:	fd043703          	ld	a4,-48(s0)
    80007d68:	6785                	lui	a5,0x1
    80007d6a:	17fd                	addi	a5,a5,-1 # fff <_entry-0x7ffff001>
    80007d6c:	8ff9                	and	a5,a5,a4
    80007d6e:	cb89                	beqz	a5,80007d80 <loadseg+0x3c>
    80007d70:	00005517          	auipc	a0,0x5
    80007d74:	92850513          	addi	a0,a0,-1752 # 8000c698 <etext+0x698>
    80007d78:	ffff9097          	auipc	ra,0xffff9
    80007d7c:	f26080e7          	jalr	-218(ra) # 80000c9e <panic>
    80007d80:	fe042623          	sw	zero,-20(s0)
    80007d84:	a07d                	j	80007e32 <loadseg+0xee>
    80007d86:	fec46703          	lwu	a4,-20(s0)
    80007d8a:	fd043783          	ld	a5,-48(s0)
    80007d8e:	97ba                	add	a5,a5,a4
    80007d90:	85be                	mv	a1,a5
    80007d92:	fd843503          	ld	a0,-40(s0)
    80007d96:	ffffa097          	auipc	ra,0xffffa
    80007d9a:	f2a080e7          	jalr	-214(ra) # 80001cc0 <walkaddr>
    80007d9e:	fea43023          	sd	a0,-32(s0)
    80007da2:	fe043783          	ld	a5,-32(s0)
    80007da6:	eb89                	bnez	a5,80007db8 <loadseg+0x74>
    80007da8:	00005517          	auipc	a0,0x5
    80007dac:	91850513          	addi	a0,a0,-1768 # 8000c6c0 <etext+0x6c0>
    80007db0:	ffff9097          	auipc	ra,0xffff9
    80007db4:	eee080e7          	jalr	-274(ra) # 80000c9e <panic>
    80007db8:	fc042783          	lw	a5,-64(s0)
    80007dbc:	873e                	mv	a4,a5
    80007dbe:	fec42783          	lw	a5,-20(s0)
    80007dc2:	40f707bb          	subw	a5,a4,a5
    80007dc6:	2781                	sext.w	a5,a5
    80007dc8:	873e                	mv	a4,a5
    80007dca:	6785                	lui	a5,0x1
    80007dcc:	00f77c63          	bgeu	a4,a5,80007de4 <loadseg+0xa0>
    80007dd0:	fc042783          	lw	a5,-64(s0)
    80007dd4:	873e                	mv	a4,a5
    80007dd6:	fec42783          	lw	a5,-20(s0)
    80007dda:	40f707bb          	subw	a5,a4,a5
    80007dde:	fef42423          	sw	a5,-24(s0)
    80007de2:	a021                	j	80007dea <loadseg+0xa6>
    80007de4:	6785                	lui	a5,0x1
    80007de6:	fef42423          	sw	a5,-24(s0)
    80007dea:	fc442783          	lw	a5,-60(s0)
    80007dee:	873e                	mv	a4,a5
    80007df0:	fec42783          	lw	a5,-20(s0)
    80007df4:	9fb9                	addw	a5,a5,a4
    80007df6:	2781                	sext.w	a5,a5
    80007df8:	fe842703          	lw	a4,-24(s0)
    80007dfc:	86be                	mv	a3,a5
    80007dfe:	fe043603          	ld	a2,-32(s0)
    80007e02:	4581                	li	a1,0
    80007e04:	fc843503          	ld	a0,-56(s0)
    80007e08:	ffffe097          	auipc	ra,0xffffe
    80007e0c:	cf4080e7          	jalr	-780(ra) # 80005afc <readi>
    80007e10:	87aa                	mv	a5,a0
    80007e12:	0007871b          	sext.w	a4,a5
    80007e16:	fe842783          	lw	a5,-24(s0)
    80007e1a:	2781                	sext.w	a5,a5
    80007e1c:	00e78463          	beq	a5,a4,80007e24 <loadseg+0xe0>
    80007e20:	57fd                	li	a5,-1
    80007e22:	a015                	j	80007e46 <loadseg+0x102>
    80007e24:	fec42783          	lw	a5,-20(s0)
    80007e28:	873e                	mv	a4,a5
    80007e2a:	6785                	lui	a5,0x1
    80007e2c:	9fb9                	addw	a5,a5,a4
    80007e2e:	fef42623          	sw	a5,-20(s0)
    80007e32:	fec42783          	lw	a5,-20(s0)
    80007e36:	873e                	mv	a4,a5
    80007e38:	fc042783          	lw	a5,-64(s0)
    80007e3c:	2701                	sext.w	a4,a4
    80007e3e:	2781                	sext.w	a5,a5
    80007e40:	f4f763e3          	bltu	a4,a5,80007d86 <loadseg+0x42>
    80007e44:	4781                	li	a5,0
    80007e46:	853e                	mv	a0,a5
    80007e48:	70e2                	ld	ra,56(sp)
    80007e4a:	7442                	ld	s0,48(sp)
    80007e4c:	6121                	addi	sp,sp,64
    80007e4e:	8082                	ret

0000000080007e50 <argfd>:
    80007e50:	7139                	addi	sp,sp,-64
    80007e52:	fc06                	sd	ra,56(sp)
    80007e54:	f822                	sd	s0,48(sp)
    80007e56:	0080                	addi	s0,sp,64
    80007e58:	87aa                	mv	a5,a0
    80007e5a:	fcb43823          	sd	a1,-48(s0)
    80007e5e:	fcc43423          	sd	a2,-56(s0)
    80007e62:	fcf42e23          	sw	a5,-36(s0)
    80007e66:	fe440713          	addi	a4,s0,-28
    80007e6a:	fdc42783          	lw	a5,-36(s0)
    80007e6e:	85ba                	mv	a1,a4
    80007e70:	853e                	mv	a0,a5
    80007e72:	ffffc097          	auipc	ra,0xffffc
    80007e76:	720080e7          	jalr	1824(ra) # 80004592 <argint>
    80007e7a:	87aa                	mv	a5,a0
    80007e7c:	0007d463          	bgez	a5,80007e84 <argfd+0x34>
    80007e80:	57fd                	li	a5,-1
    80007e82:	a8b1                	j	80007ede <argfd+0x8e>
    80007e84:	fe442783          	lw	a5,-28(s0)
    80007e88:	0207c863          	bltz	a5,80007eb8 <argfd+0x68>
    80007e8c:	fe442783          	lw	a5,-28(s0)
    80007e90:	873e                	mv	a4,a5
    80007e92:	47bd                	li	a5,15
    80007e94:	02e7c263          	blt	a5,a4,80007eb8 <argfd+0x68>
    80007e98:	ffffb097          	auipc	ra,0xffffb
    80007e9c:	aba080e7          	jalr	-1350(ra) # 80002952 <myproc>
    80007ea0:	872a                	mv	a4,a0
    80007ea2:	fe442783          	lw	a5,-28(s0)
    80007ea6:	07e9                	addi	a5,a5,26 # 101a <_entry-0x7fffefe6>
    80007ea8:	078e                	slli	a5,a5,0x3
    80007eaa:	97ba                	add	a5,a5,a4
    80007eac:	639c                	ld	a5,0(a5)
    80007eae:	fef43423          	sd	a5,-24(s0)
    80007eb2:	fe843783          	ld	a5,-24(s0)
    80007eb6:	e399                	bnez	a5,80007ebc <argfd+0x6c>
    80007eb8:	57fd                	li	a5,-1
    80007eba:	a015                	j	80007ede <argfd+0x8e>
    80007ebc:	fd043783          	ld	a5,-48(s0)
    80007ec0:	c791                	beqz	a5,80007ecc <argfd+0x7c>
    80007ec2:	fe442703          	lw	a4,-28(s0)
    80007ec6:	fd043783          	ld	a5,-48(s0)
    80007eca:	c398                	sw	a4,0(a5)
    80007ecc:	fc843783          	ld	a5,-56(s0)
    80007ed0:	c791                	beqz	a5,80007edc <argfd+0x8c>
    80007ed2:	fc843783          	ld	a5,-56(s0)
    80007ed6:	fe843703          	ld	a4,-24(s0)
    80007eda:	e398                	sd	a4,0(a5)
    80007edc:	4781                	li	a5,0
    80007ede:	853e                	mv	a0,a5
    80007ee0:	70e2                	ld	ra,56(sp)
    80007ee2:	7442                	ld	s0,48(sp)
    80007ee4:	6121                	addi	sp,sp,64
    80007ee6:	8082                	ret

0000000080007ee8 <fdalloc>:
    80007ee8:	7179                	addi	sp,sp,-48
    80007eea:	f406                	sd	ra,40(sp)
    80007eec:	f022                	sd	s0,32(sp)
    80007eee:	1800                	addi	s0,sp,48
    80007ef0:	fca43c23          	sd	a0,-40(s0)
    80007ef4:	ffffb097          	auipc	ra,0xffffb
    80007ef8:	a5e080e7          	jalr	-1442(ra) # 80002952 <myproc>
    80007efc:	fea43023          	sd	a0,-32(s0)
    80007f00:	fe042623          	sw	zero,-20(s0)
    80007f04:	a825                	j	80007f3c <fdalloc+0x54>
    80007f06:	fe043703          	ld	a4,-32(s0)
    80007f0a:	fec42783          	lw	a5,-20(s0)
    80007f0e:	07e9                	addi	a5,a5,26
    80007f10:	078e                	slli	a5,a5,0x3
    80007f12:	97ba                	add	a5,a5,a4
    80007f14:	639c                	ld	a5,0(a5)
    80007f16:	ef91                	bnez	a5,80007f32 <fdalloc+0x4a>
    80007f18:	fe043703          	ld	a4,-32(s0)
    80007f1c:	fec42783          	lw	a5,-20(s0)
    80007f20:	07e9                	addi	a5,a5,26
    80007f22:	078e                	slli	a5,a5,0x3
    80007f24:	97ba                	add	a5,a5,a4
    80007f26:	fd843703          	ld	a4,-40(s0)
    80007f2a:	e398                	sd	a4,0(a5)
    80007f2c:	fec42783          	lw	a5,-20(s0)
    80007f30:	a831                	j	80007f4c <fdalloc+0x64>
    80007f32:	fec42783          	lw	a5,-20(s0)
    80007f36:	2785                	addiw	a5,a5,1
    80007f38:	fef42623          	sw	a5,-20(s0)
    80007f3c:	fec42783          	lw	a5,-20(s0)
    80007f40:	0007871b          	sext.w	a4,a5
    80007f44:	47bd                	li	a5,15
    80007f46:	fce7d0e3          	bge	a5,a4,80007f06 <fdalloc+0x1e>
    80007f4a:	57fd                	li	a5,-1
    80007f4c:	853e                	mv	a0,a5
    80007f4e:	70a2                	ld	ra,40(sp)
    80007f50:	7402                	ld	s0,32(sp)
    80007f52:	6145                	addi	sp,sp,48
    80007f54:	8082                	ret

0000000080007f56 <sys_dup>:
    80007f56:	1101                	addi	sp,sp,-32
    80007f58:	ec06                	sd	ra,24(sp)
    80007f5a:	e822                	sd	s0,16(sp)
    80007f5c:	1000                	addi	s0,sp,32
    80007f5e:	fe040793          	addi	a5,s0,-32
    80007f62:	863e                	mv	a2,a5
    80007f64:	4581                	li	a1,0
    80007f66:	4501                	li	a0,0
    80007f68:	00000097          	auipc	ra,0x0
    80007f6c:	ee8080e7          	jalr	-280(ra) # 80007e50 <argfd>
    80007f70:	87aa                	mv	a5,a0
    80007f72:	0007d463          	bgez	a5,80007f7a <sys_dup+0x24>
    80007f76:	57fd                	li	a5,-1
    80007f78:	a81d                	j	80007fae <sys_dup+0x58>
    80007f7a:	fe043783          	ld	a5,-32(s0)
    80007f7e:	853e                	mv	a0,a5
    80007f80:	00000097          	auipc	ra,0x0
    80007f84:	f68080e7          	jalr	-152(ra) # 80007ee8 <fdalloc>
    80007f88:	87aa                	mv	a5,a0
    80007f8a:	fef42623          	sw	a5,-20(s0)
    80007f8e:	fec42783          	lw	a5,-20(s0)
    80007f92:	2781                	sext.w	a5,a5
    80007f94:	0007d463          	bgez	a5,80007f9c <sys_dup+0x46>
    80007f98:	57fd                	li	a5,-1
    80007f9a:	a811                	j	80007fae <sys_dup+0x58>
    80007f9c:	fe043783          	ld	a5,-32(s0)
    80007fa0:	853e                	mv	a0,a5
    80007fa2:	fffff097          	auipc	ra,0xfffff
    80007fa6:	c4c080e7          	jalr	-948(ra) # 80006bee <filedup>
    80007faa:	fec42783          	lw	a5,-20(s0)
    80007fae:	853e                	mv	a0,a5
    80007fb0:	60e2                	ld	ra,24(sp)
    80007fb2:	6442                	ld	s0,16(sp)
    80007fb4:	6105                	addi	sp,sp,32
    80007fb6:	8082                	ret

0000000080007fb8 <sys_read>:
    80007fb8:	7179                	addi	sp,sp,-48
    80007fba:	f406                	sd	ra,40(sp)
    80007fbc:	f022                	sd	s0,32(sp)
    80007fbe:	1800                	addi	s0,sp,48
    80007fc0:	fe840793          	addi	a5,s0,-24
    80007fc4:	863e                	mv	a2,a5
    80007fc6:	4581                	li	a1,0
    80007fc8:	4501                	li	a0,0
    80007fca:	00000097          	auipc	ra,0x0
    80007fce:	e86080e7          	jalr	-378(ra) # 80007e50 <argfd>
    80007fd2:	87aa                	mv	a5,a0
    80007fd4:	0207c863          	bltz	a5,80008004 <sys_read+0x4c>
    80007fd8:	fe440793          	addi	a5,s0,-28
    80007fdc:	85be                	mv	a1,a5
    80007fde:	4509                	li	a0,2
    80007fe0:	ffffc097          	auipc	ra,0xffffc
    80007fe4:	5b2080e7          	jalr	1458(ra) # 80004592 <argint>
    80007fe8:	87aa                	mv	a5,a0
    80007fea:	0007cd63          	bltz	a5,80008004 <sys_read+0x4c>
    80007fee:	fd840793          	addi	a5,s0,-40
    80007ff2:	85be                	mv	a1,a5
    80007ff4:	4505                	li	a0,1
    80007ff6:	ffffc097          	auipc	ra,0xffffc
    80007ffa:	5d4080e7          	jalr	1492(ra) # 800045ca <argaddr>
    80007ffe:	87aa                	mv	a5,a0
    80008000:	0007d463          	bgez	a5,80008008 <sys_read+0x50>
    80008004:	57fd                	li	a5,-1
    80008006:	a839                	j	80008024 <sys_read+0x6c>
    80008008:	fe843783          	ld	a5,-24(s0)
    8000800c:	fd843703          	ld	a4,-40(s0)
    80008010:	fe442683          	lw	a3,-28(s0)
    80008014:	8636                	mv	a2,a3
    80008016:	85ba                	mv	a1,a4
    80008018:	853e                	mv	a0,a5
    8000801a:	fffff097          	auipc	ra,0xfffff
    8000801e:	de6080e7          	jalr	-538(ra) # 80006e00 <fileread>
    80008022:	87aa                	mv	a5,a0
    80008024:	853e                	mv	a0,a5
    80008026:	70a2                	ld	ra,40(sp)
    80008028:	7402                	ld	s0,32(sp)
    8000802a:	6145                	addi	sp,sp,48
    8000802c:	8082                	ret

000000008000802e <sys_write>:
    8000802e:	7179                	addi	sp,sp,-48
    80008030:	f406                	sd	ra,40(sp)
    80008032:	f022                	sd	s0,32(sp)
    80008034:	1800                	addi	s0,sp,48
    80008036:	fe840793          	addi	a5,s0,-24
    8000803a:	863e                	mv	a2,a5
    8000803c:	4581                	li	a1,0
    8000803e:	4501                	li	a0,0
    80008040:	00000097          	auipc	ra,0x0
    80008044:	e10080e7          	jalr	-496(ra) # 80007e50 <argfd>
    80008048:	87aa                	mv	a5,a0
    8000804a:	0207c863          	bltz	a5,8000807a <sys_write+0x4c>
    8000804e:	fe440793          	addi	a5,s0,-28
    80008052:	85be                	mv	a1,a5
    80008054:	4509                	li	a0,2
    80008056:	ffffc097          	auipc	ra,0xffffc
    8000805a:	53c080e7          	jalr	1340(ra) # 80004592 <argint>
    8000805e:	87aa                	mv	a5,a0
    80008060:	0007cd63          	bltz	a5,8000807a <sys_write+0x4c>
    80008064:	fd840793          	addi	a5,s0,-40
    80008068:	85be                	mv	a1,a5
    8000806a:	4505                	li	a0,1
    8000806c:	ffffc097          	auipc	ra,0xffffc
    80008070:	55e080e7          	jalr	1374(ra) # 800045ca <argaddr>
    80008074:	87aa                	mv	a5,a0
    80008076:	0007d463          	bgez	a5,8000807e <sys_write+0x50>
    8000807a:	57fd                	li	a5,-1
    8000807c:	a839                	j	8000809a <sys_write+0x6c>
    8000807e:	fe843783          	ld	a5,-24(s0)
    80008082:	fd843703          	ld	a4,-40(s0)
    80008086:	fe442683          	lw	a3,-28(s0)
    8000808a:	8636                	mv	a2,a3
    8000808c:	85ba                	mv	a1,a4
    8000808e:	853e                	mv	a0,a5
    80008090:	fffff097          	auipc	ra,0xfffff
    80008094:	ece080e7          	jalr	-306(ra) # 80006f5e <filewrite>
    80008098:	87aa                	mv	a5,a0
    8000809a:	853e                	mv	a0,a5
    8000809c:	70a2                	ld	ra,40(sp)
    8000809e:	7402                	ld	s0,32(sp)
    800080a0:	6145                	addi	sp,sp,48
    800080a2:	8082                	ret

00000000800080a4 <sys_close>:
    800080a4:	1101                	addi	sp,sp,-32
    800080a6:	ec06                	sd	ra,24(sp)
    800080a8:	e822                	sd	s0,16(sp)
    800080aa:	1000                	addi	s0,sp,32
    800080ac:	fe040713          	addi	a4,s0,-32
    800080b0:	fec40793          	addi	a5,s0,-20
    800080b4:	863a                	mv	a2,a4
    800080b6:	85be                	mv	a1,a5
    800080b8:	4501                	li	a0,0
    800080ba:	00000097          	auipc	ra,0x0
    800080be:	d96080e7          	jalr	-618(ra) # 80007e50 <argfd>
    800080c2:	87aa                	mv	a5,a0
    800080c4:	0007d463          	bgez	a5,800080cc <sys_close+0x28>
    800080c8:	57fd                	li	a5,-1
    800080ca:	a02d                	j	800080f4 <sys_close+0x50>
    800080cc:	ffffb097          	auipc	ra,0xffffb
    800080d0:	886080e7          	jalr	-1914(ra) # 80002952 <myproc>
    800080d4:	872a                	mv	a4,a0
    800080d6:	fec42783          	lw	a5,-20(s0)
    800080da:	07e9                	addi	a5,a5,26
    800080dc:	078e                	slli	a5,a5,0x3
    800080de:	97ba                	add	a5,a5,a4
    800080e0:	0007b023          	sd	zero,0(a5)
    800080e4:	fe043783          	ld	a5,-32(s0)
    800080e8:	853e                	mv	a0,a5
    800080ea:	fffff097          	auipc	ra,0xfffff
    800080ee:	b6a080e7          	jalr	-1174(ra) # 80006c54 <fileclose>
    800080f2:	4781                	li	a5,0
    800080f4:	853e                	mv	a0,a5
    800080f6:	60e2                	ld	ra,24(sp)
    800080f8:	6442                	ld	s0,16(sp)
    800080fa:	6105                	addi	sp,sp,32
    800080fc:	8082                	ret

00000000800080fe <sys_fstat>:
    800080fe:	1101                	addi	sp,sp,-32
    80008100:	ec06                	sd	ra,24(sp)
    80008102:	e822                	sd	s0,16(sp)
    80008104:	1000                	addi	s0,sp,32
    80008106:	fe840793          	addi	a5,s0,-24
    8000810a:	863e                	mv	a2,a5
    8000810c:	4581                	li	a1,0
    8000810e:	4501                	li	a0,0
    80008110:	00000097          	auipc	ra,0x0
    80008114:	d40080e7          	jalr	-704(ra) # 80007e50 <argfd>
    80008118:	87aa                	mv	a5,a0
    8000811a:	0007cd63          	bltz	a5,80008134 <sys_fstat+0x36>
    8000811e:	fe040793          	addi	a5,s0,-32
    80008122:	85be                	mv	a1,a5
    80008124:	4505                	li	a0,1
    80008126:	ffffc097          	auipc	ra,0xffffc
    8000812a:	4a4080e7          	jalr	1188(ra) # 800045ca <argaddr>
    8000812e:	87aa                	mv	a5,a0
    80008130:	0007d463          	bgez	a5,80008138 <sys_fstat+0x3a>
    80008134:	57fd                	li	a5,-1
    80008136:	a821                	j	8000814e <sys_fstat+0x50>
    80008138:	fe843783          	ld	a5,-24(s0)
    8000813c:	fe043703          	ld	a4,-32(s0)
    80008140:	85ba                	mv	a1,a4
    80008142:	853e                	mv	a0,a5
    80008144:	fffff097          	auipc	ra,0xfffff
    80008148:	c18080e7          	jalr	-1000(ra) # 80006d5c <filestat>
    8000814c:	87aa                	mv	a5,a0
    8000814e:	853e                	mv	a0,a5
    80008150:	60e2                	ld	ra,24(sp)
    80008152:	6442                	ld	s0,16(sp)
    80008154:	6105                	addi	sp,sp,32
    80008156:	8082                	ret

0000000080008158 <sys_link>:
    80008158:	7169                	addi	sp,sp,-304
    8000815a:	f606                	sd	ra,296(sp)
    8000815c:	f222                	sd	s0,288(sp)
    8000815e:	1a00                	addi	s0,sp,304
    80008160:	ed040793          	addi	a5,s0,-304
    80008164:	08000613          	li	a2,128
    80008168:	85be                	mv	a1,a5
    8000816a:	4501                	li	a0,0
    8000816c:	ffffc097          	auipc	ra,0xffffc
    80008170:	492080e7          	jalr	1170(ra) # 800045fe <argstr>
    80008174:	87aa                	mv	a5,a0
    80008176:	0007cf63          	bltz	a5,80008194 <sys_link+0x3c>
    8000817a:	f5040793          	addi	a5,s0,-176
    8000817e:	08000613          	li	a2,128
    80008182:	85be                	mv	a1,a5
    80008184:	4505                	li	a0,1
    80008186:	ffffc097          	auipc	ra,0xffffc
    8000818a:	478080e7          	jalr	1144(ra) # 800045fe <argstr>
    8000818e:	87aa                	mv	a5,a0
    80008190:	0007d463          	bgez	a5,80008198 <sys_link+0x40>
    80008194:	57fd                	li	a5,-1
    80008196:	aaad                	j	80008310 <sys_link+0x1b8>
    80008198:	ffffe097          	auipc	ra,0xffffe
    8000819c:	424080e7          	jalr	1060(ra) # 800065bc <begin_op>
    800081a0:	ed040793          	addi	a5,s0,-304
    800081a4:	853e                	mv	a0,a5
    800081a6:	ffffe097          	auipc	ra,0xffffe
    800081aa:	0c2080e7          	jalr	194(ra) # 80006268 <namei>
    800081ae:	fea43423          	sd	a0,-24(s0)
    800081b2:	fe843783          	ld	a5,-24(s0)
    800081b6:	e799                	bnez	a5,800081c4 <sys_link+0x6c>
    800081b8:	ffffe097          	auipc	ra,0xffffe
    800081bc:	4c6080e7          	jalr	1222(ra) # 8000667e <end_op>
    800081c0:	57fd                	li	a5,-1
    800081c2:	a2b9                	j	80008310 <sys_link+0x1b8>
    800081c4:	fe843503          	ld	a0,-24(s0)
    800081c8:	ffffd097          	auipc	ra,0xffffd
    800081cc:	39e080e7          	jalr	926(ra) # 80005566 <ilock>
    800081d0:	fe843783          	ld	a5,-24(s0)
    800081d4:	04479783          	lh	a5,68(a5)
    800081d8:	873e                	mv	a4,a5
    800081da:	4785                	li	a5,1
    800081dc:	00f71e63          	bne	a4,a5,800081f8 <sys_link+0xa0>
    800081e0:	fe843503          	ld	a0,-24(s0)
    800081e4:	ffffd097          	auipc	ra,0xffffd
    800081e8:	5e0080e7          	jalr	1504(ra) # 800057c4 <iunlockput>
    800081ec:	ffffe097          	auipc	ra,0xffffe
    800081f0:	492080e7          	jalr	1170(ra) # 8000667e <end_op>
    800081f4:	57fd                	li	a5,-1
    800081f6:	aa29                	j	80008310 <sys_link+0x1b8>
    800081f8:	fe843783          	ld	a5,-24(s0)
    800081fc:	04a79783          	lh	a5,74(a5)
    80008200:	17c2                	slli	a5,a5,0x30
    80008202:	93c1                	srli	a5,a5,0x30
    80008204:	2785                	addiw	a5,a5,1
    80008206:	17c2                	slli	a5,a5,0x30
    80008208:	93c1                	srli	a5,a5,0x30
    8000820a:	0107971b          	slliw	a4,a5,0x10
    8000820e:	4107571b          	sraiw	a4,a4,0x10
    80008212:	fe843783          	ld	a5,-24(s0)
    80008216:	04e79523          	sh	a4,74(a5)
    8000821a:	fe843503          	ld	a0,-24(s0)
    8000821e:	ffffd097          	auipc	ra,0xffffd
    80008222:	0f8080e7          	jalr	248(ra) # 80005316 <iupdate>
    80008226:	fe843503          	ld	a0,-24(s0)
    8000822a:	ffffd097          	auipc	ra,0xffffd
    8000822e:	470080e7          	jalr	1136(ra) # 8000569a <iunlock>
    80008232:	fd040713          	addi	a4,s0,-48
    80008236:	f5040793          	addi	a5,s0,-176
    8000823a:	85ba                	mv	a1,a4
    8000823c:	853e                	mv	a0,a5
    8000823e:	ffffe097          	auipc	ra,0xffffe
    80008242:	056080e7          	jalr	86(ra) # 80006294 <nameiparent>
    80008246:	fea43023          	sd	a0,-32(s0)
    8000824a:	fe043783          	ld	a5,-32(s0)
    8000824e:	cba5                	beqz	a5,800082be <sys_link+0x166>
    80008250:	fe043503          	ld	a0,-32(s0)
    80008254:	ffffd097          	auipc	ra,0xffffd
    80008258:	312080e7          	jalr	786(ra) # 80005566 <ilock>
    8000825c:	fe043783          	ld	a5,-32(s0)
    80008260:	4398                	lw	a4,0(a5)
    80008262:	fe843783          	ld	a5,-24(s0)
    80008266:	439c                	lw	a5,0(a5)
    80008268:	02f71263          	bne	a4,a5,8000828c <sys_link+0x134>
    8000826c:	fe843783          	ld	a5,-24(s0)
    80008270:	43d8                	lw	a4,4(a5)
    80008272:	fd040793          	addi	a5,s0,-48
    80008276:	863a                	mv	a2,a4
    80008278:	85be                	mv	a1,a5
    8000827a:	fe043503          	ld	a0,-32(s0)
    8000827e:	ffffe097          	auipc	ra,0xffffe
    80008282:	cd2080e7          	jalr	-814(ra) # 80005f50 <dirlink>
    80008286:	87aa                	mv	a5,a0
    80008288:	0007d963          	bgez	a5,8000829a <sys_link+0x142>
    8000828c:	fe043503          	ld	a0,-32(s0)
    80008290:	ffffd097          	auipc	ra,0xffffd
    80008294:	534080e7          	jalr	1332(ra) # 800057c4 <iunlockput>
    80008298:	a025                	j	800082c0 <sys_link+0x168>
    8000829a:	fe043503          	ld	a0,-32(s0)
    8000829e:	ffffd097          	auipc	ra,0xffffd
    800082a2:	526080e7          	jalr	1318(ra) # 800057c4 <iunlockput>
    800082a6:	fe843503          	ld	a0,-24(s0)
    800082aa:	ffffd097          	auipc	ra,0xffffd
    800082ae:	44a080e7          	jalr	1098(ra) # 800056f4 <iput>
    800082b2:	ffffe097          	auipc	ra,0xffffe
    800082b6:	3cc080e7          	jalr	972(ra) # 8000667e <end_op>
    800082ba:	4781                	li	a5,0
    800082bc:	a891                	j	80008310 <sys_link+0x1b8>
    800082be:	0001                	nop
    800082c0:	fe843503          	ld	a0,-24(s0)
    800082c4:	ffffd097          	auipc	ra,0xffffd
    800082c8:	2a2080e7          	jalr	674(ra) # 80005566 <ilock>
    800082cc:	fe843783          	ld	a5,-24(s0)
    800082d0:	04a79783          	lh	a5,74(a5)
    800082d4:	17c2                	slli	a5,a5,0x30
    800082d6:	93c1                	srli	a5,a5,0x30
    800082d8:	37fd                	addiw	a5,a5,-1
    800082da:	17c2                	slli	a5,a5,0x30
    800082dc:	93c1                	srli	a5,a5,0x30
    800082de:	0107971b          	slliw	a4,a5,0x10
    800082e2:	4107571b          	sraiw	a4,a4,0x10
    800082e6:	fe843783          	ld	a5,-24(s0)
    800082ea:	04e79523          	sh	a4,74(a5)
    800082ee:	fe843503          	ld	a0,-24(s0)
    800082f2:	ffffd097          	auipc	ra,0xffffd
    800082f6:	024080e7          	jalr	36(ra) # 80005316 <iupdate>
    800082fa:	fe843503          	ld	a0,-24(s0)
    800082fe:	ffffd097          	auipc	ra,0xffffd
    80008302:	4c6080e7          	jalr	1222(ra) # 800057c4 <iunlockput>
    80008306:	ffffe097          	auipc	ra,0xffffe
    8000830a:	378080e7          	jalr	888(ra) # 8000667e <end_op>
    8000830e:	57fd                	li	a5,-1
    80008310:	853e                	mv	a0,a5
    80008312:	70b2                	ld	ra,296(sp)
    80008314:	7412                	ld	s0,288(sp)
    80008316:	6155                	addi	sp,sp,304
    80008318:	8082                	ret

000000008000831a <isdirempty>:
    8000831a:	7139                	addi	sp,sp,-64
    8000831c:	fc06                	sd	ra,56(sp)
    8000831e:	f822                	sd	s0,48(sp)
    80008320:	0080                	addi	s0,sp,64
    80008322:	fca43423          	sd	a0,-56(s0)
    80008326:	02000793          	li	a5,32
    8000832a:	fef42623          	sw	a5,-20(s0)
    8000832e:	a0b1                	j	8000837a <isdirempty+0x60>
    80008330:	fd840793          	addi	a5,s0,-40
    80008334:	fec42683          	lw	a3,-20(s0)
    80008338:	4741                	li	a4,16
    8000833a:	863e                	mv	a2,a5
    8000833c:	4581                	li	a1,0
    8000833e:	fc843503          	ld	a0,-56(s0)
    80008342:	ffffd097          	auipc	ra,0xffffd
    80008346:	7ba080e7          	jalr	1978(ra) # 80005afc <readi>
    8000834a:	87aa                	mv	a5,a0
    8000834c:	873e                	mv	a4,a5
    8000834e:	47c1                	li	a5,16
    80008350:	00f70a63          	beq	a4,a5,80008364 <isdirempty+0x4a>
    80008354:	00004517          	auipc	a0,0x4
    80008358:	38c50513          	addi	a0,a0,908 # 8000c6e0 <etext+0x6e0>
    8000835c:	ffff9097          	auipc	ra,0xffff9
    80008360:	942080e7          	jalr	-1726(ra) # 80000c9e <panic>
    80008364:	fd845783          	lhu	a5,-40(s0)
    80008368:	c399                	beqz	a5,8000836e <isdirempty+0x54>
    8000836a:	4781                	li	a5,0
    8000836c:	a839                	j	8000838a <isdirempty+0x70>
    8000836e:	fec42783          	lw	a5,-20(s0)
    80008372:	27c1                	addiw	a5,a5,16
    80008374:	2781                	sext.w	a5,a5
    80008376:	fef42623          	sw	a5,-20(s0)
    8000837a:	fc843783          	ld	a5,-56(s0)
    8000837e:	47f8                	lw	a4,76(a5)
    80008380:	fec42783          	lw	a5,-20(s0)
    80008384:	fae7e6e3          	bltu	a5,a4,80008330 <isdirempty+0x16>
    80008388:	4785                	li	a5,1
    8000838a:	853e                	mv	a0,a5
    8000838c:	70e2                	ld	ra,56(sp)
    8000838e:	7442                	ld	s0,48(sp)
    80008390:	6121                	addi	sp,sp,64
    80008392:	8082                	ret

0000000080008394 <sys_unlink>:
    80008394:	7155                	addi	sp,sp,-208
    80008396:	e586                	sd	ra,200(sp)
    80008398:	e1a2                	sd	s0,192(sp)
    8000839a:	0980                	addi	s0,sp,208
    8000839c:	f4040793          	addi	a5,s0,-192
    800083a0:	08000613          	li	a2,128
    800083a4:	85be                	mv	a1,a5
    800083a6:	4501                	li	a0,0
    800083a8:	ffffc097          	auipc	ra,0xffffc
    800083ac:	256080e7          	jalr	598(ra) # 800045fe <argstr>
    800083b0:	87aa                	mv	a5,a0
    800083b2:	0007d463          	bgez	a5,800083ba <sys_unlink+0x26>
    800083b6:	57fd                	li	a5,-1
    800083b8:	a2d5                	j	8000859c <sys_unlink+0x208>
    800083ba:	ffffe097          	auipc	ra,0xffffe
    800083be:	202080e7          	jalr	514(ra) # 800065bc <begin_op>
    800083c2:	fc040713          	addi	a4,s0,-64
    800083c6:	f4040793          	addi	a5,s0,-192
    800083ca:	85ba                	mv	a1,a4
    800083cc:	853e                	mv	a0,a5
    800083ce:	ffffe097          	auipc	ra,0xffffe
    800083d2:	ec6080e7          	jalr	-314(ra) # 80006294 <nameiparent>
    800083d6:	fea43423          	sd	a0,-24(s0)
    800083da:	fe843783          	ld	a5,-24(s0)
    800083de:	e799                	bnez	a5,800083ec <sys_unlink+0x58>
    800083e0:	ffffe097          	auipc	ra,0xffffe
    800083e4:	29e080e7          	jalr	670(ra) # 8000667e <end_op>
    800083e8:	57fd                	li	a5,-1
    800083ea:	aa4d                	j	8000859c <sys_unlink+0x208>
    800083ec:	fe843503          	ld	a0,-24(s0)
    800083f0:	ffffd097          	auipc	ra,0xffffd
    800083f4:	176080e7          	jalr	374(ra) # 80005566 <ilock>
    800083f8:	fc040793          	addi	a5,s0,-64
    800083fc:	00004597          	auipc	a1,0x4
    80008400:	2fc58593          	addi	a1,a1,764 # 8000c6f8 <etext+0x6f8>
    80008404:	853e                	mv	a0,a5
    80008406:	ffffe097          	auipc	ra,0xffffe
    8000840a:	a36080e7          	jalr	-1482(ra) # 80005e3c <namecmp>
    8000840e:	87aa                	mv	a5,a0
    80008410:	16078863          	beqz	a5,80008580 <sys_unlink+0x1ec>
    80008414:	fc040793          	addi	a5,s0,-64
    80008418:	00004597          	auipc	a1,0x4
    8000841c:	2e858593          	addi	a1,a1,744 # 8000c700 <etext+0x700>
    80008420:	853e                	mv	a0,a5
    80008422:	ffffe097          	auipc	ra,0xffffe
    80008426:	a1a080e7          	jalr	-1510(ra) # 80005e3c <namecmp>
    8000842a:	87aa                	mv	a5,a0
    8000842c:	14078a63          	beqz	a5,80008580 <sys_unlink+0x1ec>
    80008430:	f3c40713          	addi	a4,s0,-196
    80008434:	fc040793          	addi	a5,s0,-64
    80008438:	863a                	mv	a2,a4
    8000843a:	85be                	mv	a1,a5
    8000843c:	fe843503          	ld	a0,-24(s0)
    80008440:	ffffe097          	auipc	ra,0xffffe
    80008444:	a2a080e7          	jalr	-1494(ra) # 80005e6a <dirlookup>
    80008448:	fea43023          	sd	a0,-32(s0)
    8000844c:	fe043783          	ld	a5,-32(s0)
    80008450:	12078a63          	beqz	a5,80008584 <sys_unlink+0x1f0>
    80008454:	fe043503          	ld	a0,-32(s0)
    80008458:	ffffd097          	auipc	ra,0xffffd
    8000845c:	10e080e7          	jalr	270(ra) # 80005566 <ilock>
    80008460:	fe043783          	ld	a5,-32(s0)
    80008464:	04a79783          	lh	a5,74(a5)
    80008468:	00f04a63          	bgtz	a5,8000847c <sys_unlink+0xe8>
    8000846c:	00004517          	auipc	a0,0x4
    80008470:	29c50513          	addi	a0,a0,668 # 8000c708 <etext+0x708>
    80008474:	ffff9097          	auipc	ra,0xffff9
    80008478:	82a080e7          	jalr	-2006(ra) # 80000c9e <panic>
    8000847c:	fe043783          	ld	a5,-32(s0)
    80008480:	04479783          	lh	a5,68(a5)
    80008484:	873e                	mv	a4,a5
    80008486:	4785                	li	a5,1
    80008488:	02f71163          	bne	a4,a5,800084aa <sys_unlink+0x116>
    8000848c:	fe043503          	ld	a0,-32(s0)
    80008490:	00000097          	auipc	ra,0x0
    80008494:	e8a080e7          	jalr	-374(ra) # 8000831a <isdirempty>
    80008498:	87aa                	mv	a5,a0
    8000849a:	eb81                	bnez	a5,800084aa <sys_unlink+0x116>
    8000849c:	fe043503          	ld	a0,-32(s0)
    800084a0:	ffffd097          	auipc	ra,0xffffd
    800084a4:	324080e7          	jalr	804(ra) # 800057c4 <iunlockput>
    800084a8:	a8f9                	j	80008586 <sys_unlink+0x1f2>
    800084aa:	fd040793          	addi	a5,s0,-48
    800084ae:	4641                	li	a2,16
    800084b0:	4581                	li	a1,0
    800084b2:	853e                	mv	a0,a5
    800084b4:	ffff9097          	auipc	ra,0xffff9
    800084b8:	ff2080e7          	jalr	-14(ra) # 800014a6 <memset>
    800084bc:	fd040793          	addi	a5,s0,-48
    800084c0:	f3c42683          	lw	a3,-196(s0)
    800084c4:	4741                	li	a4,16
    800084c6:	863e                	mv	a2,a5
    800084c8:	4581                	li	a1,0
    800084ca:	fe843503          	ld	a0,-24(s0)
    800084ce:	ffffd097          	auipc	ra,0xffffd
    800084d2:	7b8080e7          	jalr	1976(ra) # 80005c86 <writei>
    800084d6:	87aa                	mv	a5,a0
    800084d8:	873e                	mv	a4,a5
    800084da:	47c1                	li	a5,16
    800084dc:	00f70a63          	beq	a4,a5,800084f0 <sys_unlink+0x15c>
    800084e0:	00004517          	auipc	a0,0x4
    800084e4:	24050513          	addi	a0,a0,576 # 8000c720 <etext+0x720>
    800084e8:	ffff8097          	auipc	ra,0xffff8
    800084ec:	7b6080e7          	jalr	1974(ra) # 80000c9e <panic>
    800084f0:	fe043783          	ld	a5,-32(s0)
    800084f4:	04479783          	lh	a5,68(a5)
    800084f8:	873e                	mv	a4,a5
    800084fa:	4785                	li	a5,1
    800084fc:	02f71963          	bne	a4,a5,8000852e <sys_unlink+0x19a>
    80008500:	fe843783          	ld	a5,-24(s0)
    80008504:	04a79783          	lh	a5,74(a5)
    80008508:	17c2                	slli	a5,a5,0x30
    8000850a:	93c1                	srli	a5,a5,0x30
    8000850c:	37fd                	addiw	a5,a5,-1
    8000850e:	17c2                	slli	a5,a5,0x30
    80008510:	93c1                	srli	a5,a5,0x30
    80008512:	0107971b          	slliw	a4,a5,0x10
    80008516:	4107571b          	sraiw	a4,a4,0x10
    8000851a:	fe843783          	ld	a5,-24(s0)
    8000851e:	04e79523          	sh	a4,74(a5)
    80008522:	fe843503          	ld	a0,-24(s0)
    80008526:	ffffd097          	auipc	ra,0xffffd
    8000852a:	df0080e7          	jalr	-528(ra) # 80005316 <iupdate>
    8000852e:	fe843503          	ld	a0,-24(s0)
    80008532:	ffffd097          	auipc	ra,0xffffd
    80008536:	292080e7          	jalr	658(ra) # 800057c4 <iunlockput>
    8000853a:	fe043783          	ld	a5,-32(s0)
    8000853e:	04a79783          	lh	a5,74(a5)
    80008542:	17c2                	slli	a5,a5,0x30
    80008544:	93c1                	srli	a5,a5,0x30
    80008546:	37fd                	addiw	a5,a5,-1
    80008548:	17c2                	slli	a5,a5,0x30
    8000854a:	93c1                	srli	a5,a5,0x30
    8000854c:	0107971b          	slliw	a4,a5,0x10
    80008550:	4107571b          	sraiw	a4,a4,0x10
    80008554:	fe043783          	ld	a5,-32(s0)
    80008558:	04e79523          	sh	a4,74(a5)
    8000855c:	fe043503          	ld	a0,-32(s0)
    80008560:	ffffd097          	auipc	ra,0xffffd
    80008564:	db6080e7          	jalr	-586(ra) # 80005316 <iupdate>
    80008568:	fe043503          	ld	a0,-32(s0)
    8000856c:	ffffd097          	auipc	ra,0xffffd
    80008570:	258080e7          	jalr	600(ra) # 800057c4 <iunlockput>
    80008574:	ffffe097          	auipc	ra,0xffffe
    80008578:	10a080e7          	jalr	266(ra) # 8000667e <end_op>
    8000857c:	4781                	li	a5,0
    8000857e:	a839                	j	8000859c <sys_unlink+0x208>
    80008580:	0001                	nop
    80008582:	a011                	j	80008586 <sys_unlink+0x1f2>
    80008584:	0001                	nop
    80008586:	fe843503          	ld	a0,-24(s0)
    8000858a:	ffffd097          	auipc	ra,0xffffd
    8000858e:	23a080e7          	jalr	570(ra) # 800057c4 <iunlockput>
    80008592:	ffffe097          	auipc	ra,0xffffe
    80008596:	0ec080e7          	jalr	236(ra) # 8000667e <end_op>
    8000859a:	57fd                	li	a5,-1
    8000859c:	853e                	mv	a0,a5
    8000859e:	60ae                	ld	ra,200(sp)
    800085a0:	640e                	ld	s0,192(sp)
    800085a2:	6169                	addi	sp,sp,208
    800085a4:	8082                	ret

00000000800085a6 <create>:
    800085a6:	7139                	addi	sp,sp,-64
    800085a8:	fc06                	sd	ra,56(sp)
    800085aa:	f822                	sd	s0,48(sp)
    800085ac:	0080                	addi	s0,sp,64
    800085ae:	fca43423          	sd	a0,-56(s0)
    800085b2:	87ae                	mv	a5,a1
    800085b4:	8736                	mv	a4,a3
    800085b6:	fcf41323          	sh	a5,-58(s0)
    800085ba:	87b2                	mv	a5,a2
    800085bc:	fcf41223          	sh	a5,-60(s0)
    800085c0:	87ba                	mv	a5,a4
    800085c2:	fcf41123          	sh	a5,-62(s0)
    800085c6:	fd040793          	addi	a5,s0,-48
    800085ca:	85be                	mv	a1,a5
    800085cc:	fc843503          	ld	a0,-56(s0)
    800085d0:	ffffe097          	auipc	ra,0xffffe
    800085d4:	cc4080e7          	jalr	-828(ra) # 80006294 <nameiparent>
    800085d8:	fea43423          	sd	a0,-24(s0)
    800085dc:	fe843783          	ld	a5,-24(s0)
    800085e0:	e399                	bnez	a5,800085e6 <create+0x40>
    800085e2:	4781                	li	a5,0
    800085e4:	a2c9                	j	800087a6 <create+0x200>
    800085e6:	fe843503          	ld	a0,-24(s0)
    800085ea:	ffffd097          	auipc	ra,0xffffd
    800085ee:	f7c080e7          	jalr	-132(ra) # 80005566 <ilock>
    800085f2:	fd040793          	addi	a5,s0,-48
    800085f6:	4601                	li	a2,0
    800085f8:	85be                	mv	a1,a5
    800085fa:	fe843503          	ld	a0,-24(s0)
    800085fe:	ffffe097          	auipc	ra,0xffffe
    80008602:	86c080e7          	jalr	-1940(ra) # 80005e6a <dirlookup>
    80008606:	fea43023          	sd	a0,-32(s0)
    8000860a:	fe043783          	ld	a5,-32(s0)
    8000860e:	cfb9                	beqz	a5,8000866c <create+0xc6>
    80008610:	fe843503          	ld	a0,-24(s0)
    80008614:	ffffd097          	auipc	ra,0xffffd
    80008618:	1b0080e7          	jalr	432(ra) # 800057c4 <iunlockput>
    8000861c:	fe043503          	ld	a0,-32(s0)
    80008620:	ffffd097          	auipc	ra,0xffffd
    80008624:	f46080e7          	jalr	-186(ra) # 80005566 <ilock>
    80008628:	fc641783          	lh	a5,-58(s0)
    8000862c:	0007871b          	sext.w	a4,a5
    80008630:	4789                	li	a5,2
    80008632:	02f71563          	bne	a4,a5,8000865c <create+0xb6>
    80008636:	fe043783          	ld	a5,-32(s0)
    8000863a:	04479783          	lh	a5,68(a5)
    8000863e:	873e                	mv	a4,a5
    80008640:	4789                	li	a5,2
    80008642:	00f70a63          	beq	a4,a5,80008656 <create+0xb0>
    80008646:	fe043783          	ld	a5,-32(s0)
    8000864a:	04479783          	lh	a5,68(a5)
    8000864e:	873e                	mv	a4,a5
    80008650:	478d                	li	a5,3
    80008652:	00f71563          	bne	a4,a5,8000865c <create+0xb6>
    80008656:	fe043783          	ld	a5,-32(s0)
    8000865a:	a2b1                	j	800087a6 <create+0x200>
    8000865c:	fe043503          	ld	a0,-32(s0)
    80008660:	ffffd097          	auipc	ra,0xffffd
    80008664:	164080e7          	jalr	356(ra) # 800057c4 <iunlockput>
    80008668:	4781                	li	a5,0
    8000866a:	aa35                	j	800087a6 <create+0x200>
    8000866c:	fe843783          	ld	a5,-24(s0)
    80008670:	439c                	lw	a5,0(a5)
    80008672:	fc641703          	lh	a4,-58(s0)
    80008676:	85ba                	mv	a1,a4
    80008678:	853e                	mv	a0,a5
    8000867a:	ffffd097          	auipc	ra,0xffffd
    8000867e:	ba0080e7          	jalr	-1120(ra) # 8000521a <ialloc>
    80008682:	fea43023          	sd	a0,-32(s0)
    80008686:	fe043783          	ld	a5,-32(s0)
    8000868a:	eb89                	bnez	a5,8000869c <create+0xf6>
    8000868c:	00004517          	auipc	a0,0x4
    80008690:	0a450513          	addi	a0,a0,164 # 8000c730 <etext+0x730>
    80008694:	ffff8097          	auipc	ra,0xffff8
    80008698:	60a080e7          	jalr	1546(ra) # 80000c9e <panic>
    8000869c:	fe043503          	ld	a0,-32(s0)
    800086a0:	ffffd097          	auipc	ra,0xffffd
    800086a4:	ec6080e7          	jalr	-314(ra) # 80005566 <ilock>
    800086a8:	fe043783          	ld	a5,-32(s0)
    800086ac:	fc445703          	lhu	a4,-60(s0)
    800086b0:	04e79323          	sh	a4,70(a5)
    800086b4:	fe043783          	ld	a5,-32(s0)
    800086b8:	fc245703          	lhu	a4,-62(s0)
    800086bc:	04e79423          	sh	a4,72(a5)
    800086c0:	fe043783          	ld	a5,-32(s0)
    800086c4:	4705                	li	a4,1
    800086c6:	04e79523          	sh	a4,74(a5)
    800086ca:	fe043503          	ld	a0,-32(s0)
    800086ce:	ffffd097          	auipc	ra,0xffffd
    800086d2:	c48080e7          	jalr	-952(ra) # 80005316 <iupdate>
    800086d6:	fc641783          	lh	a5,-58(s0)
    800086da:	0007871b          	sext.w	a4,a5
    800086de:	4785                	li	a5,1
    800086e0:	08f71363          	bne	a4,a5,80008766 <create+0x1c0>
    800086e4:	fe843783          	ld	a5,-24(s0)
    800086e8:	04a79783          	lh	a5,74(a5)
    800086ec:	17c2                	slli	a5,a5,0x30
    800086ee:	93c1                	srli	a5,a5,0x30
    800086f0:	2785                	addiw	a5,a5,1
    800086f2:	17c2                	slli	a5,a5,0x30
    800086f4:	93c1                	srli	a5,a5,0x30
    800086f6:	0107971b          	slliw	a4,a5,0x10
    800086fa:	4107571b          	sraiw	a4,a4,0x10
    800086fe:	fe843783          	ld	a5,-24(s0)
    80008702:	04e79523          	sh	a4,74(a5)
    80008706:	fe843503          	ld	a0,-24(s0)
    8000870a:	ffffd097          	auipc	ra,0xffffd
    8000870e:	c0c080e7          	jalr	-1012(ra) # 80005316 <iupdate>
    80008712:	fe043783          	ld	a5,-32(s0)
    80008716:	43dc                	lw	a5,4(a5)
    80008718:	863e                	mv	a2,a5
    8000871a:	00004597          	auipc	a1,0x4
    8000871e:	fde58593          	addi	a1,a1,-34 # 8000c6f8 <etext+0x6f8>
    80008722:	fe043503          	ld	a0,-32(s0)
    80008726:	ffffe097          	auipc	ra,0xffffe
    8000872a:	82a080e7          	jalr	-2006(ra) # 80005f50 <dirlink>
    8000872e:	87aa                	mv	a5,a0
    80008730:	0207c363          	bltz	a5,80008756 <create+0x1b0>
    80008734:	fe843783          	ld	a5,-24(s0)
    80008738:	43dc                	lw	a5,4(a5)
    8000873a:	863e                	mv	a2,a5
    8000873c:	00004597          	auipc	a1,0x4
    80008740:	fc458593          	addi	a1,a1,-60 # 8000c700 <etext+0x700>
    80008744:	fe043503          	ld	a0,-32(s0)
    80008748:	ffffe097          	auipc	ra,0xffffe
    8000874c:	808080e7          	jalr	-2040(ra) # 80005f50 <dirlink>
    80008750:	87aa                	mv	a5,a0
    80008752:	0007da63          	bgez	a5,80008766 <create+0x1c0>
    80008756:	00004517          	auipc	a0,0x4
    8000875a:	fea50513          	addi	a0,a0,-22 # 8000c740 <etext+0x740>
    8000875e:	ffff8097          	auipc	ra,0xffff8
    80008762:	540080e7          	jalr	1344(ra) # 80000c9e <panic>
    80008766:	fe043783          	ld	a5,-32(s0)
    8000876a:	43d8                	lw	a4,4(a5)
    8000876c:	fd040793          	addi	a5,s0,-48
    80008770:	863a                	mv	a2,a4
    80008772:	85be                	mv	a1,a5
    80008774:	fe843503          	ld	a0,-24(s0)
    80008778:	ffffd097          	auipc	ra,0xffffd
    8000877c:	7d8080e7          	jalr	2008(ra) # 80005f50 <dirlink>
    80008780:	87aa                	mv	a5,a0
    80008782:	0007da63          	bgez	a5,80008796 <create+0x1f0>
    80008786:	00004517          	auipc	a0,0x4
    8000878a:	fca50513          	addi	a0,a0,-54 # 8000c750 <etext+0x750>
    8000878e:	ffff8097          	auipc	ra,0xffff8
    80008792:	510080e7          	jalr	1296(ra) # 80000c9e <panic>
    80008796:	fe843503          	ld	a0,-24(s0)
    8000879a:	ffffd097          	auipc	ra,0xffffd
    8000879e:	02a080e7          	jalr	42(ra) # 800057c4 <iunlockput>
    800087a2:	fe043783          	ld	a5,-32(s0)
    800087a6:	853e                	mv	a0,a5
    800087a8:	70e2                	ld	ra,56(sp)
    800087aa:	7442                	ld	s0,48(sp)
    800087ac:	6121                	addi	sp,sp,64
    800087ae:	8082                	ret

00000000800087b0 <sys_open>:
    800087b0:	7131                	addi	sp,sp,-192
    800087b2:	fd06                	sd	ra,184(sp)
    800087b4:	f922                	sd	s0,176(sp)
    800087b6:	0180                	addi	s0,sp,192
    800087b8:	f5040793          	addi	a5,s0,-176
    800087bc:	08000613          	li	a2,128
    800087c0:	85be                	mv	a1,a5
    800087c2:	4501                	li	a0,0
    800087c4:	ffffc097          	auipc	ra,0xffffc
    800087c8:	e3a080e7          	jalr	-454(ra) # 800045fe <argstr>
    800087cc:	87aa                	mv	a5,a0
    800087ce:	fef42223          	sw	a5,-28(s0)
    800087d2:	fe442783          	lw	a5,-28(s0)
    800087d6:	2781                	sext.w	a5,a5
    800087d8:	0007cd63          	bltz	a5,800087f2 <sys_open+0x42>
    800087dc:	f4c40793          	addi	a5,s0,-180
    800087e0:	85be                	mv	a1,a5
    800087e2:	4505                	li	a0,1
    800087e4:	ffffc097          	auipc	ra,0xffffc
    800087e8:	dae080e7          	jalr	-594(ra) # 80004592 <argint>
    800087ec:	87aa                	mv	a5,a0
    800087ee:	0007d463          	bgez	a5,800087f6 <sys_open+0x46>
    800087f2:	57fd                	li	a5,-1
    800087f4:	aafd                	j	800089f2 <sys_open+0x242>
    800087f6:	ffffe097          	auipc	ra,0xffffe
    800087fa:	dc6080e7          	jalr	-570(ra) # 800065bc <begin_op>
    800087fe:	f4c42783          	lw	a5,-180(s0)
    80008802:	2007f793          	andi	a5,a5,512
    80008806:	2781                	sext.w	a5,a5
    80008808:	c795                	beqz	a5,80008834 <sys_open+0x84>
    8000880a:	f5040793          	addi	a5,s0,-176
    8000880e:	4681                	li	a3,0
    80008810:	4601                	li	a2,0
    80008812:	4589                	li	a1,2
    80008814:	853e                	mv	a0,a5
    80008816:	00000097          	auipc	ra,0x0
    8000881a:	d90080e7          	jalr	-624(ra) # 800085a6 <create>
    8000881e:	fea43423          	sd	a0,-24(s0)
    80008822:	fe843783          	ld	a5,-24(s0)
    80008826:	e7b5                	bnez	a5,80008892 <sys_open+0xe2>
    80008828:	ffffe097          	auipc	ra,0xffffe
    8000882c:	e56080e7          	jalr	-426(ra) # 8000667e <end_op>
    80008830:	57fd                	li	a5,-1
    80008832:	a2c1                	j	800089f2 <sys_open+0x242>
    80008834:	f5040793          	addi	a5,s0,-176
    80008838:	853e                	mv	a0,a5
    8000883a:	ffffe097          	auipc	ra,0xffffe
    8000883e:	a2e080e7          	jalr	-1490(ra) # 80006268 <namei>
    80008842:	fea43423          	sd	a0,-24(s0)
    80008846:	fe843783          	ld	a5,-24(s0)
    8000884a:	e799                	bnez	a5,80008858 <sys_open+0xa8>
    8000884c:	ffffe097          	auipc	ra,0xffffe
    80008850:	e32080e7          	jalr	-462(ra) # 8000667e <end_op>
    80008854:	57fd                	li	a5,-1
    80008856:	aa71                	j	800089f2 <sys_open+0x242>
    80008858:	fe843503          	ld	a0,-24(s0)
    8000885c:	ffffd097          	auipc	ra,0xffffd
    80008860:	d0a080e7          	jalr	-758(ra) # 80005566 <ilock>
    80008864:	fe843783          	ld	a5,-24(s0)
    80008868:	04479783          	lh	a5,68(a5)
    8000886c:	873e                	mv	a4,a5
    8000886e:	4785                	li	a5,1
    80008870:	02f71163          	bne	a4,a5,80008892 <sys_open+0xe2>
    80008874:	f4c42783          	lw	a5,-180(s0)
    80008878:	cf89                	beqz	a5,80008892 <sys_open+0xe2>
    8000887a:	fe843503          	ld	a0,-24(s0)
    8000887e:	ffffd097          	auipc	ra,0xffffd
    80008882:	f46080e7          	jalr	-186(ra) # 800057c4 <iunlockput>
    80008886:	ffffe097          	auipc	ra,0xffffe
    8000888a:	df8080e7          	jalr	-520(ra) # 8000667e <end_op>
    8000888e:	57fd                	li	a5,-1
    80008890:	a28d                	j	800089f2 <sys_open+0x242>
    80008892:	fe843783          	ld	a5,-24(s0)
    80008896:	04479783          	lh	a5,68(a5)
    8000889a:	873e                	mv	a4,a5
    8000889c:	478d                	li	a5,3
    8000889e:	02f71c63          	bne	a4,a5,800088d6 <sys_open+0x126>
    800088a2:	fe843783          	ld	a5,-24(s0)
    800088a6:	04679783          	lh	a5,70(a5)
    800088aa:	0007ca63          	bltz	a5,800088be <sys_open+0x10e>
    800088ae:	fe843783          	ld	a5,-24(s0)
    800088b2:	04679783          	lh	a5,70(a5)
    800088b6:	873e                	mv	a4,a5
    800088b8:	47a5                	li	a5,9
    800088ba:	00e7de63          	bge	a5,a4,800088d6 <sys_open+0x126>
    800088be:	fe843503          	ld	a0,-24(s0)
    800088c2:	ffffd097          	auipc	ra,0xffffd
    800088c6:	f02080e7          	jalr	-254(ra) # 800057c4 <iunlockput>
    800088ca:	ffffe097          	auipc	ra,0xffffe
    800088ce:	db4080e7          	jalr	-588(ra) # 8000667e <end_op>
    800088d2:	57fd                	li	a5,-1
    800088d4:	aa39                	j	800089f2 <sys_open+0x242>
    800088d6:	ffffe097          	auipc	ra,0xffffe
    800088da:	294080e7          	jalr	660(ra) # 80006b6a <filealloc>
    800088de:	fca43c23          	sd	a0,-40(s0)
    800088e2:	fd843783          	ld	a5,-40(s0)
    800088e6:	cf99                	beqz	a5,80008904 <sys_open+0x154>
    800088e8:	fd843503          	ld	a0,-40(s0)
    800088ec:	fffff097          	auipc	ra,0xfffff
    800088f0:	5fc080e7          	jalr	1532(ra) # 80007ee8 <fdalloc>
    800088f4:	87aa                	mv	a5,a0
    800088f6:	fcf42a23          	sw	a5,-44(s0)
    800088fa:	fd442783          	lw	a5,-44(s0)
    800088fe:	2781                	sext.w	a5,a5
    80008900:	0207d763          	bgez	a5,8000892e <sys_open+0x17e>
    80008904:	fd843783          	ld	a5,-40(s0)
    80008908:	c799                	beqz	a5,80008916 <sys_open+0x166>
    8000890a:	fd843503          	ld	a0,-40(s0)
    8000890e:	ffffe097          	auipc	ra,0xffffe
    80008912:	346080e7          	jalr	838(ra) # 80006c54 <fileclose>
    80008916:	fe843503          	ld	a0,-24(s0)
    8000891a:	ffffd097          	auipc	ra,0xffffd
    8000891e:	eaa080e7          	jalr	-342(ra) # 800057c4 <iunlockput>
    80008922:	ffffe097          	auipc	ra,0xffffe
    80008926:	d5c080e7          	jalr	-676(ra) # 8000667e <end_op>
    8000892a:	57fd                	li	a5,-1
    8000892c:	a0d9                	j	800089f2 <sys_open+0x242>
    8000892e:	fe843783          	ld	a5,-24(s0)
    80008932:	04479783          	lh	a5,68(a5)
    80008936:	873e                	mv	a4,a5
    80008938:	478d                	li	a5,3
    8000893a:	00f71f63          	bne	a4,a5,80008958 <sys_open+0x1a8>
    8000893e:	fd843783          	ld	a5,-40(s0)
    80008942:	470d                	li	a4,3
    80008944:	c398                	sw	a4,0(a5)
    80008946:	fe843783          	ld	a5,-24(s0)
    8000894a:	04679703          	lh	a4,70(a5)
    8000894e:	fd843783          	ld	a5,-40(s0)
    80008952:	02e79223          	sh	a4,36(a5)
    80008956:	a809                	j	80008968 <sys_open+0x1b8>
    80008958:	fd843783          	ld	a5,-40(s0)
    8000895c:	4709                	li	a4,2
    8000895e:	c398                	sw	a4,0(a5)
    80008960:	fd843783          	ld	a5,-40(s0)
    80008964:	0207a023          	sw	zero,32(a5)
    80008968:	fd843783          	ld	a5,-40(s0)
    8000896c:	fe843703          	ld	a4,-24(s0)
    80008970:	ef98                	sd	a4,24(a5)
    80008972:	f4c42783          	lw	a5,-180(s0)
    80008976:	8b85                	andi	a5,a5,1
    80008978:	2781                	sext.w	a5,a5
    8000897a:	0017b793          	seqz	a5,a5
    8000897e:	0ff7f793          	zext.b	a5,a5
    80008982:	873e                	mv	a4,a5
    80008984:	fd843783          	ld	a5,-40(s0)
    80008988:	00e78423          	sb	a4,8(a5)
    8000898c:	f4c42783          	lw	a5,-180(s0)
    80008990:	8b85                	andi	a5,a5,1
    80008992:	2781                	sext.w	a5,a5
    80008994:	e791                	bnez	a5,800089a0 <sys_open+0x1f0>
    80008996:	f4c42783          	lw	a5,-180(s0)
    8000899a:	8b89                	andi	a5,a5,2
    8000899c:	2781                	sext.w	a5,a5
    8000899e:	c399                	beqz	a5,800089a4 <sys_open+0x1f4>
    800089a0:	4785                	li	a5,1
    800089a2:	a011                	j	800089a6 <sys_open+0x1f6>
    800089a4:	4781                	li	a5,0
    800089a6:	0ff7f713          	zext.b	a4,a5
    800089aa:	fd843783          	ld	a5,-40(s0)
    800089ae:	00e784a3          	sb	a4,9(a5)
    800089b2:	f4c42783          	lw	a5,-180(s0)
    800089b6:	4007f793          	andi	a5,a5,1024
    800089ba:	2781                	sext.w	a5,a5
    800089bc:	cf99                	beqz	a5,800089da <sys_open+0x22a>
    800089be:	fe843783          	ld	a5,-24(s0)
    800089c2:	04479783          	lh	a5,68(a5)
    800089c6:	873e                	mv	a4,a5
    800089c8:	4789                	li	a5,2
    800089ca:	00f71863          	bne	a4,a5,800089da <sys_open+0x22a>
    800089ce:	fe843503          	ld	a0,-24(s0)
    800089d2:	ffffd097          	auipc	ra,0xffffd
    800089d6:	f7c080e7          	jalr	-132(ra) # 8000594e <itrunc>
    800089da:	fe843503          	ld	a0,-24(s0)
    800089de:	ffffd097          	auipc	ra,0xffffd
    800089e2:	cbc080e7          	jalr	-836(ra) # 8000569a <iunlock>
    800089e6:	ffffe097          	auipc	ra,0xffffe
    800089ea:	c98080e7          	jalr	-872(ra) # 8000667e <end_op>
    800089ee:	fd442783          	lw	a5,-44(s0)
    800089f2:	853e                	mv	a0,a5
    800089f4:	70ea                	ld	ra,184(sp)
    800089f6:	744a                	ld	s0,176(sp)
    800089f8:	6129                	addi	sp,sp,192
    800089fa:	8082                	ret

00000000800089fc <sys_mkdir>:
    800089fc:	7135                	addi	sp,sp,-160
    800089fe:	ed06                	sd	ra,152(sp)
    80008a00:	e922                	sd	s0,144(sp)
    80008a02:	1100                	addi	s0,sp,160
    80008a04:	ffffe097          	auipc	ra,0xffffe
    80008a08:	bb8080e7          	jalr	-1096(ra) # 800065bc <begin_op>
    80008a0c:	f6840793          	addi	a5,s0,-152
    80008a10:	08000613          	li	a2,128
    80008a14:	85be                	mv	a1,a5
    80008a16:	4501                	li	a0,0
    80008a18:	ffffc097          	auipc	ra,0xffffc
    80008a1c:	be6080e7          	jalr	-1050(ra) # 800045fe <argstr>
    80008a20:	87aa                	mv	a5,a0
    80008a22:	0207c163          	bltz	a5,80008a44 <sys_mkdir+0x48>
    80008a26:	f6840793          	addi	a5,s0,-152
    80008a2a:	4681                	li	a3,0
    80008a2c:	4601                	li	a2,0
    80008a2e:	4585                	li	a1,1
    80008a30:	853e                	mv	a0,a5
    80008a32:	00000097          	auipc	ra,0x0
    80008a36:	b74080e7          	jalr	-1164(ra) # 800085a6 <create>
    80008a3a:	fea43423          	sd	a0,-24(s0)
    80008a3e:	fe843783          	ld	a5,-24(s0)
    80008a42:	e799                	bnez	a5,80008a50 <sys_mkdir+0x54>
    80008a44:	ffffe097          	auipc	ra,0xffffe
    80008a48:	c3a080e7          	jalr	-966(ra) # 8000667e <end_op>
    80008a4c:	57fd                	li	a5,-1
    80008a4e:	a821                	j	80008a66 <sys_mkdir+0x6a>
    80008a50:	fe843503          	ld	a0,-24(s0)
    80008a54:	ffffd097          	auipc	ra,0xffffd
    80008a58:	d70080e7          	jalr	-656(ra) # 800057c4 <iunlockput>
    80008a5c:	ffffe097          	auipc	ra,0xffffe
    80008a60:	c22080e7          	jalr	-990(ra) # 8000667e <end_op>
    80008a64:	4781                	li	a5,0
    80008a66:	853e                	mv	a0,a5
    80008a68:	60ea                	ld	ra,152(sp)
    80008a6a:	644a                	ld	s0,144(sp)
    80008a6c:	610d                	addi	sp,sp,160
    80008a6e:	8082                	ret

0000000080008a70 <sys_mknod>:
    80008a70:	7135                	addi	sp,sp,-160
    80008a72:	ed06                	sd	ra,152(sp)
    80008a74:	e922                	sd	s0,144(sp)
    80008a76:	1100                	addi	s0,sp,160
    80008a78:	ffffe097          	auipc	ra,0xffffe
    80008a7c:	b44080e7          	jalr	-1212(ra) # 800065bc <begin_op>
    80008a80:	f6840793          	addi	a5,s0,-152
    80008a84:	08000613          	li	a2,128
    80008a88:	85be                	mv	a1,a5
    80008a8a:	4501                	li	a0,0
    80008a8c:	ffffc097          	auipc	ra,0xffffc
    80008a90:	b72080e7          	jalr	-1166(ra) # 800045fe <argstr>
    80008a94:	87aa                	mv	a5,a0
    80008a96:	0607c263          	bltz	a5,80008afa <sys_mknod+0x8a>
    80008a9a:	f6440793          	addi	a5,s0,-156
    80008a9e:	85be                	mv	a1,a5
    80008aa0:	4505                	li	a0,1
    80008aa2:	ffffc097          	auipc	ra,0xffffc
    80008aa6:	af0080e7          	jalr	-1296(ra) # 80004592 <argint>
    80008aaa:	87aa                	mv	a5,a0
    80008aac:	0407c763          	bltz	a5,80008afa <sys_mknod+0x8a>
    80008ab0:	f6040793          	addi	a5,s0,-160
    80008ab4:	85be                	mv	a1,a5
    80008ab6:	4509                	li	a0,2
    80008ab8:	ffffc097          	auipc	ra,0xffffc
    80008abc:	ada080e7          	jalr	-1318(ra) # 80004592 <argint>
    80008ac0:	87aa                	mv	a5,a0
    80008ac2:	0207cc63          	bltz	a5,80008afa <sys_mknod+0x8a>
    80008ac6:	f6442783          	lw	a5,-156(s0)
    80008aca:	0107971b          	slliw	a4,a5,0x10
    80008ace:	4107571b          	sraiw	a4,a4,0x10
    80008ad2:	f6042783          	lw	a5,-160(s0)
    80008ad6:	0107969b          	slliw	a3,a5,0x10
    80008ada:	4106d69b          	sraiw	a3,a3,0x10
    80008ade:	f6840793          	addi	a5,s0,-152
    80008ae2:	863a                	mv	a2,a4
    80008ae4:	458d                	li	a1,3
    80008ae6:	853e                	mv	a0,a5
    80008ae8:	00000097          	auipc	ra,0x0
    80008aec:	abe080e7          	jalr	-1346(ra) # 800085a6 <create>
    80008af0:	fea43423          	sd	a0,-24(s0)
    80008af4:	fe843783          	ld	a5,-24(s0)
    80008af8:	e799                	bnez	a5,80008b06 <sys_mknod+0x96>
    80008afa:	ffffe097          	auipc	ra,0xffffe
    80008afe:	b84080e7          	jalr	-1148(ra) # 8000667e <end_op>
    80008b02:	57fd                	li	a5,-1
    80008b04:	a821                	j	80008b1c <sys_mknod+0xac>
    80008b06:	fe843503          	ld	a0,-24(s0)
    80008b0a:	ffffd097          	auipc	ra,0xffffd
    80008b0e:	cba080e7          	jalr	-838(ra) # 800057c4 <iunlockput>
    80008b12:	ffffe097          	auipc	ra,0xffffe
    80008b16:	b6c080e7          	jalr	-1172(ra) # 8000667e <end_op>
    80008b1a:	4781                	li	a5,0
    80008b1c:	853e                	mv	a0,a5
    80008b1e:	60ea                	ld	ra,152(sp)
    80008b20:	644a                	ld	s0,144(sp)
    80008b22:	610d                	addi	sp,sp,160
    80008b24:	8082                	ret

0000000080008b26 <sys_chdir>:
    80008b26:	7135                	addi	sp,sp,-160
    80008b28:	ed06                	sd	ra,152(sp)
    80008b2a:	e922                	sd	s0,144(sp)
    80008b2c:	1100                	addi	s0,sp,160
    80008b2e:	ffffa097          	auipc	ra,0xffffa
    80008b32:	e24080e7          	jalr	-476(ra) # 80002952 <myproc>
    80008b36:	fea43423          	sd	a0,-24(s0)
    80008b3a:	ffffe097          	auipc	ra,0xffffe
    80008b3e:	a82080e7          	jalr	-1406(ra) # 800065bc <begin_op>
    80008b42:	f6040793          	addi	a5,s0,-160
    80008b46:	08000613          	li	a2,128
    80008b4a:	85be                	mv	a1,a5
    80008b4c:	4501                	li	a0,0
    80008b4e:	ffffc097          	auipc	ra,0xffffc
    80008b52:	ab0080e7          	jalr	-1360(ra) # 800045fe <argstr>
    80008b56:	87aa                	mv	a5,a0
    80008b58:	0007ce63          	bltz	a5,80008b74 <sys_chdir+0x4e>
    80008b5c:	f6040793          	addi	a5,s0,-160
    80008b60:	853e                	mv	a0,a5
    80008b62:	ffffd097          	auipc	ra,0xffffd
    80008b66:	706080e7          	jalr	1798(ra) # 80006268 <namei>
    80008b6a:	fea43023          	sd	a0,-32(s0)
    80008b6e:	fe043783          	ld	a5,-32(s0)
    80008b72:	e799                	bnez	a5,80008b80 <sys_chdir+0x5a>
    80008b74:	ffffe097          	auipc	ra,0xffffe
    80008b78:	b0a080e7          	jalr	-1270(ra) # 8000667e <end_op>
    80008b7c:	57fd                	li	a5,-1
    80008b7e:	a0ad                	j	80008be8 <sys_chdir+0xc2>
    80008b80:	fe043503          	ld	a0,-32(s0)
    80008b84:	ffffd097          	auipc	ra,0xffffd
    80008b88:	9e2080e7          	jalr	-1566(ra) # 80005566 <ilock>
    80008b8c:	fe043783          	ld	a5,-32(s0)
    80008b90:	04479783          	lh	a5,68(a5)
    80008b94:	873e                	mv	a4,a5
    80008b96:	4785                	li	a5,1
    80008b98:	00f70e63          	beq	a4,a5,80008bb4 <sys_chdir+0x8e>
    80008b9c:	fe043503          	ld	a0,-32(s0)
    80008ba0:	ffffd097          	auipc	ra,0xffffd
    80008ba4:	c24080e7          	jalr	-988(ra) # 800057c4 <iunlockput>
    80008ba8:	ffffe097          	auipc	ra,0xffffe
    80008bac:	ad6080e7          	jalr	-1322(ra) # 8000667e <end_op>
    80008bb0:	57fd                	li	a5,-1
    80008bb2:	a81d                	j	80008be8 <sys_chdir+0xc2>
    80008bb4:	fe043503          	ld	a0,-32(s0)
    80008bb8:	ffffd097          	auipc	ra,0xffffd
    80008bbc:	ae2080e7          	jalr	-1310(ra) # 8000569a <iunlock>
    80008bc0:	fe843783          	ld	a5,-24(s0)
    80008bc4:	1507b783          	ld	a5,336(a5)
    80008bc8:	853e                	mv	a0,a5
    80008bca:	ffffd097          	auipc	ra,0xffffd
    80008bce:	b2a080e7          	jalr	-1238(ra) # 800056f4 <iput>
    80008bd2:	ffffe097          	auipc	ra,0xffffe
    80008bd6:	aac080e7          	jalr	-1364(ra) # 8000667e <end_op>
    80008bda:	fe843783          	ld	a5,-24(s0)
    80008bde:	fe043703          	ld	a4,-32(s0)
    80008be2:	14e7b823          	sd	a4,336(a5)
    80008be6:	4781                	li	a5,0
    80008be8:	853e                	mv	a0,a5
    80008bea:	60ea                	ld	ra,152(sp)
    80008bec:	644a                	ld	s0,144(sp)
    80008bee:	610d                	addi	sp,sp,160
    80008bf0:	8082                	ret

0000000080008bf2 <sys_exec>:
    80008bf2:	7161                	addi	sp,sp,-432
    80008bf4:	f706                	sd	ra,424(sp)
    80008bf6:	f322                	sd	s0,416(sp)
    80008bf8:	1b00                	addi	s0,sp,432
    80008bfa:	f6840793          	addi	a5,s0,-152
    80008bfe:	08000613          	li	a2,128
    80008c02:	85be                	mv	a1,a5
    80008c04:	4501                	li	a0,0
    80008c06:	ffffc097          	auipc	ra,0xffffc
    80008c0a:	9f8080e7          	jalr	-1544(ra) # 800045fe <argstr>
    80008c0e:	87aa                	mv	a5,a0
    80008c10:	0007cd63          	bltz	a5,80008c2a <sys_exec+0x38>
    80008c14:	e6040793          	addi	a5,s0,-416
    80008c18:	85be                	mv	a1,a5
    80008c1a:	4505                	li	a0,1
    80008c1c:	ffffc097          	auipc	ra,0xffffc
    80008c20:	9ae080e7          	jalr	-1618(ra) # 800045ca <argaddr>
    80008c24:	87aa                	mv	a5,a0
    80008c26:	0007d463          	bgez	a5,80008c2e <sys_exec+0x3c>
    80008c2a:	57fd                	li	a5,-1
    80008c2c:	aa8d                	j	80008d9e <sys_exec+0x1ac>
    80008c2e:	e6840793          	addi	a5,s0,-408
    80008c32:	10000613          	li	a2,256
    80008c36:	4581                	li	a1,0
    80008c38:	853e                	mv	a0,a5
    80008c3a:	ffff9097          	auipc	ra,0xffff9
    80008c3e:	86c080e7          	jalr	-1940(ra) # 800014a6 <memset>
    80008c42:	fe042623          	sw	zero,-20(s0)
    80008c46:	fec42783          	lw	a5,-20(s0)
    80008c4a:	873e                	mv	a4,a5
    80008c4c:	47fd                	li	a5,31
    80008c4e:	0ee7ee63          	bltu	a5,a4,80008d4a <sys_exec+0x158>
    80008c52:	fec42783          	lw	a5,-20(s0)
    80008c56:	00379713          	slli	a4,a5,0x3
    80008c5a:	e6043783          	ld	a5,-416(s0)
    80008c5e:	97ba                	add	a5,a5,a4
    80008c60:	e5840713          	addi	a4,s0,-424
    80008c64:	85ba                	mv	a1,a4
    80008c66:	853e                	mv	a0,a5
    80008c68:	ffffb097          	auipc	ra,0xffffb
    80008c6c:	7ac080e7          	jalr	1964(ra) # 80004414 <fetchaddr>
    80008c70:	87aa                	mv	a5,a0
    80008c72:	0c07ce63          	bltz	a5,80008d4e <sys_exec+0x15c>
    80008c76:	e5843783          	ld	a5,-424(s0)
    80008c7a:	eb8d                	bnez	a5,80008cac <sys_exec+0xba>
    80008c7c:	fec42783          	lw	a5,-20(s0)
    80008c80:	078e                	slli	a5,a5,0x3
    80008c82:	17c1                	addi	a5,a5,-16
    80008c84:	97a2                	add	a5,a5,s0
    80008c86:	e607bc23          	sd	zero,-392(a5)
    80008c8a:	0001                	nop
    80008c8c:	e6840713          	addi	a4,s0,-408
    80008c90:	f6840793          	addi	a5,s0,-152
    80008c94:	85ba                	mv	a1,a4
    80008c96:	853e                	mv	a0,a5
    80008c98:	fffff097          	auipc	ra,0xfffff
    80008c9c:	c14080e7          	jalr	-1004(ra) # 800078ac <exec>
    80008ca0:	87aa                	mv	a5,a0
    80008ca2:	fef42423          	sw	a5,-24(s0)
    80008ca6:	fe042623          	sw	zero,-20(s0)
    80008caa:	a8bd                	j	80008d28 <sys_exec+0x136>
    80008cac:	ffff8097          	auipc	ra,0xffff8
    80008cb0:	4d2080e7          	jalr	1234(ra) # 8000117e <kalloc>
    80008cb4:	872a                	mv	a4,a0
    80008cb6:	fec42783          	lw	a5,-20(s0)
    80008cba:	078e                	slli	a5,a5,0x3
    80008cbc:	17c1                	addi	a5,a5,-16
    80008cbe:	97a2                	add	a5,a5,s0
    80008cc0:	e6e7bc23          	sd	a4,-392(a5)
    80008cc4:	fec42783          	lw	a5,-20(s0)
    80008cc8:	078e                	slli	a5,a5,0x3
    80008cca:	17c1                	addi	a5,a5,-16
    80008ccc:	97a2                	add	a5,a5,s0
    80008cce:	e787b783          	ld	a5,-392(a5)
    80008cd2:	c3c1                	beqz	a5,80008d52 <sys_exec+0x160>
    80008cd4:	e5843703          	ld	a4,-424(s0)
    80008cd8:	fec42783          	lw	a5,-20(s0)
    80008cdc:	078e                	slli	a5,a5,0x3
    80008cde:	17c1                	addi	a5,a5,-16
    80008ce0:	97a2                	add	a5,a5,s0
    80008ce2:	e787b783          	ld	a5,-392(a5)
    80008ce6:	6605                	lui	a2,0x1
    80008ce8:	85be                	mv	a1,a5
    80008cea:	853a                	mv	a0,a4
    80008cec:	ffffb097          	auipc	ra,0xffffb
    80008cf0:	796080e7          	jalr	1942(ra) # 80004482 <fetchstr>
    80008cf4:	87aa                	mv	a5,a0
    80008cf6:	0607c063          	bltz	a5,80008d56 <sys_exec+0x164>
    80008cfa:	fec42783          	lw	a5,-20(s0)
    80008cfe:	2785                	addiw	a5,a5,1
    80008d00:	fef42623          	sw	a5,-20(s0)
    80008d04:	b789                	j	80008c46 <sys_exec+0x54>
    80008d06:	fec42783          	lw	a5,-20(s0)
    80008d0a:	078e                	slli	a5,a5,0x3
    80008d0c:	17c1                	addi	a5,a5,-16
    80008d0e:	97a2                	add	a5,a5,s0
    80008d10:	e787b783          	ld	a5,-392(a5)
    80008d14:	853e                	mv	a0,a5
    80008d16:	ffff8097          	auipc	ra,0xffff8
    80008d1a:	3c4080e7          	jalr	964(ra) # 800010da <kfree>
    80008d1e:	fec42783          	lw	a5,-20(s0)
    80008d22:	2785                	addiw	a5,a5,1
    80008d24:	fef42623          	sw	a5,-20(s0)
    80008d28:	fec42783          	lw	a5,-20(s0)
    80008d2c:	873e                	mv	a4,a5
    80008d2e:	47fd                	li	a5,31
    80008d30:	00e7ea63          	bltu	a5,a4,80008d44 <sys_exec+0x152>
    80008d34:	fec42783          	lw	a5,-20(s0)
    80008d38:	078e                	slli	a5,a5,0x3
    80008d3a:	17c1                	addi	a5,a5,-16
    80008d3c:	97a2                	add	a5,a5,s0
    80008d3e:	e787b783          	ld	a5,-392(a5)
    80008d42:	f3f1                	bnez	a5,80008d06 <sys_exec+0x114>
    80008d44:	fe842783          	lw	a5,-24(s0)
    80008d48:	a899                	j	80008d9e <sys_exec+0x1ac>
    80008d4a:	0001                	nop
    80008d4c:	a031                	j	80008d58 <sys_exec+0x166>
    80008d4e:	0001                	nop
    80008d50:	a021                	j	80008d58 <sys_exec+0x166>
    80008d52:	0001                	nop
    80008d54:	a011                	j	80008d58 <sys_exec+0x166>
    80008d56:	0001                	nop
    80008d58:	fe042623          	sw	zero,-20(s0)
    80008d5c:	a015                	j	80008d80 <sys_exec+0x18e>
    80008d5e:	fec42783          	lw	a5,-20(s0)
    80008d62:	078e                	slli	a5,a5,0x3
    80008d64:	17c1                	addi	a5,a5,-16
    80008d66:	97a2                	add	a5,a5,s0
    80008d68:	e787b783          	ld	a5,-392(a5)
    80008d6c:	853e                	mv	a0,a5
    80008d6e:	ffff8097          	auipc	ra,0xffff8
    80008d72:	36c080e7          	jalr	876(ra) # 800010da <kfree>
    80008d76:	fec42783          	lw	a5,-20(s0)
    80008d7a:	2785                	addiw	a5,a5,1
    80008d7c:	fef42623          	sw	a5,-20(s0)
    80008d80:	fec42783          	lw	a5,-20(s0)
    80008d84:	873e                	mv	a4,a5
    80008d86:	47fd                	li	a5,31
    80008d88:	00e7ea63          	bltu	a5,a4,80008d9c <sys_exec+0x1aa>
    80008d8c:	fec42783          	lw	a5,-20(s0)
    80008d90:	078e                	slli	a5,a5,0x3
    80008d92:	17c1                	addi	a5,a5,-16
    80008d94:	97a2                	add	a5,a5,s0
    80008d96:	e787b783          	ld	a5,-392(a5)
    80008d9a:	f3f1                	bnez	a5,80008d5e <sys_exec+0x16c>
    80008d9c:	57fd                	li	a5,-1
    80008d9e:	853e                	mv	a0,a5
    80008da0:	70ba                	ld	ra,424(sp)
    80008da2:	741a                	ld	s0,416(sp)
    80008da4:	615d                	addi	sp,sp,432
    80008da6:	8082                	ret

0000000080008da8 <sys_pipe>:
    80008da8:	7139                	addi	sp,sp,-64
    80008daa:	fc06                	sd	ra,56(sp)
    80008dac:	f822                	sd	s0,48(sp)
    80008dae:	0080                	addi	s0,sp,64
    80008db0:	ffffa097          	auipc	ra,0xffffa
    80008db4:	ba2080e7          	jalr	-1118(ra) # 80002952 <myproc>
    80008db8:	fea43423          	sd	a0,-24(s0)
    80008dbc:	fe040793          	addi	a5,s0,-32
    80008dc0:	85be                	mv	a1,a5
    80008dc2:	4501                	li	a0,0
    80008dc4:	ffffc097          	auipc	ra,0xffffc
    80008dc8:	806080e7          	jalr	-2042(ra) # 800045ca <argaddr>
    80008dcc:	87aa                	mv	a5,a0
    80008dce:	0007d463          	bgez	a5,80008dd6 <sys_pipe+0x2e>
    80008dd2:	57fd                	li	a5,-1
    80008dd4:	a215                	j	80008ef8 <sys_pipe+0x150>
    80008dd6:	fd040713          	addi	a4,s0,-48
    80008dda:	fd840793          	addi	a5,s0,-40
    80008dde:	85ba                	mv	a1,a4
    80008de0:	853e                	mv	a0,a5
    80008de2:	ffffe097          	auipc	ra,0xffffe
    80008de6:	39e080e7          	jalr	926(ra) # 80007180 <pipealloc>
    80008dea:	87aa                	mv	a5,a0
    80008dec:	0007d463          	bgez	a5,80008df4 <sys_pipe+0x4c>
    80008df0:	57fd                	li	a5,-1
    80008df2:	a219                	j	80008ef8 <sys_pipe+0x150>
    80008df4:	57fd                	li	a5,-1
    80008df6:	fcf42623          	sw	a5,-52(s0)
    80008dfa:	fd843783          	ld	a5,-40(s0)
    80008dfe:	853e                	mv	a0,a5
    80008e00:	fffff097          	auipc	ra,0xfffff
    80008e04:	0e8080e7          	jalr	232(ra) # 80007ee8 <fdalloc>
    80008e08:	87aa                	mv	a5,a0
    80008e0a:	fcf42623          	sw	a5,-52(s0)
    80008e0e:	fcc42783          	lw	a5,-52(s0)
    80008e12:	0207c063          	bltz	a5,80008e32 <sys_pipe+0x8a>
    80008e16:	fd043783          	ld	a5,-48(s0)
    80008e1a:	853e                	mv	a0,a5
    80008e1c:	fffff097          	auipc	ra,0xfffff
    80008e20:	0cc080e7          	jalr	204(ra) # 80007ee8 <fdalloc>
    80008e24:	87aa                	mv	a5,a0
    80008e26:	fcf42423          	sw	a5,-56(s0)
    80008e2a:	fc842783          	lw	a5,-56(s0)
    80008e2e:	0207df63          	bgez	a5,80008e6c <sys_pipe+0xc4>
    80008e32:	fcc42783          	lw	a5,-52(s0)
    80008e36:	0007cb63          	bltz	a5,80008e4c <sys_pipe+0xa4>
    80008e3a:	fcc42783          	lw	a5,-52(s0)
    80008e3e:	fe843703          	ld	a4,-24(s0)
    80008e42:	07e9                	addi	a5,a5,26
    80008e44:	078e                	slli	a5,a5,0x3
    80008e46:	97ba                	add	a5,a5,a4
    80008e48:	0007b023          	sd	zero,0(a5)
    80008e4c:	fd843783          	ld	a5,-40(s0)
    80008e50:	853e                	mv	a0,a5
    80008e52:	ffffe097          	auipc	ra,0xffffe
    80008e56:	e02080e7          	jalr	-510(ra) # 80006c54 <fileclose>
    80008e5a:	fd043783          	ld	a5,-48(s0)
    80008e5e:	853e                	mv	a0,a5
    80008e60:	ffffe097          	auipc	ra,0xffffe
    80008e64:	df4080e7          	jalr	-524(ra) # 80006c54 <fileclose>
    80008e68:	57fd                	li	a5,-1
    80008e6a:	a079                	j	80008ef8 <sys_pipe+0x150>
    80008e6c:	fe843783          	ld	a5,-24(s0)
    80008e70:	6bbc                	ld	a5,80(a5)
    80008e72:	fe043703          	ld	a4,-32(s0)
    80008e76:	fcc40613          	addi	a2,s0,-52
    80008e7a:	4691                	li	a3,4
    80008e7c:	85ba                	mv	a1,a4
    80008e7e:	853e                	mv	a0,a5
    80008e80:	ffff9097          	auipc	ra,0xffff9
    80008e84:	5e8080e7          	jalr	1512(ra) # 80002468 <copyout>
    80008e88:	87aa                	mv	a5,a0
    80008e8a:	0207c463          	bltz	a5,80008eb2 <sys_pipe+0x10a>
    80008e8e:	fe843783          	ld	a5,-24(s0)
    80008e92:	6bb8                	ld	a4,80(a5)
    80008e94:	fe043783          	ld	a5,-32(s0)
    80008e98:	0791                	addi	a5,a5,4
    80008e9a:	fc840613          	addi	a2,s0,-56
    80008e9e:	4691                	li	a3,4
    80008ea0:	85be                	mv	a1,a5
    80008ea2:	853a                	mv	a0,a4
    80008ea4:	ffff9097          	auipc	ra,0xffff9
    80008ea8:	5c4080e7          	jalr	1476(ra) # 80002468 <copyout>
    80008eac:	87aa                	mv	a5,a0
    80008eae:	0407d463          	bgez	a5,80008ef6 <sys_pipe+0x14e>
    80008eb2:	fcc42783          	lw	a5,-52(s0)
    80008eb6:	fe843703          	ld	a4,-24(s0)
    80008eba:	07e9                	addi	a5,a5,26
    80008ebc:	078e                	slli	a5,a5,0x3
    80008ebe:	97ba                	add	a5,a5,a4
    80008ec0:	0007b023          	sd	zero,0(a5)
    80008ec4:	fc842783          	lw	a5,-56(s0)
    80008ec8:	fe843703          	ld	a4,-24(s0)
    80008ecc:	07e9                	addi	a5,a5,26
    80008ece:	078e                	slli	a5,a5,0x3
    80008ed0:	97ba                	add	a5,a5,a4
    80008ed2:	0007b023          	sd	zero,0(a5)
    80008ed6:	fd843783          	ld	a5,-40(s0)
    80008eda:	853e                	mv	a0,a5
    80008edc:	ffffe097          	auipc	ra,0xffffe
    80008ee0:	d78080e7          	jalr	-648(ra) # 80006c54 <fileclose>
    80008ee4:	fd043783          	ld	a5,-48(s0)
    80008ee8:	853e                	mv	a0,a5
    80008eea:	ffffe097          	auipc	ra,0xffffe
    80008eee:	d6a080e7          	jalr	-662(ra) # 80006c54 <fileclose>
    80008ef2:	57fd                	li	a5,-1
    80008ef4:	a011                	j	80008ef8 <sys_pipe+0x150>
    80008ef6:	4781                	li	a5,0
    80008ef8:	853e                	mv	a0,a5
    80008efa:	70e2                	ld	ra,56(sp)
    80008efc:	7442                	ld	s0,48(sp)
    80008efe:	6121                	addi	sp,sp,64
    80008f00:	8082                	ret
	...

0000000080008f10 <kernelvec>:
    80008f10:	7111                	addi	sp,sp,-256
    80008f12:	e006                	sd	ra,0(sp)
    80008f14:	e40a                	sd	sp,8(sp)
    80008f16:	e80e                	sd	gp,16(sp)
    80008f18:	ec12                	sd	tp,24(sp)
    80008f1a:	f016                	sd	t0,32(sp)
    80008f1c:	f41a                	sd	t1,40(sp)
    80008f1e:	f81e                	sd	t2,48(sp)
    80008f20:	fc22                	sd	s0,56(sp)
    80008f22:	e0a6                	sd	s1,64(sp)
    80008f24:	e4aa                	sd	a0,72(sp)
    80008f26:	e8ae                	sd	a1,80(sp)
    80008f28:	ecb2                	sd	a2,88(sp)
    80008f2a:	f0b6                	sd	a3,96(sp)
    80008f2c:	f4ba                	sd	a4,104(sp)
    80008f2e:	f8be                	sd	a5,112(sp)
    80008f30:	fcc2                	sd	a6,120(sp)
    80008f32:	e146                	sd	a7,128(sp)
    80008f34:	e54a                	sd	s2,136(sp)
    80008f36:	e94e                	sd	s3,144(sp)
    80008f38:	ed52                	sd	s4,152(sp)
    80008f3a:	f156                	sd	s5,160(sp)
    80008f3c:	f55a                	sd	s6,168(sp)
    80008f3e:	f95e                	sd	s7,176(sp)
    80008f40:	fd62                	sd	s8,184(sp)
    80008f42:	e1e6                	sd	s9,192(sp)
    80008f44:	e5ea                	sd	s10,200(sp)
    80008f46:	e9ee                	sd	s11,208(sp)
    80008f48:	edf2                	sd	t3,216(sp)
    80008f4a:	f1f6                	sd	t4,224(sp)
    80008f4c:	f5fa                	sd	t5,232(sp)
    80008f4e:	f9fe                	sd	t6,240(sp)
    80008f50:	a5cfb0ef          	jal	800041ac <kerneltrap>
    80008f54:	6082                	ld	ra,0(sp)
    80008f56:	6122                	ld	sp,8(sp)
    80008f58:	61c2                	ld	gp,16(sp)
    80008f5a:	7282                	ld	t0,32(sp)
    80008f5c:	7322                	ld	t1,40(sp)
    80008f5e:	73c2                	ld	t2,48(sp)
    80008f60:	7462                	ld	s0,56(sp)
    80008f62:	6486                	ld	s1,64(sp)
    80008f64:	6526                	ld	a0,72(sp)
    80008f66:	65c6                	ld	a1,80(sp)
    80008f68:	6666                	ld	a2,88(sp)
    80008f6a:	7686                	ld	a3,96(sp)
    80008f6c:	7726                	ld	a4,104(sp)
    80008f6e:	77c6                	ld	a5,112(sp)
    80008f70:	7866                	ld	a6,120(sp)
    80008f72:	688a                	ld	a7,128(sp)
    80008f74:	692a                	ld	s2,136(sp)
    80008f76:	69ca                	ld	s3,144(sp)
    80008f78:	6a6a                	ld	s4,152(sp)
    80008f7a:	7a8a                	ld	s5,160(sp)
    80008f7c:	7b2a                	ld	s6,168(sp)
    80008f7e:	7bca                	ld	s7,176(sp)
    80008f80:	7c6a                	ld	s8,184(sp)
    80008f82:	6c8e                	ld	s9,192(sp)
    80008f84:	6d2e                	ld	s10,200(sp)
    80008f86:	6dce                	ld	s11,208(sp)
    80008f88:	6e6e                	ld	t3,216(sp)
    80008f8a:	7e8e                	ld	t4,224(sp)
    80008f8c:	7f2e                	ld	t5,232(sp)
    80008f8e:	7fce                	ld	t6,240(sp)
    80008f90:	6111                	addi	sp,sp,256
    80008f92:	10200073          	sret
    80008f96:	00000013          	nop
    80008f9a:	00000013          	nop
    80008f9e:	0001                	nop

0000000080008fa0 <timervec>:
    80008fa0:	34051573          	csrrw	a0,mscratch,a0
    80008fa4:	e10c                	sd	a1,0(a0)
    80008fa6:	e510                	sd	a2,8(a0)
    80008fa8:	e914                	sd	a3,16(a0)
    80008faa:	710c                	ld	a1,32(a0)
    80008fac:	7510                	ld	a2,40(a0)
    80008fae:	6194                	ld	a3,0(a1)
    80008fb0:	96b2                	add	a3,a3,a2
    80008fb2:	e194                	sd	a3,0(a1)
    80008fb4:	4589                	li	a1,2
    80008fb6:	14459073          	csrw	sip,a1
    80008fba:	6914                	ld	a3,16(a0)
    80008fbc:	6510                	ld	a2,8(a0)
    80008fbe:	610c                	ld	a1,0(a0)
    80008fc0:	34051573          	csrrw	a0,mscratch,a0
    80008fc4:	30200073          	mret
	...

0000000080008fca <plicinit>:
    80008fca:	1141                	addi	sp,sp,-16
    80008fcc:	e422                	sd	s0,8(sp)
    80008fce:	0800                	addi	s0,sp,16
    80008fd0:	0c0007b7          	lui	a5,0xc000
    80008fd4:	02878793          	addi	a5,a5,40 # c000028 <_entry-0x73ffffd8>
    80008fd8:	4705                	li	a4,1
    80008fda:	c398                	sw	a4,0(a5)
    80008fdc:	0c0007b7          	lui	a5,0xc000
    80008fe0:	0791                	addi	a5,a5,4 # c000004 <_entry-0x73fffffc>
    80008fe2:	4705                	li	a4,1
    80008fe4:	c398                	sw	a4,0(a5)
    80008fe6:	0001                	nop
    80008fe8:	6422                	ld	s0,8(sp)
    80008fea:	0141                	addi	sp,sp,16
    80008fec:	8082                	ret

0000000080008fee <plicinithart>:
    80008fee:	1101                	addi	sp,sp,-32
    80008ff0:	ec06                	sd	ra,24(sp)
    80008ff2:	e822                	sd	s0,16(sp)
    80008ff4:	1000                	addi	s0,sp,32
    80008ff6:	ffffa097          	auipc	ra,0xffffa
    80008ffa:	8fe080e7          	jalr	-1794(ra) # 800028f4 <cpuid>
    80008ffe:	87aa                	mv	a5,a0
    80009000:	fef42623          	sw	a5,-20(s0)
    80009004:	fec42783          	lw	a5,-20(s0)
    80009008:	0087979b          	slliw	a5,a5,0x8
    8000900c:	2781                	sext.w	a5,a5
    8000900e:	873e                	mv	a4,a5
    80009010:	0c0027b7          	lui	a5,0xc002
    80009014:	08078793          	addi	a5,a5,128 # c002080 <_entry-0x73ffdf80>
    80009018:	97ba                	add	a5,a5,a4
    8000901a:	873e                	mv	a4,a5
    8000901c:	40200793          	li	a5,1026
    80009020:	c31c                	sw	a5,0(a4)
    80009022:	fec42783          	lw	a5,-20(s0)
    80009026:	00d7979b          	slliw	a5,a5,0xd
    8000902a:	2781                	sext.w	a5,a5
    8000902c:	873e                	mv	a4,a5
    8000902e:	0c2017b7          	lui	a5,0xc201
    80009032:	97ba                	add	a5,a5,a4
    80009034:	0007a023          	sw	zero,0(a5) # c201000 <_entry-0x73dff000>
    80009038:	0001                	nop
    8000903a:	60e2                	ld	ra,24(sp)
    8000903c:	6442                	ld	s0,16(sp)
    8000903e:	6105                	addi	sp,sp,32
    80009040:	8082                	ret

0000000080009042 <plic_claim>:
    80009042:	1101                	addi	sp,sp,-32
    80009044:	ec06                	sd	ra,24(sp)
    80009046:	e822                	sd	s0,16(sp)
    80009048:	1000                	addi	s0,sp,32
    8000904a:	ffffa097          	auipc	ra,0xffffa
    8000904e:	8aa080e7          	jalr	-1878(ra) # 800028f4 <cpuid>
    80009052:	87aa                	mv	a5,a0
    80009054:	fef42623          	sw	a5,-20(s0)
    80009058:	fec42783          	lw	a5,-20(s0)
    8000905c:	00d7979b          	slliw	a5,a5,0xd
    80009060:	2781                	sext.w	a5,a5
    80009062:	873e                	mv	a4,a5
    80009064:	0c2017b7          	lui	a5,0xc201
    80009068:	0791                	addi	a5,a5,4 # c201004 <_entry-0x73dfeffc>
    8000906a:	97ba                	add	a5,a5,a4
    8000906c:	439c                	lw	a5,0(a5)
    8000906e:	fef42423          	sw	a5,-24(s0)
    80009072:	fe842783          	lw	a5,-24(s0)
    80009076:	853e                	mv	a0,a5
    80009078:	60e2                	ld	ra,24(sp)
    8000907a:	6442                	ld	s0,16(sp)
    8000907c:	6105                	addi	sp,sp,32
    8000907e:	8082                	ret

0000000080009080 <plic_complete>:
    80009080:	7179                	addi	sp,sp,-48
    80009082:	f406                	sd	ra,40(sp)
    80009084:	f022                	sd	s0,32(sp)
    80009086:	1800                	addi	s0,sp,48
    80009088:	87aa                	mv	a5,a0
    8000908a:	fcf42e23          	sw	a5,-36(s0)
    8000908e:	ffffa097          	auipc	ra,0xffffa
    80009092:	866080e7          	jalr	-1946(ra) # 800028f4 <cpuid>
    80009096:	87aa                	mv	a5,a0
    80009098:	fef42623          	sw	a5,-20(s0)
    8000909c:	fec42783          	lw	a5,-20(s0)
    800090a0:	00d7979b          	slliw	a5,a5,0xd
    800090a4:	2781                	sext.w	a5,a5
    800090a6:	873e                	mv	a4,a5
    800090a8:	0c2017b7          	lui	a5,0xc201
    800090ac:	0791                	addi	a5,a5,4 # c201004 <_entry-0x73dfeffc>
    800090ae:	97ba                	add	a5,a5,a4
    800090b0:	873e                	mv	a4,a5
    800090b2:	fdc42783          	lw	a5,-36(s0)
    800090b6:	c31c                	sw	a5,0(a4)
    800090b8:	0001                	nop
    800090ba:	70a2                	ld	ra,40(sp)
    800090bc:	7402                	ld	s0,32(sp)
    800090be:	6145                	addi	sp,sp,48
    800090c0:	8082                	ret

00000000800090c2 <virtio_disk_init>:
    800090c2:	7179                	addi	sp,sp,-48
    800090c4:	f406                	sd	ra,40(sp)
    800090c6:	f022                	sd	s0,32(sp)
    800090c8:	1800                	addi	s0,sp,48
    800090ca:	fe042423          	sw	zero,-24(s0)
    800090ce:	00003597          	auipc	a1,0x3
    800090d2:	69258593          	addi	a1,a1,1682 # 8000c760 <etext+0x760>
    800090d6:	00020517          	auipc	a0,0x20
    800090da:	fd250513          	addi	a0,a0,-46 # 800290a8 <disk+0x20a8>
    800090de:	ffff8097          	auipc	ra,0xffff8
    800090e2:	1c4080e7          	jalr	452(ra) # 800012a2 <initlock>
    800090e6:	100017b7          	lui	a5,0x10001
    800090ea:	439c                	lw	a5,0(a5)
    800090ec:	2781                	sext.w	a5,a5
    800090ee:	873e                	mv	a4,a5
    800090f0:	747277b7          	lui	a5,0x74727
    800090f4:	97678793          	addi	a5,a5,-1674 # 74726976 <_entry-0xb8d968a>
    800090f8:	04f71063          	bne	a4,a5,80009138 <virtio_disk_init+0x76>
    800090fc:	100017b7          	lui	a5,0x10001
    80009100:	0791                	addi	a5,a5,4 # 10001004 <_entry-0x6fffeffc>
    80009102:	439c                	lw	a5,0(a5)
    80009104:	2781                	sext.w	a5,a5
    80009106:	873e                	mv	a4,a5
    80009108:	4785                	li	a5,1
    8000910a:	02f71763          	bne	a4,a5,80009138 <virtio_disk_init+0x76>
    8000910e:	100017b7          	lui	a5,0x10001
    80009112:	07a1                	addi	a5,a5,8 # 10001008 <_entry-0x6fffeff8>
    80009114:	439c                	lw	a5,0(a5)
    80009116:	2781                	sext.w	a5,a5
    80009118:	873e                	mv	a4,a5
    8000911a:	4789                	li	a5,2
    8000911c:	00f71e63          	bne	a4,a5,80009138 <virtio_disk_init+0x76>
    80009120:	100017b7          	lui	a5,0x10001
    80009124:	07b1                	addi	a5,a5,12 # 1000100c <_entry-0x6fffeff4>
    80009126:	439c                	lw	a5,0(a5)
    80009128:	2781                	sext.w	a5,a5
    8000912a:	873e                	mv	a4,a5
    8000912c:	554d47b7          	lui	a5,0x554d4
    80009130:	55178793          	addi	a5,a5,1361 # 554d4551 <_entry-0x2ab2baaf>
    80009134:	00f70a63          	beq	a4,a5,80009148 <virtio_disk_init+0x86>
    80009138:	00003517          	auipc	a0,0x3
    8000913c:	63850513          	addi	a0,a0,1592 # 8000c770 <etext+0x770>
    80009140:	ffff8097          	auipc	ra,0xffff8
    80009144:	b5e080e7          	jalr	-1186(ra) # 80000c9e <panic>
    80009148:	fe842783          	lw	a5,-24(s0)
    8000914c:	0017e793          	ori	a5,a5,1
    80009150:	fef42423          	sw	a5,-24(s0)
    80009154:	100017b7          	lui	a5,0x10001
    80009158:	07078793          	addi	a5,a5,112 # 10001070 <_entry-0x6fffef90>
    8000915c:	fe842703          	lw	a4,-24(s0)
    80009160:	c398                	sw	a4,0(a5)
    80009162:	fe842783          	lw	a5,-24(s0)
    80009166:	0027e793          	ori	a5,a5,2
    8000916a:	fef42423          	sw	a5,-24(s0)
    8000916e:	100017b7          	lui	a5,0x10001
    80009172:	07078793          	addi	a5,a5,112 # 10001070 <_entry-0x6fffef90>
    80009176:	fe842703          	lw	a4,-24(s0)
    8000917a:	c398                	sw	a4,0(a5)
    8000917c:	100017b7          	lui	a5,0x10001
    80009180:	07c1                	addi	a5,a5,16 # 10001010 <_entry-0x6fffeff0>
    80009182:	439c                	lw	a5,0(a5)
    80009184:	2781                	sext.w	a5,a5
    80009186:	1782                	slli	a5,a5,0x20
    80009188:	9381                	srli	a5,a5,0x20
    8000918a:	fef43023          	sd	a5,-32(s0)
    8000918e:	fe043783          	ld	a5,-32(s0)
    80009192:	fdf7f793          	andi	a5,a5,-33
    80009196:	fef43023          	sd	a5,-32(s0)
    8000919a:	fe043783          	ld	a5,-32(s0)
    8000919e:	f7f7f793          	andi	a5,a5,-129
    800091a2:	fef43023          	sd	a5,-32(s0)
    800091a6:	fe043703          	ld	a4,-32(s0)
    800091aa:	77fd                	lui	a5,0xfffff
    800091ac:	7ff78793          	addi	a5,a5,2047 # fffffffffffff7ff <end+0xffffffff7ffd47d7>
    800091b0:	8ff9                	and	a5,a5,a4
    800091b2:	fef43023          	sd	a5,-32(s0)
    800091b6:	fe043703          	ld	a4,-32(s0)
    800091ba:	77fd                	lui	a5,0xfffff
    800091bc:	17fd                	addi	a5,a5,-1 # ffffffffffffefff <end+0xffffffff7ffd3fd7>
    800091be:	8ff9                	and	a5,a5,a4
    800091c0:	fef43023          	sd	a5,-32(s0)
    800091c4:	fe043703          	ld	a4,-32(s0)
    800091c8:	f80007b7          	lui	a5,0xf8000
    800091cc:	17fd                	addi	a5,a5,-1 # fffffffff7ffffff <end+0xffffffff77fd4fd7>
    800091ce:	8ff9                	and	a5,a5,a4
    800091d0:	fef43023          	sd	a5,-32(s0)
    800091d4:	fe043703          	ld	a4,-32(s0)
    800091d8:	e00007b7          	lui	a5,0xe0000
    800091dc:	17fd                	addi	a5,a5,-1 # ffffffffdfffffff <end+0xffffffff5ffd4fd7>
    800091de:	8ff9                	and	a5,a5,a4
    800091e0:	fef43023          	sd	a5,-32(s0)
    800091e4:	fe043703          	ld	a4,-32(s0)
    800091e8:	f00007b7          	lui	a5,0xf0000
    800091ec:	17fd                	addi	a5,a5,-1 # ffffffffefffffff <end+0xffffffff6ffd4fd7>
    800091ee:	8ff9                	and	a5,a5,a4
    800091f0:	fef43023          	sd	a5,-32(s0)
    800091f4:	100017b7          	lui	a5,0x10001
    800091f8:	02078793          	addi	a5,a5,32 # 10001020 <_entry-0x6fffefe0>
    800091fc:	fe043703          	ld	a4,-32(s0)
    80009200:	2701                	sext.w	a4,a4
    80009202:	c398                	sw	a4,0(a5)
    80009204:	fe842783          	lw	a5,-24(s0)
    80009208:	0087e793          	ori	a5,a5,8
    8000920c:	fef42423          	sw	a5,-24(s0)
    80009210:	100017b7          	lui	a5,0x10001
    80009214:	07078793          	addi	a5,a5,112 # 10001070 <_entry-0x6fffef90>
    80009218:	fe842703          	lw	a4,-24(s0)
    8000921c:	c398                	sw	a4,0(a5)
    8000921e:	fe842783          	lw	a5,-24(s0)
    80009222:	0047e793          	ori	a5,a5,4
    80009226:	fef42423          	sw	a5,-24(s0)
    8000922a:	100017b7          	lui	a5,0x10001
    8000922e:	07078793          	addi	a5,a5,112 # 10001070 <_entry-0x6fffef90>
    80009232:	fe842703          	lw	a4,-24(s0)
    80009236:	c398                	sw	a4,0(a5)
    80009238:	100017b7          	lui	a5,0x10001
    8000923c:	02878793          	addi	a5,a5,40 # 10001028 <_entry-0x6fffefd8>
    80009240:	6705                	lui	a4,0x1
    80009242:	c398                	sw	a4,0(a5)
    80009244:	100017b7          	lui	a5,0x10001
    80009248:	03078793          	addi	a5,a5,48 # 10001030 <_entry-0x6fffefd0>
    8000924c:	0007a023          	sw	zero,0(a5)
    80009250:	100017b7          	lui	a5,0x10001
    80009254:	03478793          	addi	a5,a5,52 # 10001034 <_entry-0x6fffefcc>
    80009258:	439c                	lw	a5,0(a5)
    8000925a:	fcf42e23          	sw	a5,-36(s0)
    8000925e:	fdc42783          	lw	a5,-36(s0)
    80009262:	2781                	sext.w	a5,a5
    80009264:	eb89                	bnez	a5,80009276 <virtio_disk_init+0x1b4>
    80009266:	00003517          	auipc	a0,0x3
    8000926a:	52a50513          	addi	a0,a0,1322 # 8000c790 <etext+0x790>
    8000926e:	ffff8097          	auipc	ra,0xffff8
    80009272:	a30080e7          	jalr	-1488(ra) # 80000c9e <panic>
    80009276:	fdc42783          	lw	a5,-36(s0)
    8000927a:	0007871b          	sext.w	a4,a5
    8000927e:	479d                	li	a5,7
    80009280:	00e7ea63          	bltu	a5,a4,80009294 <virtio_disk_init+0x1d2>
    80009284:	00003517          	auipc	a0,0x3
    80009288:	52c50513          	addi	a0,a0,1324 # 8000c7b0 <etext+0x7b0>
    8000928c:	ffff8097          	auipc	ra,0xffff8
    80009290:	a12080e7          	jalr	-1518(ra) # 80000c9e <panic>
    80009294:	100017b7          	lui	a5,0x10001
    80009298:	03878793          	addi	a5,a5,56 # 10001038 <_entry-0x6fffefc8>
    8000929c:	4721                	li	a4,8
    8000929e:	c398                	sw	a4,0(a5)
    800092a0:	6609                	lui	a2,0x2
    800092a2:	4581                	li	a1,0
    800092a4:	0001e517          	auipc	a0,0x1e
    800092a8:	d5c50513          	addi	a0,a0,-676 # 80027000 <disk>
    800092ac:	ffff8097          	auipc	ra,0xffff8
    800092b0:	1fa080e7          	jalr	506(ra) # 800014a6 <memset>
    800092b4:	0001e797          	auipc	a5,0x1e
    800092b8:	d4c78793          	addi	a5,a5,-692 # 80027000 <disk>
    800092bc:	00c7d713          	srli	a4,a5,0xc
    800092c0:	100017b7          	lui	a5,0x10001
    800092c4:	04078793          	addi	a5,a5,64 # 10001040 <_entry-0x6fffefc0>
    800092c8:	2701                	sext.w	a4,a4
    800092ca:	c398                	sw	a4,0(a5)
    800092cc:	0001e717          	auipc	a4,0x1e
    800092d0:	d3470713          	addi	a4,a4,-716 # 80027000 <disk>
    800092d4:	6789                	lui	a5,0x2
    800092d6:	97ba                	add	a5,a5,a4
    800092d8:	0001e717          	auipc	a4,0x1e
    800092dc:	d2870713          	addi	a4,a4,-728 # 80027000 <disk>
    800092e0:	e398                	sd	a4,0(a5)
    800092e2:	0001e717          	auipc	a4,0x1e
    800092e6:	d1e70713          	addi	a4,a4,-738 # 80027000 <disk>
    800092ea:	6789                	lui	a5,0x2
    800092ec:	97ba                	add	a5,a5,a4
    800092ee:	639c                	ld	a5,0(a5)
    800092f0:	08078713          	addi	a4,a5,128 # 2080 <_entry-0x7fffdf80>
    800092f4:	0001e697          	auipc	a3,0x1e
    800092f8:	d0c68693          	addi	a3,a3,-756 # 80027000 <disk>
    800092fc:	6789                	lui	a5,0x2
    800092fe:	97b6                	add	a5,a5,a3
    80009300:	e798                	sd	a4,8(a5)
    80009302:	0001f717          	auipc	a4,0x1f
    80009306:	cfe70713          	addi	a4,a4,-770 # 80028000 <disk+0x1000>
    8000930a:	0001e697          	auipc	a3,0x1e
    8000930e:	cf668693          	addi	a3,a3,-778 # 80027000 <disk>
    80009312:	6789                	lui	a5,0x2
    80009314:	97b6                	add	a5,a5,a3
    80009316:	eb98                	sd	a4,16(a5)
    80009318:	fe042623          	sw	zero,-20(s0)
    8000931c:	a015                	j	80009340 <virtio_disk_init+0x27e>
    8000931e:	0001e717          	auipc	a4,0x1e
    80009322:	ce270713          	addi	a4,a4,-798 # 80027000 <disk>
    80009326:	fec42783          	lw	a5,-20(s0)
    8000932a:	97ba                	add	a5,a5,a4
    8000932c:	6709                	lui	a4,0x2
    8000932e:	97ba                	add	a5,a5,a4
    80009330:	4705                	li	a4,1
    80009332:	00e78c23          	sb	a4,24(a5) # 2018 <_entry-0x7fffdfe8>
    80009336:	fec42783          	lw	a5,-20(s0)
    8000933a:	2785                	addiw	a5,a5,1
    8000933c:	fef42623          	sw	a5,-20(s0)
    80009340:	fec42783          	lw	a5,-20(s0)
    80009344:	0007871b          	sext.w	a4,a5
    80009348:	479d                	li	a5,7
    8000934a:	fce7dae3          	bge	a5,a4,8000931e <virtio_disk_init+0x25c>
    8000934e:	0001                	nop
    80009350:	0001                	nop
    80009352:	70a2                	ld	ra,40(sp)
    80009354:	7402                	ld	s0,32(sp)
    80009356:	6145                	addi	sp,sp,48
    80009358:	8082                	ret

000000008000935a <alloc_desc>:
    8000935a:	1101                	addi	sp,sp,-32
    8000935c:	ec22                	sd	s0,24(sp)
    8000935e:	1000                	addi	s0,sp,32
    80009360:	fe042623          	sw	zero,-20(s0)
    80009364:	a081                	j	800093a4 <alloc_desc+0x4a>
    80009366:	0001e717          	auipc	a4,0x1e
    8000936a:	c9a70713          	addi	a4,a4,-870 # 80027000 <disk>
    8000936e:	fec42783          	lw	a5,-20(s0)
    80009372:	97ba                	add	a5,a5,a4
    80009374:	6709                	lui	a4,0x2
    80009376:	97ba                	add	a5,a5,a4
    80009378:	0187c783          	lbu	a5,24(a5)
    8000937c:	cf99                	beqz	a5,8000939a <alloc_desc+0x40>
    8000937e:	0001e717          	auipc	a4,0x1e
    80009382:	c8270713          	addi	a4,a4,-894 # 80027000 <disk>
    80009386:	fec42783          	lw	a5,-20(s0)
    8000938a:	97ba                	add	a5,a5,a4
    8000938c:	6709                	lui	a4,0x2
    8000938e:	97ba                	add	a5,a5,a4
    80009390:	00078c23          	sb	zero,24(a5)
    80009394:	fec42783          	lw	a5,-20(s0)
    80009398:	a831                	j	800093b4 <alloc_desc+0x5a>
    8000939a:	fec42783          	lw	a5,-20(s0)
    8000939e:	2785                	addiw	a5,a5,1
    800093a0:	fef42623          	sw	a5,-20(s0)
    800093a4:	fec42783          	lw	a5,-20(s0)
    800093a8:	0007871b          	sext.w	a4,a5
    800093ac:	479d                	li	a5,7
    800093ae:	fae7dce3          	bge	a5,a4,80009366 <alloc_desc+0xc>
    800093b2:	57fd                	li	a5,-1
    800093b4:	853e                	mv	a0,a5
    800093b6:	6462                	ld	s0,24(sp)
    800093b8:	6105                	addi	sp,sp,32
    800093ba:	8082                	ret

00000000800093bc <free_desc>:
    800093bc:	1101                	addi	sp,sp,-32
    800093be:	ec06                	sd	ra,24(sp)
    800093c0:	e822                	sd	s0,16(sp)
    800093c2:	1000                	addi	s0,sp,32
    800093c4:	87aa                	mv	a5,a0
    800093c6:	fef42623          	sw	a5,-20(s0)
    800093ca:	fec42783          	lw	a5,-20(s0)
    800093ce:	0007871b          	sext.w	a4,a5
    800093d2:	479d                	li	a5,7
    800093d4:	00e7da63          	bge	a5,a4,800093e8 <free_desc+0x2c>
    800093d8:	00003517          	auipc	a0,0x3
    800093dc:	3f850513          	addi	a0,a0,1016 # 8000c7d0 <etext+0x7d0>
    800093e0:	ffff8097          	auipc	ra,0xffff8
    800093e4:	8be080e7          	jalr	-1858(ra) # 80000c9e <panic>
    800093e8:	0001e717          	auipc	a4,0x1e
    800093ec:	c1870713          	addi	a4,a4,-1000 # 80027000 <disk>
    800093f0:	fec42783          	lw	a5,-20(s0)
    800093f4:	97ba                	add	a5,a5,a4
    800093f6:	6709                	lui	a4,0x2
    800093f8:	97ba                	add	a5,a5,a4
    800093fa:	0187c783          	lbu	a5,24(a5)
    800093fe:	cb89                	beqz	a5,80009410 <free_desc+0x54>
    80009400:	00003517          	auipc	a0,0x3
    80009404:	3e850513          	addi	a0,a0,1000 # 8000c7e8 <etext+0x7e8>
    80009408:	ffff8097          	auipc	ra,0xffff8
    8000940c:	896080e7          	jalr	-1898(ra) # 80000c9e <panic>
    80009410:	0001e717          	auipc	a4,0x1e
    80009414:	bf070713          	addi	a4,a4,-1040 # 80027000 <disk>
    80009418:	6789                	lui	a5,0x2
    8000941a:	97ba                	add	a5,a5,a4
    8000941c:	6398                	ld	a4,0(a5)
    8000941e:	fec42783          	lw	a5,-20(s0)
    80009422:	0792                	slli	a5,a5,0x4
    80009424:	97ba                	add	a5,a5,a4
    80009426:	0007b023          	sd	zero,0(a5) # 2000 <_entry-0x7fffe000>
    8000942a:	0001e717          	auipc	a4,0x1e
    8000942e:	bd670713          	addi	a4,a4,-1066 # 80027000 <disk>
    80009432:	fec42783          	lw	a5,-20(s0)
    80009436:	97ba                	add	a5,a5,a4
    80009438:	6709                	lui	a4,0x2
    8000943a:	97ba                	add	a5,a5,a4
    8000943c:	4705                	li	a4,1
    8000943e:	00e78c23          	sb	a4,24(a5)
    80009442:	00020517          	auipc	a0,0x20
    80009446:	bd650513          	addi	a0,a0,-1066 # 80029018 <disk+0x2018>
    8000944a:	ffffa097          	auipc	ra,0xffffa
    8000944e:	55c080e7          	jalr	1372(ra) # 800039a6 <wakeup>
    80009452:	0001                	nop
    80009454:	60e2                	ld	ra,24(sp)
    80009456:	6442                	ld	s0,16(sp)
    80009458:	6105                	addi	sp,sp,32
    8000945a:	8082                	ret

000000008000945c <free_chain>:
    8000945c:	1101                	addi	sp,sp,-32
    8000945e:	ec06                	sd	ra,24(sp)
    80009460:	e822                	sd	s0,16(sp)
    80009462:	1000                	addi	s0,sp,32
    80009464:	87aa                	mv	a5,a0
    80009466:	fef42623          	sw	a5,-20(s0)
    8000946a:	fec42783          	lw	a5,-20(s0)
    8000946e:	853e                	mv	a0,a5
    80009470:	00000097          	auipc	ra,0x0
    80009474:	f4c080e7          	jalr	-180(ra) # 800093bc <free_desc>
    80009478:	0001e717          	auipc	a4,0x1e
    8000947c:	b8870713          	addi	a4,a4,-1144 # 80027000 <disk>
    80009480:	6789                	lui	a5,0x2
    80009482:	97ba                	add	a5,a5,a4
    80009484:	6398                	ld	a4,0(a5)
    80009486:	fec42783          	lw	a5,-20(s0)
    8000948a:	0792                	slli	a5,a5,0x4
    8000948c:	97ba                	add	a5,a5,a4
    8000948e:	00c7d783          	lhu	a5,12(a5) # 200c <_entry-0x7fffdff4>
    80009492:	2781                	sext.w	a5,a5
    80009494:	8b85                	andi	a5,a5,1
    80009496:	2781                	sext.w	a5,a5
    80009498:	c38d                	beqz	a5,800094ba <free_chain+0x5e>
    8000949a:	0001e717          	auipc	a4,0x1e
    8000949e:	b6670713          	addi	a4,a4,-1178 # 80027000 <disk>
    800094a2:	6789                	lui	a5,0x2
    800094a4:	97ba                	add	a5,a5,a4
    800094a6:	6398                	ld	a4,0(a5)
    800094a8:	fec42783          	lw	a5,-20(s0)
    800094ac:	0792                	slli	a5,a5,0x4
    800094ae:	97ba                	add	a5,a5,a4
    800094b0:	00e7d783          	lhu	a5,14(a5) # 200e <_entry-0x7fffdff2>
    800094b4:	fef42623          	sw	a5,-20(s0)
    800094b8:	bf4d                	j	8000946a <free_chain+0xe>
    800094ba:	0001                	nop
    800094bc:	0001                	nop
    800094be:	60e2                	ld	ra,24(sp)
    800094c0:	6442                	ld	s0,16(sp)
    800094c2:	6105                	addi	sp,sp,32
    800094c4:	8082                	ret

00000000800094c6 <alloc3_desc>:
    800094c6:	7139                	addi	sp,sp,-64
    800094c8:	fc06                	sd	ra,56(sp)
    800094ca:	f822                	sd	s0,48(sp)
    800094cc:	f426                	sd	s1,40(sp)
    800094ce:	0080                	addi	s0,sp,64
    800094d0:	fca43423          	sd	a0,-56(s0)
    800094d4:	fc042e23          	sw	zero,-36(s0)
    800094d8:	a89d                	j	8000954e <alloc3_desc+0x88>
    800094da:	fdc42783          	lw	a5,-36(s0)
    800094de:	078a                	slli	a5,a5,0x2
    800094e0:	fc843703          	ld	a4,-56(s0)
    800094e4:	00f704b3          	add	s1,a4,a5
    800094e8:	00000097          	auipc	ra,0x0
    800094ec:	e72080e7          	jalr	-398(ra) # 8000935a <alloc_desc>
    800094f0:	87aa                	mv	a5,a0
    800094f2:	c09c                	sw	a5,0(s1)
    800094f4:	fdc42783          	lw	a5,-36(s0)
    800094f8:	078a                	slli	a5,a5,0x2
    800094fa:	fc843703          	ld	a4,-56(s0)
    800094fe:	97ba                	add	a5,a5,a4
    80009500:	439c                	lw	a5,0(a5)
    80009502:	0407d163          	bgez	a5,80009544 <alloc3_desc+0x7e>
    80009506:	fc042c23          	sw	zero,-40(s0)
    8000950a:	a015                	j	8000952e <alloc3_desc+0x68>
    8000950c:	fd842783          	lw	a5,-40(s0)
    80009510:	078a                	slli	a5,a5,0x2
    80009512:	fc843703          	ld	a4,-56(s0)
    80009516:	97ba                	add	a5,a5,a4
    80009518:	439c                	lw	a5,0(a5)
    8000951a:	853e                	mv	a0,a5
    8000951c:	00000097          	auipc	ra,0x0
    80009520:	ea0080e7          	jalr	-352(ra) # 800093bc <free_desc>
    80009524:	fd842783          	lw	a5,-40(s0)
    80009528:	2785                	addiw	a5,a5,1
    8000952a:	fcf42c23          	sw	a5,-40(s0)
    8000952e:	fd842783          	lw	a5,-40(s0)
    80009532:	873e                	mv	a4,a5
    80009534:	fdc42783          	lw	a5,-36(s0)
    80009538:	2701                	sext.w	a4,a4
    8000953a:	2781                	sext.w	a5,a5
    8000953c:	fcf748e3          	blt	a4,a5,8000950c <alloc3_desc+0x46>
    80009540:	57fd                	li	a5,-1
    80009542:	a831                	j	8000955e <alloc3_desc+0x98>
    80009544:	fdc42783          	lw	a5,-36(s0)
    80009548:	2785                	addiw	a5,a5,1
    8000954a:	fcf42e23          	sw	a5,-36(s0)
    8000954e:	fdc42783          	lw	a5,-36(s0)
    80009552:	0007871b          	sext.w	a4,a5
    80009556:	4789                	li	a5,2
    80009558:	f8e7d1e3          	bge	a5,a4,800094da <alloc3_desc+0x14>
    8000955c:	4781                	li	a5,0
    8000955e:	853e                	mv	a0,a5
    80009560:	70e2                	ld	ra,56(sp)
    80009562:	7442                	ld	s0,48(sp)
    80009564:	74a2                	ld	s1,40(sp)
    80009566:	6121                	addi	sp,sp,64
    80009568:	8082                	ret

000000008000956a <virtio_disk_rw>:
    8000956a:	711d                	addi	sp,sp,-96
    8000956c:	ec86                	sd	ra,88(sp)
    8000956e:	e8a2                	sd	s0,80(sp)
    80009570:	e4a6                	sd	s1,72(sp)
    80009572:	1080                	addi	s0,sp,96
    80009574:	faa43423          	sd	a0,-88(s0)
    80009578:	87ae                	mv	a5,a1
    8000957a:	faf42223          	sw	a5,-92(s0)
    8000957e:	fa843783          	ld	a5,-88(s0)
    80009582:	47dc                	lw	a5,12(a5)
    80009584:	0017979b          	slliw	a5,a5,0x1
    80009588:	2781                	sext.w	a5,a5
    8000958a:	1782                	slli	a5,a5,0x20
    8000958c:	9381                	srli	a5,a5,0x20
    8000958e:	fcf43c23          	sd	a5,-40(s0)
    80009592:	00020517          	auipc	a0,0x20
    80009596:	b1650513          	addi	a0,a0,-1258 # 800290a8 <disk+0x20a8>
    8000959a:	ffff8097          	auipc	ra,0xffff8
    8000959e:	d38080e7          	jalr	-712(ra) # 800012d2 <acquire>
    800095a2:	fc840793          	addi	a5,s0,-56
    800095a6:	853e                	mv	a0,a5
    800095a8:	00000097          	auipc	ra,0x0
    800095ac:	f1e080e7          	jalr	-226(ra) # 800094c6 <alloc3_desc>
    800095b0:	87aa                	mv	a5,a0
    800095b2:	cf91                	beqz	a5,800095ce <virtio_disk_rw+0x64>
    800095b4:	00020597          	auipc	a1,0x20
    800095b8:	af458593          	addi	a1,a1,-1292 # 800290a8 <disk+0x20a8>
    800095bc:	00020517          	auipc	a0,0x20
    800095c0:	a5c50513          	addi	a0,a0,-1444 # 80029018 <disk+0x2018>
    800095c4:	ffffa097          	auipc	ra,0xffffa
    800095c8:	34e080e7          	jalr	846(ra) # 80003912 <sleep>
    800095cc:	bfd9                	j	800095a2 <virtio_disk_rw+0x38>
    800095ce:	0001                	nop
    800095d0:	fa442783          	lw	a5,-92(s0)
    800095d4:	2781                	sext.w	a5,a5
    800095d6:	c789                	beqz	a5,800095e0 <virtio_disk_rw+0x76>
    800095d8:	4785                	li	a5,1
    800095da:	faf42c23          	sw	a5,-72(s0)
    800095de:	a019                	j	800095e4 <virtio_disk_rw+0x7a>
    800095e0:	fa042c23          	sw	zero,-72(s0)
    800095e4:	fa042e23          	sw	zero,-68(s0)
    800095e8:	fd843783          	ld	a5,-40(s0)
    800095ec:	fcf43023          	sd	a5,-64(s0)
    800095f0:	fb840693          	addi	a3,s0,-72
    800095f4:	0001e717          	auipc	a4,0x1e
    800095f8:	a0c70713          	addi	a4,a4,-1524 # 80027000 <disk>
    800095fc:	6789                	lui	a5,0x2
    800095fe:	97ba                	add	a5,a5,a4
    80009600:	6398                	ld	a4,0(a5)
    80009602:	fc842783          	lw	a5,-56(s0)
    80009606:	0792                	slli	a5,a5,0x4
    80009608:	00f704b3          	add	s1,a4,a5
    8000960c:	8536                	mv	a0,a3
    8000960e:	ffff8097          	auipc	ra,0xffff8
    80009612:	72a080e7          	jalr	1834(ra) # 80001d38 <kvmpa>
    80009616:	87aa                	mv	a5,a0
    80009618:	e09c                	sd	a5,0(s1)
    8000961a:	0001e717          	auipc	a4,0x1e
    8000961e:	9e670713          	addi	a4,a4,-1562 # 80027000 <disk>
    80009622:	6789                	lui	a5,0x2
    80009624:	97ba                	add	a5,a5,a4
    80009626:	6398                	ld	a4,0(a5)
    80009628:	fc842783          	lw	a5,-56(s0)
    8000962c:	0792                	slli	a5,a5,0x4
    8000962e:	97ba                	add	a5,a5,a4
    80009630:	4741                	li	a4,16
    80009632:	c798                	sw	a4,8(a5)
    80009634:	0001e717          	auipc	a4,0x1e
    80009638:	9cc70713          	addi	a4,a4,-1588 # 80027000 <disk>
    8000963c:	6789                	lui	a5,0x2
    8000963e:	97ba                	add	a5,a5,a4
    80009640:	6398                	ld	a4,0(a5)
    80009642:	fc842783          	lw	a5,-56(s0)
    80009646:	0792                	slli	a5,a5,0x4
    80009648:	97ba                	add	a5,a5,a4
    8000964a:	4705                	li	a4,1
    8000964c:	00e79623          	sh	a4,12(a5) # 200c <_entry-0x7fffdff4>
    80009650:	fcc42683          	lw	a3,-52(s0)
    80009654:	0001e717          	auipc	a4,0x1e
    80009658:	9ac70713          	addi	a4,a4,-1620 # 80027000 <disk>
    8000965c:	6789                	lui	a5,0x2
    8000965e:	97ba                	add	a5,a5,a4
    80009660:	6398                	ld	a4,0(a5)
    80009662:	fc842783          	lw	a5,-56(s0)
    80009666:	0792                	slli	a5,a5,0x4
    80009668:	97ba                	add	a5,a5,a4
    8000966a:	03069713          	slli	a4,a3,0x30
    8000966e:	9341                	srli	a4,a4,0x30
    80009670:	00e79723          	sh	a4,14(a5) # 200e <_entry-0x7fffdff2>
    80009674:	fa843783          	ld	a5,-88(s0)
    80009678:	05878693          	addi	a3,a5,88
    8000967c:	0001e717          	auipc	a4,0x1e
    80009680:	98470713          	addi	a4,a4,-1660 # 80027000 <disk>
    80009684:	6789                	lui	a5,0x2
    80009686:	97ba                	add	a5,a5,a4
    80009688:	6398                	ld	a4,0(a5)
    8000968a:	fcc42783          	lw	a5,-52(s0)
    8000968e:	0792                	slli	a5,a5,0x4
    80009690:	97ba                	add	a5,a5,a4
    80009692:	8736                	mv	a4,a3
    80009694:	e398                	sd	a4,0(a5)
    80009696:	0001e717          	auipc	a4,0x1e
    8000969a:	96a70713          	addi	a4,a4,-1686 # 80027000 <disk>
    8000969e:	6789                	lui	a5,0x2
    800096a0:	97ba                	add	a5,a5,a4
    800096a2:	6398                	ld	a4,0(a5)
    800096a4:	fcc42783          	lw	a5,-52(s0)
    800096a8:	0792                	slli	a5,a5,0x4
    800096aa:	97ba                	add	a5,a5,a4
    800096ac:	40000713          	li	a4,1024
    800096b0:	c798                	sw	a4,8(a5)
    800096b2:	fa442783          	lw	a5,-92(s0)
    800096b6:	2781                	sext.w	a5,a5
    800096b8:	cf99                	beqz	a5,800096d6 <virtio_disk_rw+0x16c>
    800096ba:	0001e717          	auipc	a4,0x1e
    800096be:	94670713          	addi	a4,a4,-1722 # 80027000 <disk>
    800096c2:	6789                	lui	a5,0x2
    800096c4:	97ba                	add	a5,a5,a4
    800096c6:	6398                	ld	a4,0(a5)
    800096c8:	fcc42783          	lw	a5,-52(s0)
    800096cc:	0792                	slli	a5,a5,0x4
    800096ce:	97ba                	add	a5,a5,a4
    800096d0:	00079623          	sh	zero,12(a5) # 200c <_entry-0x7fffdff4>
    800096d4:	a839                	j	800096f2 <virtio_disk_rw+0x188>
    800096d6:	0001e717          	auipc	a4,0x1e
    800096da:	92a70713          	addi	a4,a4,-1750 # 80027000 <disk>
    800096de:	6789                	lui	a5,0x2
    800096e0:	97ba                	add	a5,a5,a4
    800096e2:	6398                	ld	a4,0(a5)
    800096e4:	fcc42783          	lw	a5,-52(s0)
    800096e8:	0792                	slli	a5,a5,0x4
    800096ea:	97ba                	add	a5,a5,a4
    800096ec:	4709                	li	a4,2
    800096ee:	00e79623          	sh	a4,12(a5) # 200c <_entry-0x7fffdff4>
    800096f2:	0001e717          	auipc	a4,0x1e
    800096f6:	90e70713          	addi	a4,a4,-1778 # 80027000 <disk>
    800096fa:	6789                	lui	a5,0x2
    800096fc:	97ba                	add	a5,a5,a4
    800096fe:	6398                	ld	a4,0(a5)
    80009700:	fcc42783          	lw	a5,-52(s0)
    80009704:	0792                	slli	a5,a5,0x4
    80009706:	97ba                	add	a5,a5,a4
    80009708:	00c7d703          	lhu	a4,12(a5) # 200c <_entry-0x7fffdff4>
    8000970c:	0001e697          	auipc	a3,0x1e
    80009710:	8f468693          	addi	a3,a3,-1804 # 80027000 <disk>
    80009714:	6789                	lui	a5,0x2
    80009716:	97b6                	add	a5,a5,a3
    80009718:	6394                	ld	a3,0(a5)
    8000971a:	fcc42783          	lw	a5,-52(s0)
    8000971e:	0792                	slli	a5,a5,0x4
    80009720:	97b6                	add	a5,a5,a3
    80009722:	00176713          	ori	a4,a4,1
    80009726:	1742                	slli	a4,a4,0x30
    80009728:	9341                	srli	a4,a4,0x30
    8000972a:	00e79623          	sh	a4,12(a5) # 200c <_entry-0x7fffdff4>
    8000972e:	fd042683          	lw	a3,-48(s0)
    80009732:	0001e717          	auipc	a4,0x1e
    80009736:	8ce70713          	addi	a4,a4,-1842 # 80027000 <disk>
    8000973a:	6789                	lui	a5,0x2
    8000973c:	97ba                	add	a5,a5,a4
    8000973e:	6398                	ld	a4,0(a5)
    80009740:	fcc42783          	lw	a5,-52(s0)
    80009744:	0792                	slli	a5,a5,0x4
    80009746:	97ba                	add	a5,a5,a4
    80009748:	03069713          	slli	a4,a3,0x30
    8000974c:	9341                	srli	a4,a4,0x30
    8000974e:	00e79723          	sh	a4,14(a5) # 200e <_entry-0x7fffdff2>
    80009752:	fc842783          	lw	a5,-56(s0)
    80009756:	0001e717          	auipc	a4,0x1e
    8000975a:	8aa70713          	addi	a4,a4,-1878 # 80027000 <disk>
    8000975e:	20078793          	addi	a5,a5,512
    80009762:	0792                	slli	a5,a5,0x4
    80009764:	97ba                	add	a5,a5,a4
    80009766:	02078823          	sb	zero,48(a5)
    8000976a:	fc842783          	lw	a5,-56(s0)
    8000976e:	20078793          	addi	a5,a5,512
    80009772:	00479713          	slli	a4,a5,0x4
    80009776:	0001e797          	auipc	a5,0x1e
    8000977a:	88a78793          	addi	a5,a5,-1910 # 80027000 <disk>
    8000977e:	97ba                	add	a5,a5,a4
    80009780:	03078693          	addi	a3,a5,48
    80009784:	0001e717          	auipc	a4,0x1e
    80009788:	87c70713          	addi	a4,a4,-1924 # 80027000 <disk>
    8000978c:	6789                	lui	a5,0x2
    8000978e:	97ba                	add	a5,a5,a4
    80009790:	6398                	ld	a4,0(a5)
    80009792:	fd042783          	lw	a5,-48(s0)
    80009796:	0792                	slli	a5,a5,0x4
    80009798:	97ba                	add	a5,a5,a4
    8000979a:	8736                	mv	a4,a3
    8000979c:	e398                	sd	a4,0(a5)
    8000979e:	0001e717          	auipc	a4,0x1e
    800097a2:	86270713          	addi	a4,a4,-1950 # 80027000 <disk>
    800097a6:	6789                	lui	a5,0x2
    800097a8:	97ba                	add	a5,a5,a4
    800097aa:	6398                	ld	a4,0(a5)
    800097ac:	fd042783          	lw	a5,-48(s0)
    800097b0:	0792                	slli	a5,a5,0x4
    800097b2:	97ba                	add	a5,a5,a4
    800097b4:	4705                	li	a4,1
    800097b6:	c798                	sw	a4,8(a5)
    800097b8:	0001e717          	auipc	a4,0x1e
    800097bc:	84870713          	addi	a4,a4,-1976 # 80027000 <disk>
    800097c0:	6789                	lui	a5,0x2
    800097c2:	97ba                	add	a5,a5,a4
    800097c4:	6398                	ld	a4,0(a5)
    800097c6:	fd042783          	lw	a5,-48(s0)
    800097ca:	0792                	slli	a5,a5,0x4
    800097cc:	97ba                	add	a5,a5,a4
    800097ce:	4709                	li	a4,2
    800097d0:	00e79623          	sh	a4,12(a5) # 200c <_entry-0x7fffdff4>
    800097d4:	0001e717          	auipc	a4,0x1e
    800097d8:	82c70713          	addi	a4,a4,-2004 # 80027000 <disk>
    800097dc:	6789                	lui	a5,0x2
    800097de:	97ba                	add	a5,a5,a4
    800097e0:	6398                	ld	a4,0(a5)
    800097e2:	fd042783          	lw	a5,-48(s0)
    800097e6:	0792                	slli	a5,a5,0x4
    800097e8:	97ba                	add	a5,a5,a4
    800097ea:	00079723          	sh	zero,14(a5) # 200e <_entry-0x7fffdff2>
    800097ee:	fa843783          	ld	a5,-88(s0)
    800097f2:	4705                	li	a4,1
    800097f4:	c3d8                	sw	a4,4(a5)
    800097f6:	fc842783          	lw	a5,-56(s0)
    800097fa:	0001e717          	auipc	a4,0x1e
    800097fe:	80670713          	addi	a4,a4,-2042 # 80027000 <disk>
    80009802:	20078793          	addi	a5,a5,512
    80009806:	0792                	slli	a5,a5,0x4
    80009808:	97ba                	add	a5,a5,a4
    8000980a:	fa843703          	ld	a4,-88(s0)
    8000980e:	f798                	sd	a4,40(a5)
    80009810:	fc842603          	lw	a2,-56(s0)
    80009814:	0001d717          	auipc	a4,0x1d
    80009818:	7ec70713          	addi	a4,a4,2028 # 80027000 <disk>
    8000981c:	6789                	lui	a5,0x2
    8000981e:	97ba                	add	a5,a5,a4
    80009820:	6798                	ld	a4,8(a5)
    80009822:	0001d697          	auipc	a3,0x1d
    80009826:	7de68693          	addi	a3,a3,2014 # 80027000 <disk>
    8000982a:	6789                	lui	a5,0x2
    8000982c:	97b6                	add	a5,a5,a3
    8000982e:	679c                	ld	a5,8(a5)
    80009830:	0789                	addi	a5,a5,2 # 2002 <_entry-0x7fffdffe>
    80009832:	0007d783          	lhu	a5,0(a5)
    80009836:	2781                	sext.w	a5,a5
    80009838:	8b9d                	andi	a5,a5,7
    8000983a:	2781                	sext.w	a5,a5
    8000983c:	2789                	addiw	a5,a5,2
    8000983e:	2781                	sext.w	a5,a5
    80009840:	0786                	slli	a5,a5,0x1
    80009842:	97ba                	add	a5,a5,a4
    80009844:	03061713          	slli	a4,a2,0x30
    80009848:	9341                	srli	a4,a4,0x30
    8000984a:	00e79023          	sh	a4,0(a5)
    8000984e:	0330000f          	fence	rw,rw
    80009852:	0001d717          	auipc	a4,0x1d
    80009856:	7ae70713          	addi	a4,a4,1966 # 80027000 <disk>
    8000985a:	6789                	lui	a5,0x2
    8000985c:	97ba                	add	a5,a5,a4
    8000985e:	679c                	ld	a5,8(a5)
    80009860:	0789                	addi	a5,a5,2 # 2002 <_entry-0x7fffdffe>
    80009862:	0007d703          	lhu	a4,0(a5)
    80009866:	0001d697          	auipc	a3,0x1d
    8000986a:	79a68693          	addi	a3,a3,1946 # 80027000 <disk>
    8000986e:	6789                	lui	a5,0x2
    80009870:	97b6                	add	a5,a5,a3
    80009872:	679c                	ld	a5,8(a5)
    80009874:	0789                	addi	a5,a5,2 # 2002 <_entry-0x7fffdffe>
    80009876:	2705                	addiw	a4,a4,1
    80009878:	1742                	slli	a4,a4,0x30
    8000987a:	9341                	srli	a4,a4,0x30
    8000987c:	00e79023          	sh	a4,0(a5)
    80009880:	100017b7          	lui	a5,0x10001
    80009884:	05078793          	addi	a5,a5,80 # 10001050 <_entry-0x6fffefb0>
    80009888:	0007a023          	sw	zero,0(a5)
    8000988c:	a819                	j	800098a2 <virtio_disk_rw+0x338>
    8000988e:	00020597          	auipc	a1,0x20
    80009892:	81a58593          	addi	a1,a1,-2022 # 800290a8 <disk+0x20a8>
    80009896:	fa843503          	ld	a0,-88(s0)
    8000989a:	ffffa097          	auipc	ra,0xffffa
    8000989e:	078080e7          	jalr	120(ra) # 80003912 <sleep>
    800098a2:	fa843783          	ld	a5,-88(s0)
    800098a6:	43dc                	lw	a5,4(a5)
    800098a8:	873e                	mv	a4,a5
    800098aa:	4785                	li	a5,1
    800098ac:	fef701e3          	beq	a4,a5,8000988e <virtio_disk_rw+0x324>
    800098b0:	fc842783          	lw	a5,-56(s0)
    800098b4:	0001d717          	auipc	a4,0x1d
    800098b8:	74c70713          	addi	a4,a4,1868 # 80027000 <disk>
    800098bc:	20078793          	addi	a5,a5,512
    800098c0:	0792                	slli	a5,a5,0x4
    800098c2:	97ba                	add	a5,a5,a4
    800098c4:	0207b423          	sd	zero,40(a5)
    800098c8:	fc842783          	lw	a5,-56(s0)
    800098cc:	853e                	mv	a0,a5
    800098ce:	00000097          	auipc	ra,0x0
    800098d2:	b8e080e7          	jalr	-1138(ra) # 8000945c <free_chain>
    800098d6:	0001f517          	auipc	a0,0x1f
    800098da:	7d250513          	addi	a0,a0,2002 # 800290a8 <disk+0x20a8>
    800098de:	ffff8097          	auipc	ra,0xffff8
    800098e2:	a58080e7          	jalr	-1448(ra) # 80001336 <release>
    800098e6:	0001                	nop
    800098e8:	60e6                	ld	ra,88(sp)
    800098ea:	6446                	ld	s0,80(sp)
    800098ec:	64a6                	ld	s1,72(sp)
    800098ee:	6125                	addi	sp,sp,96
    800098f0:	8082                	ret

00000000800098f2 <virtio_disk_intr>:
    800098f2:	1101                	addi	sp,sp,-32
    800098f4:	ec06                	sd	ra,24(sp)
    800098f6:	e822                	sd	s0,16(sp)
    800098f8:	1000                	addi	s0,sp,32
    800098fa:	0001f517          	auipc	a0,0x1f
    800098fe:	7ae50513          	addi	a0,a0,1966 # 800290a8 <disk+0x20a8>
    80009902:	ffff8097          	auipc	ra,0xffff8
    80009906:	9d0080e7          	jalr	-1584(ra) # 800012d2 <acquire>
    8000990a:	a8c1                	j	800099da <virtio_disk_intr+0xe8>
    8000990c:	0001d717          	auipc	a4,0x1d
    80009910:	6f470713          	addi	a4,a4,1780 # 80027000 <disk>
    80009914:	6789                	lui	a5,0x2
    80009916:	97ba                	add	a5,a5,a4
    80009918:	6b98                	ld	a4,16(a5)
    8000991a:	0001d697          	auipc	a3,0x1d
    8000991e:	6e668693          	addi	a3,a3,1766 # 80027000 <disk>
    80009922:	6789                	lui	a5,0x2
    80009924:	97b6                	add	a5,a5,a3
    80009926:	0207d783          	lhu	a5,32(a5) # 2020 <_entry-0x7fffdfe0>
    8000992a:	2781                	sext.w	a5,a5
    8000992c:	078e                	slli	a5,a5,0x3
    8000992e:	97ba                	add	a5,a5,a4
    80009930:	43dc                	lw	a5,4(a5)
    80009932:	fef42623          	sw	a5,-20(s0)
    80009936:	0001d717          	auipc	a4,0x1d
    8000993a:	6ca70713          	addi	a4,a4,1738 # 80027000 <disk>
    8000993e:	fec42783          	lw	a5,-20(s0)
    80009942:	20078793          	addi	a5,a5,512
    80009946:	0792                	slli	a5,a5,0x4
    80009948:	97ba                	add	a5,a5,a4
    8000994a:	0307c783          	lbu	a5,48(a5)
    8000994e:	cb89                	beqz	a5,80009960 <virtio_disk_intr+0x6e>
    80009950:	00003517          	auipc	a0,0x3
    80009954:	eb050513          	addi	a0,a0,-336 # 8000c800 <etext+0x800>
    80009958:	ffff7097          	auipc	ra,0xffff7
    8000995c:	346080e7          	jalr	838(ra) # 80000c9e <panic>
    80009960:	0001d717          	auipc	a4,0x1d
    80009964:	6a070713          	addi	a4,a4,1696 # 80027000 <disk>
    80009968:	fec42783          	lw	a5,-20(s0)
    8000996c:	20078793          	addi	a5,a5,512
    80009970:	0792                	slli	a5,a5,0x4
    80009972:	97ba                	add	a5,a5,a4
    80009974:	779c                	ld	a5,40(a5)
    80009976:	0007a223          	sw	zero,4(a5)
    8000997a:	0001d717          	auipc	a4,0x1d
    8000997e:	68670713          	addi	a4,a4,1670 # 80027000 <disk>
    80009982:	fec42783          	lw	a5,-20(s0)
    80009986:	20078793          	addi	a5,a5,512
    8000998a:	0792                	slli	a5,a5,0x4
    8000998c:	97ba                	add	a5,a5,a4
    8000998e:	779c                	ld	a5,40(a5)
    80009990:	853e                	mv	a0,a5
    80009992:	ffffa097          	auipc	ra,0xffffa
    80009996:	014080e7          	jalr	20(ra) # 800039a6 <wakeup>
    8000999a:	0001d717          	auipc	a4,0x1d
    8000999e:	66670713          	addi	a4,a4,1638 # 80027000 <disk>
    800099a2:	6789                	lui	a5,0x2
    800099a4:	97ba                	add	a5,a5,a4
    800099a6:	0207d783          	lhu	a5,32(a5) # 2020 <_entry-0x7fffdfe0>
    800099aa:	2781                	sext.w	a5,a5
    800099ac:	2785                	addiw	a5,a5,1
    800099ae:	2781                	sext.w	a5,a5
    800099b0:	873e                	mv	a4,a5
    800099b2:	41f7579b          	sraiw	a5,a4,0x1f
    800099b6:	01d7d79b          	srliw	a5,a5,0x1d
    800099ba:	9f3d                	addw	a4,a4,a5
    800099bc:	8b1d                	andi	a4,a4,7
    800099be:	40f707bb          	subw	a5,a4,a5
    800099c2:	2781                	sext.w	a5,a5
    800099c4:	03079713          	slli	a4,a5,0x30
    800099c8:	9341                	srli	a4,a4,0x30
    800099ca:	0001d697          	auipc	a3,0x1d
    800099ce:	63668693          	addi	a3,a3,1590 # 80027000 <disk>
    800099d2:	6789                	lui	a5,0x2
    800099d4:	97b6                	add	a5,a5,a3
    800099d6:	02e79023          	sh	a4,32(a5) # 2020 <_entry-0x7fffdfe0>
    800099da:	0001d717          	auipc	a4,0x1d
    800099de:	62670713          	addi	a4,a4,1574 # 80027000 <disk>
    800099e2:	6789                	lui	a5,0x2
    800099e4:	97ba                	add	a5,a5,a4
    800099e6:	0207d703          	lhu	a4,32(a5) # 2020 <_entry-0x7fffdfe0>
    800099ea:	0001d697          	auipc	a3,0x1d
    800099ee:	61668693          	addi	a3,a3,1558 # 80027000 <disk>
    800099f2:	6789                	lui	a5,0x2
    800099f4:	97b6                	add	a5,a5,a3
    800099f6:	6b9c                	ld	a5,16(a5)
    800099f8:	0027d783          	lhu	a5,2(a5) # 2002 <_entry-0x7fffdffe>
    800099fc:	8fb9                	xor	a5,a5,a4
    800099fe:	17c2                	slli	a5,a5,0x30
    80009a00:	93c1                	srli	a5,a5,0x30
    80009a02:	8b9d                	andi	a5,a5,7
    80009a04:	17c2                	slli	a5,a5,0x30
    80009a06:	93c1                	srli	a5,a5,0x30
    80009a08:	f391                	bnez	a5,8000990c <virtio_disk_intr+0x1a>
    80009a0a:	100017b7          	lui	a5,0x10001
    80009a0e:	06078793          	addi	a5,a5,96 # 10001060 <_entry-0x6fffefa0>
    80009a12:	439c                	lw	a5,0(a5)
    80009a14:	0007871b          	sext.w	a4,a5
    80009a18:	100017b7          	lui	a5,0x10001
    80009a1c:	06478793          	addi	a5,a5,100 # 10001064 <_entry-0x6fffef9c>
    80009a20:	8b0d                	andi	a4,a4,3
    80009a22:	2701                	sext.w	a4,a4
    80009a24:	c398                	sw	a4,0(a5)
    80009a26:	0001f517          	auipc	a0,0x1f
    80009a2a:	68250513          	addi	a0,a0,1666 # 800290a8 <disk+0x20a8>
    80009a2e:	ffff8097          	auipc	ra,0xffff8
    80009a32:	908080e7          	jalr	-1784(ra) # 80001336 <release>
    80009a36:	0001                	nop
    80009a38:	60e2                	ld	ra,24(sp)
    80009a3a:	6442                	ld	s0,16(sp)
    80009a3c:	6105                	addi	sp,sp,32
    80009a3e:	8082                	ret

0000000080009a40 <statscopyin>:
    80009a40:	7179                	addi	sp,sp,-48
    80009a42:	f406                	sd	ra,40(sp)
    80009a44:	f022                	sd	s0,32(sp)
    80009a46:	1800                	addi	s0,sp,48
    80009a48:	fca43c23          	sd	a0,-40(s0)
    80009a4c:	87ae                	mv	a5,a1
    80009a4e:	fcf42a23          	sw	a5,-44(s0)
    80009a52:	00020797          	auipc	a5,0x20
    80009a56:	5ae78793          	addi	a5,a5,1454 # 8002a000 <stats>
    80009a5a:	4398                	lw	a4,0(a5)
    80009a5c:	fd442783          	lw	a5,-44(s0)
    80009a60:	86ba                	mv	a3,a4
    80009a62:	00003617          	auipc	a2,0x3
    80009a66:	db660613          	addi	a2,a2,-586 # 8000c818 <etext+0x818>
    80009a6a:	85be                	mv	a1,a5
    80009a6c:	fd843503          	ld	a0,-40(s0)
    80009a70:	00000097          	auipc	ra,0x0
    80009a74:	4a8080e7          	jalr	1192(ra) # 80009f18 <snprintf>
    80009a78:	87aa                	mv	a5,a0
    80009a7a:	fef42623          	sw	a5,-20(s0)
    80009a7e:	fec42783          	lw	a5,-20(s0)
    80009a82:	fd843703          	ld	a4,-40(s0)
    80009a86:	973e                	add	a4,a4,a5
    80009a88:	00020797          	auipc	a5,0x20
    80009a8c:	57878793          	addi	a5,a5,1400 # 8002a000 <stats>
    80009a90:	43d4                	lw	a3,4(a5)
    80009a92:	fd442783          	lw	a5,-44(s0)
    80009a96:	00003617          	auipc	a2,0x3
    80009a9a:	d9260613          	addi	a2,a2,-622 # 8000c828 <etext+0x828>
    80009a9e:	85be                	mv	a1,a5
    80009aa0:	853a                	mv	a0,a4
    80009aa2:	00000097          	auipc	ra,0x0
    80009aa6:	476080e7          	jalr	1142(ra) # 80009f18 <snprintf>
    80009aaa:	87aa                	mv	a5,a0
    80009aac:	fec42703          	lw	a4,-20(s0)
    80009ab0:	9fb9                	addw	a5,a5,a4
    80009ab2:	fef42623          	sw	a5,-20(s0)
    80009ab6:	fec42783          	lw	a5,-20(s0)
    80009aba:	853e                	mv	a0,a5
    80009abc:	70a2                	ld	ra,40(sp)
    80009abe:	7402                	ld	s0,32(sp)
    80009ac0:	6145                	addi	sp,sp,48
    80009ac2:	8082                	ret

0000000080009ac4 <copyin_new>:
    80009ac4:	7139                	addi	sp,sp,-64
    80009ac6:	fc06                	sd	ra,56(sp)
    80009ac8:	f822                	sd	s0,48(sp)
    80009aca:	0080                	addi	s0,sp,64
    80009acc:	fca43c23          	sd	a0,-40(s0)
    80009ad0:	fcb43823          	sd	a1,-48(s0)
    80009ad4:	fcc43423          	sd	a2,-56(s0)
    80009ad8:	fcd43023          	sd	a3,-64(s0)
    80009adc:	ffff9097          	auipc	ra,0xffff9
    80009ae0:	e76080e7          	jalr	-394(ra) # 80002952 <myproc>
    80009ae4:	fea43423          	sd	a0,-24(s0)
    80009ae8:	fe843783          	ld	a5,-24(s0)
    80009aec:	67bc                	ld	a5,72(a5)
    80009aee:	fc843703          	ld	a4,-56(s0)
    80009af2:	02f77563          	bgeu	a4,a5,80009b1c <copyin_new+0x58>
    80009af6:	fc843703          	ld	a4,-56(s0)
    80009afa:	fc043783          	ld	a5,-64(s0)
    80009afe:	973e                	add	a4,a4,a5
    80009b00:	fe843783          	ld	a5,-24(s0)
    80009b04:	67bc                	ld	a5,72(a5)
    80009b06:	00f77b63          	bgeu	a4,a5,80009b1c <copyin_new+0x58>
    80009b0a:	fc843703          	ld	a4,-56(s0)
    80009b0e:	fc043783          	ld	a5,-64(s0)
    80009b12:	97ba                	add	a5,a5,a4
    80009b14:	fc843703          	ld	a4,-56(s0)
    80009b18:	00e7f463          	bgeu	a5,a4,80009b20 <copyin_new+0x5c>
    80009b1c:	57fd                	li	a5,-1
    80009b1e:	a825                	j	80009b56 <copyin_new+0x92>
    80009b20:	fc843783          	ld	a5,-56(s0)
    80009b24:	fc043703          	ld	a4,-64(s0)
    80009b28:	2701                	sext.w	a4,a4
    80009b2a:	863a                	mv	a2,a4
    80009b2c:	85be                	mv	a1,a5
    80009b2e:	fd043503          	ld	a0,-48(s0)
    80009b32:	ffff8097          	auipc	ra,0xffff8
    80009b36:	a58080e7          	jalr	-1448(ra) # 8000158a <memmove>
    80009b3a:	00020797          	auipc	a5,0x20
    80009b3e:	4c678793          	addi	a5,a5,1222 # 8002a000 <stats>
    80009b42:	439c                	lw	a5,0(a5)
    80009b44:	2785                	addiw	a5,a5,1
    80009b46:	0007871b          	sext.w	a4,a5
    80009b4a:	00020797          	auipc	a5,0x20
    80009b4e:	4b678793          	addi	a5,a5,1206 # 8002a000 <stats>
    80009b52:	c398                	sw	a4,0(a5)
    80009b54:	4781                	li	a5,0
    80009b56:	853e                	mv	a0,a5
    80009b58:	70e2                	ld	ra,56(sp)
    80009b5a:	7442                	ld	s0,48(sp)
    80009b5c:	6121                	addi	sp,sp,64
    80009b5e:	8082                	ret

0000000080009b60 <copyinstr_new>:
    80009b60:	715d                	addi	sp,sp,-80
    80009b62:	e486                	sd	ra,72(sp)
    80009b64:	e0a2                	sd	s0,64(sp)
    80009b66:	0880                	addi	s0,sp,80
    80009b68:	fca43423          	sd	a0,-56(s0)
    80009b6c:	fcb43023          	sd	a1,-64(s0)
    80009b70:	fac43c23          	sd	a2,-72(s0)
    80009b74:	fad43823          	sd	a3,-80(s0)
    80009b78:	ffff9097          	auipc	ra,0xffff9
    80009b7c:	dda080e7          	jalr	-550(ra) # 80002952 <myproc>
    80009b80:	fea43023          	sd	a0,-32(s0)
    80009b84:	fb843783          	ld	a5,-72(s0)
    80009b88:	fcf43c23          	sd	a5,-40(s0)
    80009b8c:	00020797          	auipc	a5,0x20
    80009b90:	47478793          	addi	a5,a5,1140 # 8002a000 <stats>
    80009b94:	43dc                	lw	a5,4(a5)
    80009b96:	2785                	addiw	a5,a5,1
    80009b98:	0007871b          	sext.w	a4,a5
    80009b9c:	00020797          	auipc	a5,0x20
    80009ba0:	46478793          	addi	a5,a5,1124 # 8002a000 <stats>
    80009ba4:	c3d8                	sw	a4,4(a5)
    80009ba6:	fe042623          	sw	zero,-20(s0)
    80009baa:	a835                	j	80009be6 <copyinstr_new+0x86>
    80009bac:	fec42783          	lw	a5,-20(s0)
    80009bb0:	fd843703          	ld	a4,-40(s0)
    80009bb4:	973e                	add	a4,a4,a5
    80009bb6:	fec42783          	lw	a5,-20(s0)
    80009bba:	fc043683          	ld	a3,-64(s0)
    80009bbe:	97b6                	add	a5,a5,a3
    80009bc0:	00074703          	lbu	a4,0(a4)
    80009bc4:	00e78023          	sb	a4,0(a5)
    80009bc8:	fec42783          	lw	a5,-20(s0)
    80009bcc:	fd843703          	ld	a4,-40(s0)
    80009bd0:	97ba                	add	a5,a5,a4
    80009bd2:	0007c783          	lbu	a5,0(a5)
    80009bd6:	e399                	bnez	a5,80009bdc <copyinstr_new+0x7c>
    80009bd8:	4781                	li	a5,0
    80009bda:	a03d                	j	80009c08 <copyinstr_new+0xa8>
    80009bdc:	fec42783          	lw	a5,-20(s0)
    80009be0:	2785                	addiw	a5,a5,1
    80009be2:	fef42623          	sw	a5,-20(s0)
    80009be6:	fec42783          	lw	a5,-20(s0)
    80009bea:	fb043703          	ld	a4,-80(s0)
    80009bee:	00e7fc63          	bgeu	a5,a4,80009c06 <copyinstr_new+0xa6>
    80009bf2:	fec42703          	lw	a4,-20(s0)
    80009bf6:	fb843783          	ld	a5,-72(s0)
    80009bfa:	973e                	add	a4,a4,a5
    80009bfc:	fe043783          	ld	a5,-32(s0)
    80009c00:	67bc                	ld	a5,72(a5)
    80009c02:	faf765e3          	bltu	a4,a5,80009bac <copyinstr_new+0x4c>
    80009c06:	57fd                	li	a5,-1
    80009c08:	853e                	mv	a0,a5
    80009c0a:	60a6                	ld	ra,72(sp)
    80009c0c:	6406                	ld	s0,64(sp)
    80009c0e:	6161                	addi	sp,sp,80
    80009c10:	8082                	ret

0000000080009c12 <statswrite>:
    80009c12:	1101                	addi	sp,sp,-32
    80009c14:	ec22                	sd	s0,24(sp)
    80009c16:	1000                	addi	s0,sp,32
    80009c18:	87aa                	mv	a5,a0
    80009c1a:	feb43023          	sd	a1,-32(s0)
    80009c1e:	8732                	mv	a4,a2
    80009c20:	fef42623          	sw	a5,-20(s0)
    80009c24:	87ba                	mv	a5,a4
    80009c26:	fef42423          	sw	a5,-24(s0)
    80009c2a:	57fd                	li	a5,-1
    80009c2c:	853e                	mv	a0,a5
    80009c2e:	6462                	ld	s0,24(sp)
    80009c30:	6105                	addi	sp,sp,32
    80009c32:	8082                	ret

0000000080009c34 <statsread>:
    80009c34:	7179                	addi	sp,sp,-48
    80009c36:	f406                	sd	ra,40(sp)
    80009c38:	f022                	sd	s0,32(sp)
    80009c3a:	1800                	addi	s0,sp,48
    80009c3c:	87aa                	mv	a5,a0
    80009c3e:	fcb43823          	sd	a1,-48(s0)
    80009c42:	8732                	mv	a4,a2
    80009c44:	fcf42e23          	sw	a5,-36(s0)
    80009c48:	87ba                	mv	a5,a4
    80009c4a:	fcf42c23          	sw	a5,-40(s0)
    80009c4e:	00020517          	auipc	a0,0x20
    80009c52:	3ba50513          	addi	a0,a0,954 # 8002a008 <stats>
    80009c56:	ffff7097          	auipc	ra,0xffff7
    80009c5a:	67c080e7          	jalr	1660(ra) # 800012d2 <acquire>
    80009c5e:	00020717          	auipc	a4,0x20
    80009c62:	3aa70713          	addi	a4,a4,938 # 8002a008 <stats>
    80009c66:	6785                	lui	a5,0x1
    80009c68:	97ba                	add	a5,a5,a4
    80009c6a:	4f9c                	lw	a5,24(a5)
    80009c6c:	e39d                	bnez	a5,80009c92 <statsread+0x5e>
    80009c6e:	6585                	lui	a1,0x1
    80009c70:	00020517          	auipc	a0,0x20
    80009c74:	3b050513          	addi	a0,a0,944 # 8002a020 <stats+0x18>
    80009c78:	00000097          	auipc	ra,0x0
    80009c7c:	dc8080e7          	jalr	-568(ra) # 80009a40 <statscopyin>
    80009c80:	87aa                	mv	a5,a0
    80009c82:	86be                	mv	a3,a5
    80009c84:	00020717          	auipc	a4,0x20
    80009c88:	38470713          	addi	a4,a4,900 # 8002a008 <stats>
    80009c8c:	6785                	lui	a5,0x1
    80009c8e:	97ba                	add	a5,a5,a4
    80009c90:	cf94                	sw	a3,24(a5)
    80009c92:	00020717          	auipc	a4,0x20
    80009c96:	37670713          	addi	a4,a4,886 # 8002a008 <stats>
    80009c9a:	6785                	lui	a5,0x1
    80009c9c:	97ba                	add	a5,a5,a4
    80009c9e:	4f98                	lw	a4,24(a5)
    80009ca0:	00020697          	auipc	a3,0x20
    80009ca4:	36868693          	addi	a3,a3,872 # 8002a008 <stats>
    80009ca8:	6785                	lui	a5,0x1
    80009caa:	97b6                	add	a5,a5,a3
    80009cac:	4fdc                	lw	a5,28(a5)
    80009cae:	40f707bb          	subw	a5,a4,a5
    80009cb2:	fef42623          	sw	a5,-20(s0)
    80009cb6:	fec42783          	lw	a5,-20(s0)
    80009cba:	2781                	sext.w	a5,a5
    80009cbc:	08f05163          	blez	a5,80009d3e <statsread+0x10a>
    80009cc0:	fec42783          	lw	a5,-20(s0)
    80009cc4:	873e                	mv	a4,a5
    80009cc6:	fd842783          	lw	a5,-40(s0)
    80009cca:	2701                	sext.w	a4,a4
    80009ccc:	2781                	sext.w	a5,a5
    80009cce:	00e7d663          	bge	a5,a4,80009cda <statsread+0xa6>
    80009cd2:	fd842783          	lw	a5,-40(s0)
    80009cd6:	fef42623          	sw	a5,-20(s0)
    80009cda:	00020717          	auipc	a4,0x20
    80009cde:	32e70713          	addi	a4,a4,814 # 8002a008 <stats>
    80009ce2:	6785                	lui	a5,0x1
    80009ce4:	97ba                	add	a5,a5,a4
    80009ce6:	4fdc                	lw	a5,28(a5)
    80009ce8:	873e                	mv	a4,a5
    80009cea:	00020797          	auipc	a5,0x20
    80009cee:	33678793          	addi	a5,a5,822 # 8002a020 <stats+0x18>
    80009cf2:	973e                	add	a4,a4,a5
    80009cf4:	fec42683          	lw	a3,-20(s0)
    80009cf8:	fdc42783          	lw	a5,-36(s0)
    80009cfc:	863a                	mv	a2,a4
    80009cfe:	fd043583          	ld	a1,-48(s0)
    80009d02:	853e                	mv	a0,a5
    80009d04:	ffffa097          	auipc	ra,0xffffa
    80009d08:	e20080e7          	jalr	-480(ra) # 80003b24 <either_copyout>
    80009d0c:	87aa                	mv	a5,a0
    80009d0e:	873e                	mv	a4,a5
    80009d10:	57fd                	li	a5,-1
    80009d12:	04f70963          	beq	a4,a5,80009d64 <statsread+0x130>
    80009d16:	00020717          	auipc	a4,0x20
    80009d1a:	2f270713          	addi	a4,a4,754 # 8002a008 <stats>
    80009d1e:	6785                	lui	a5,0x1
    80009d20:	97ba                	add	a5,a5,a4
    80009d22:	4fdc                	lw	a5,28(a5)
    80009d24:	fec42703          	lw	a4,-20(s0)
    80009d28:	9fb9                	addw	a5,a5,a4
    80009d2a:	0007871b          	sext.w	a4,a5
    80009d2e:	00020697          	auipc	a3,0x20
    80009d32:	2da68693          	addi	a3,a3,730 # 8002a008 <stats>
    80009d36:	6785                	lui	a5,0x1
    80009d38:	97b6                	add	a5,a5,a3
    80009d3a:	cfd8                	sw	a4,28(a5)
    80009d3c:	a025                	j	80009d64 <statsread+0x130>
    80009d3e:	57fd                	li	a5,-1
    80009d40:	fef42623          	sw	a5,-20(s0)
    80009d44:	00020717          	auipc	a4,0x20
    80009d48:	2c470713          	addi	a4,a4,708 # 8002a008 <stats>
    80009d4c:	6785                	lui	a5,0x1
    80009d4e:	97ba                	add	a5,a5,a4
    80009d50:	0007ac23          	sw	zero,24(a5) # 1018 <_entry-0x7fffefe8>
    80009d54:	00020717          	auipc	a4,0x20
    80009d58:	2b470713          	addi	a4,a4,692 # 8002a008 <stats>
    80009d5c:	6785                	lui	a5,0x1
    80009d5e:	97ba                	add	a5,a5,a4
    80009d60:	0007ae23          	sw	zero,28(a5) # 101c <_entry-0x7fffefe4>
    80009d64:	00020517          	auipc	a0,0x20
    80009d68:	2a450513          	addi	a0,a0,676 # 8002a008 <stats>
    80009d6c:	ffff7097          	auipc	ra,0xffff7
    80009d70:	5ca080e7          	jalr	1482(ra) # 80001336 <release>
    80009d74:	fec42783          	lw	a5,-20(s0)
    80009d78:	853e                	mv	a0,a5
    80009d7a:	70a2                	ld	ra,40(sp)
    80009d7c:	7402                	ld	s0,32(sp)
    80009d7e:	6145                	addi	sp,sp,48
    80009d80:	8082                	ret

0000000080009d82 <statsinit>:
    80009d82:	1141                	addi	sp,sp,-16
    80009d84:	e406                	sd	ra,8(sp)
    80009d86:	e022                	sd	s0,0(sp)
    80009d88:	0800                	addi	s0,sp,16
    80009d8a:	00003597          	auipc	a1,0x3
    80009d8e:	aae58593          	addi	a1,a1,-1362 # 8000c838 <etext+0x838>
    80009d92:	00020517          	auipc	a0,0x20
    80009d96:	27650513          	addi	a0,a0,630 # 8002a008 <stats>
    80009d9a:	ffff7097          	auipc	ra,0xffff7
    80009d9e:	508080e7          	jalr	1288(ra) # 800012a2 <initlock>
    80009da2:	0001c797          	auipc	a5,0x1c
    80009da6:	c1678793          	addi	a5,a5,-1002 # 800259b8 <devsw>
    80009daa:	00000717          	auipc	a4,0x0
    80009dae:	e8a70713          	addi	a4,a4,-374 # 80009c34 <statsread>
    80009db2:	f398                	sd	a4,32(a5)
    80009db4:	0001c797          	auipc	a5,0x1c
    80009db8:	c0478793          	addi	a5,a5,-1020 # 800259b8 <devsw>
    80009dbc:	00000717          	auipc	a4,0x0
    80009dc0:	e5670713          	addi	a4,a4,-426 # 80009c12 <statswrite>
    80009dc4:	f798                	sd	a4,40(a5)
    80009dc6:	0001                	nop
    80009dc8:	60a2                	ld	ra,8(sp)
    80009dca:	6402                	ld	s0,0(sp)
    80009dcc:	0141                	addi	sp,sp,16
    80009dce:	8082                	ret

0000000080009dd0 <sputc>:
    80009dd0:	1101                	addi	sp,sp,-32
    80009dd2:	ec22                	sd	s0,24(sp)
    80009dd4:	1000                	addi	s0,sp,32
    80009dd6:	fea43423          	sd	a0,-24(s0)
    80009dda:	87ae                	mv	a5,a1
    80009ddc:	fef403a3          	sb	a5,-25(s0)
    80009de0:	fe843783          	ld	a5,-24(s0)
    80009de4:	fe744703          	lbu	a4,-25(s0)
    80009de8:	00e78023          	sb	a4,0(a5)
    80009dec:	4785                	li	a5,1
    80009dee:	853e                	mv	a0,a5
    80009df0:	6462                	ld	s0,24(sp)
    80009df2:	6105                	addi	sp,sp,32
    80009df4:	8082                	ret

0000000080009df6 <sprintint>:
    80009df6:	715d                	addi	sp,sp,-80
    80009df8:	e486                	sd	ra,72(sp)
    80009dfa:	e0a2                	sd	s0,64(sp)
    80009dfc:	0880                	addi	s0,sp,80
    80009dfe:	fca43423          	sd	a0,-56(s0)
    80009e02:	87ae                	mv	a5,a1
    80009e04:	8736                	mv	a4,a3
    80009e06:	fcf42223          	sw	a5,-60(s0)
    80009e0a:	87b2                	mv	a5,a2
    80009e0c:	fcf42023          	sw	a5,-64(s0)
    80009e10:	87ba                	mv	a5,a4
    80009e12:	faf42e23          	sw	a5,-68(s0)
    80009e16:	fbc42783          	lw	a5,-68(s0)
    80009e1a:	2781                	sext.w	a5,a5
    80009e1c:	c78d                	beqz	a5,80009e46 <sprintint+0x50>
    80009e1e:	fc442783          	lw	a5,-60(s0)
    80009e22:	01f7d79b          	srliw	a5,a5,0x1f
    80009e26:	0ff7f793          	zext.b	a5,a5
    80009e2a:	faf42e23          	sw	a5,-68(s0)
    80009e2e:	fbc42783          	lw	a5,-68(s0)
    80009e32:	2781                	sext.w	a5,a5
    80009e34:	cb89                	beqz	a5,80009e46 <sprintint+0x50>
    80009e36:	fc442783          	lw	a5,-60(s0)
    80009e3a:	40f007bb          	negw	a5,a5
    80009e3e:	2781                	sext.w	a5,a5
    80009e40:	fef42223          	sw	a5,-28(s0)
    80009e44:	a029                	j	80009e4e <sprintint+0x58>
    80009e46:	fc442783          	lw	a5,-60(s0)
    80009e4a:	fef42223          	sw	a5,-28(s0)
    80009e4e:	fe042623          	sw	zero,-20(s0)
    80009e52:	fc042783          	lw	a5,-64(s0)
    80009e56:	fe442703          	lw	a4,-28(s0)
    80009e5a:	02f777bb          	remuw	a5,a4,a5
    80009e5e:	0007861b          	sext.w	a2,a5
    80009e62:	fec42783          	lw	a5,-20(s0)
    80009e66:	0017871b          	addiw	a4,a5,1
    80009e6a:	fee42623          	sw	a4,-20(s0)
    80009e6e:	00003697          	auipc	a3,0x3
    80009e72:	b3268693          	addi	a3,a3,-1230 # 8000c9a0 <digits>
    80009e76:	02061713          	slli	a4,a2,0x20
    80009e7a:	9301                	srli	a4,a4,0x20
    80009e7c:	9736                	add	a4,a4,a3
    80009e7e:	00074703          	lbu	a4,0(a4)
    80009e82:	17c1                	addi	a5,a5,-16
    80009e84:	97a2                	add	a5,a5,s0
    80009e86:	fee78023          	sb	a4,-32(a5)
    80009e8a:	fc042783          	lw	a5,-64(s0)
    80009e8e:	fe442703          	lw	a4,-28(s0)
    80009e92:	02f757bb          	divuw	a5,a4,a5
    80009e96:	fef42223          	sw	a5,-28(s0)
    80009e9a:	fe442783          	lw	a5,-28(s0)
    80009e9e:	2781                	sext.w	a5,a5
    80009ea0:	fbcd                	bnez	a5,80009e52 <sprintint+0x5c>
    80009ea2:	fbc42783          	lw	a5,-68(s0)
    80009ea6:	2781                	sext.w	a5,a5
    80009ea8:	cf89                	beqz	a5,80009ec2 <sprintint+0xcc>
    80009eaa:	fec42783          	lw	a5,-20(s0)
    80009eae:	0017871b          	addiw	a4,a5,1
    80009eb2:	fee42623          	sw	a4,-20(s0)
    80009eb6:	17c1                	addi	a5,a5,-16
    80009eb8:	97a2                	add	a5,a5,s0
    80009eba:	02d00713          	li	a4,45
    80009ebe:	fee78023          	sb	a4,-32(a5)
    80009ec2:	fe042423          	sw	zero,-24(s0)
    80009ec6:	a805                	j	80009ef6 <sprintint+0x100>
    80009ec8:	fe842783          	lw	a5,-24(s0)
    80009ecc:	fc843703          	ld	a4,-56(s0)
    80009ed0:	973e                	add	a4,a4,a5
    80009ed2:	fec42783          	lw	a5,-20(s0)
    80009ed6:	17c1                	addi	a5,a5,-16
    80009ed8:	97a2                	add	a5,a5,s0
    80009eda:	fe07c783          	lbu	a5,-32(a5)
    80009ede:	85be                	mv	a1,a5
    80009ee0:	853a                	mv	a0,a4
    80009ee2:	00000097          	auipc	ra,0x0
    80009ee6:	eee080e7          	jalr	-274(ra) # 80009dd0 <sputc>
    80009eea:	87aa                	mv	a5,a0
    80009eec:	fe842703          	lw	a4,-24(s0)
    80009ef0:	9fb9                	addw	a5,a5,a4
    80009ef2:	fef42423          	sw	a5,-24(s0)
    80009ef6:	fec42783          	lw	a5,-20(s0)
    80009efa:	37fd                	addiw	a5,a5,-1
    80009efc:	fef42623          	sw	a5,-20(s0)
    80009f00:	fec42783          	lw	a5,-20(s0)
    80009f04:	2781                	sext.w	a5,a5
    80009f06:	fc07d1e3          	bgez	a5,80009ec8 <sprintint+0xd2>
    80009f0a:	fe842783          	lw	a5,-24(s0)
    80009f0e:	853e                	mv	a0,a5
    80009f10:	60a6                	ld	ra,72(sp)
    80009f12:	6406                	ld	s0,64(sp)
    80009f14:	6161                	addi	sp,sp,80
    80009f16:	8082                	ret

0000000080009f18 <snprintf>:
    80009f18:	7119                	addi	sp,sp,-128
    80009f1a:	e486                	sd	ra,72(sp)
    80009f1c:	e0a2                	sd	s0,64(sp)
    80009f1e:	0880                	addi	s0,sp,80
    80009f20:	fca43423          	sd	a0,-56(s0)
    80009f24:	fac43c23          	sd	a2,-72(s0)
    80009f28:	e414                	sd	a3,8(s0)
    80009f2a:	e818                	sd	a4,16(s0)
    80009f2c:	ec1c                	sd	a5,24(s0)
    80009f2e:	03043023          	sd	a6,32(s0)
    80009f32:	03143423          	sd	a7,40(s0)
    80009f36:	87ae                	mv	a5,a1
    80009f38:	fcf42223          	sw	a5,-60(s0)
    80009f3c:	fe042423          	sw	zero,-24(s0)
    80009f40:	fb843783          	ld	a5,-72(s0)
    80009f44:	eb89                	bnez	a5,80009f56 <snprintf+0x3e>
    80009f46:	00003517          	auipc	a0,0x3
    80009f4a:	8fa50513          	addi	a0,a0,-1798 # 8000c840 <etext+0x840>
    80009f4e:	ffff7097          	auipc	ra,0xffff7
    80009f52:	d50080e7          	jalr	-688(ra) # 80000c9e <panic>
    80009f56:	03040793          	addi	a5,s0,48
    80009f5a:	faf43823          	sd	a5,-80(s0)
    80009f5e:	fb043783          	ld	a5,-80(s0)
    80009f62:	fd878793          	addi	a5,a5,-40
    80009f66:	fcf43823          	sd	a5,-48(s0)
    80009f6a:	fe042623          	sw	zero,-20(s0)
    80009f6e:	a42d                	j	8000a198 <snprintf+0x280>
    80009f70:	fdc42783          	lw	a5,-36(s0)
    80009f74:	0007871b          	sext.w	a4,a5
    80009f78:	02500793          	li	a5,37
    80009f7c:	02f70863          	beq	a4,a5,80009fac <snprintf+0x94>
    80009f80:	fe842783          	lw	a5,-24(s0)
    80009f84:	fc843703          	ld	a4,-56(s0)
    80009f88:	97ba                	add	a5,a5,a4
    80009f8a:	fdc42703          	lw	a4,-36(s0)
    80009f8e:	0ff77713          	zext.b	a4,a4
    80009f92:	85ba                	mv	a1,a4
    80009f94:	853e                	mv	a0,a5
    80009f96:	00000097          	auipc	ra,0x0
    80009f9a:	e3a080e7          	jalr	-454(ra) # 80009dd0 <sputc>
    80009f9e:	87aa                	mv	a5,a0
    80009fa0:	fe842703          	lw	a4,-24(s0)
    80009fa4:	9fb9                	addw	a5,a5,a4
    80009fa6:	fef42423          	sw	a5,-24(s0)
    80009faa:	a2d5                	j	8000a18e <snprintf+0x276>
    80009fac:	fec42783          	lw	a5,-20(s0)
    80009fb0:	2785                	addiw	a5,a5,1
    80009fb2:	fef42623          	sw	a5,-20(s0)
    80009fb6:	fec42783          	lw	a5,-20(s0)
    80009fba:	fb843703          	ld	a4,-72(s0)
    80009fbe:	97ba                	add	a5,a5,a4
    80009fc0:	0007c783          	lbu	a5,0(a5)
    80009fc4:	fcf42e23          	sw	a5,-36(s0)
    80009fc8:	fdc42783          	lw	a5,-36(s0)
    80009fcc:	2781                	sext.w	a5,a5
    80009fce:	1e078d63          	beqz	a5,8000a1c8 <snprintf+0x2b0>
    80009fd2:	fdc42783          	lw	a5,-36(s0)
    80009fd6:	0007871b          	sext.w	a4,a5
    80009fda:	07800793          	li	a5,120
    80009fde:	08f70563          	beq	a4,a5,8000a068 <snprintf+0x150>
    80009fe2:	fdc42783          	lw	a5,-36(s0)
    80009fe6:	0007871b          	sext.w	a4,a5
    80009fea:	07800793          	li	a5,120
    80009fee:	14e7c763          	blt	a5,a4,8000a13c <snprintf+0x224>
    80009ff2:	fdc42783          	lw	a5,-36(s0)
    80009ff6:	0007871b          	sext.w	a4,a5
    80009ffa:	07300793          	li	a5,115
    80009ffe:	0af70063          	beq	a4,a5,8000a09e <snprintf+0x186>
    8000a002:	fdc42783          	lw	a5,-36(s0)
    8000a006:	0007871b          	sext.w	a4,a5
    8000a00a:	07300793          	li	a5,115
    8000a00e:	12e7c763          	blt	a5,a4,8000a13c <snprintf+0x224>
    8000a012:	fdc42783          	lw	a5,-36(s0)
    8000a016:	0007871b          	sext.w	a4,a5
    8000a01a:	02500793          	li	a5,37
    8000a01e:	0ef70c63          	beq	a4,a5,8000a116 <snprintf+0x1fe>
    8000a022:	fdc42783          	lw	a5,-36(s0)
    8000a026:	0007871b          	sext.w	a4,a5
    8000a02a:	06400793          	li	a5,100
    8000a02e:	10f71763          	bne	a4,a5,8000a13c <snprintf+0x224>
    8000a032:	fe842783          	lw	a5,-24(s0)
    8000a036:	fc843703          	ld	a4,-56(s0)
    8000a03a:	00f70533          	add	a0,a4,a5
    8000a03e:	fd043783          	ld	a5,-48(s0)
    8000a042:	00878713          	addi	a4,a5,8
    8000a046:	fce43823          	sd	a4,-48(s0)
    8000a04a:	439c                	lw	a5,0(a5)
    8000a04c:	4685                	li	a3,1
    8000a04e:	4629                	li	a2,10
    8000a050:	85be                	mv	a1,a5
    8000a052:	00000097          	auipc	ra,0x0
    8000a056:	da4080e7          	jalr	-604(ra) # 80009df6 <sprintint>
    8000a05a:	87aa                	mv	a5,a0
    8000a05c:	fe842703          	lw	a4,-24(s0)
    8000a060:	9fb9                	addw	a5,a5,a4
    8000a062:	fef42423          	sw	a5,-24(s0)
    8000a066:	a225                	j	8000a18e <snprintf+0x276>
    8000a068:	fe842783          	lw	a5,-24(s0)
    8000a06c:	fc843703          	ld	a4,-56(s0)
    8000a070:	00f70533          	add	a0,a4,a5
    8000a074:	fd043783          	ld	a5,-48(s0)
    8000a078:	00878713          	addi	a4,a5,8
    8000a07c:	fce43823          	sd	a4,-48(s0)
    8000a080:	439c                	lw	a5,0(a5)
    8000a082:	4685                	li	a3,1
    8000a084:	4641                	li	a2,16
    8000a086:	85be                	mv	a1,a5
    8000a088:	00000097          	auipc	ra,0x0
    8000a08c:	d6e080e7          	jalr	-658(ra) # 80009df6 <sprintint>
    8000a090:	87aa                	mv	a5,a0
    8000a092:	fe842703          	lw	a4,-24(s0)
    8000a096:	9fb9                	addw	a5,a5,a4
    8000a098:	fef42423          	sw	a5,-24(s0)
    8000a09c:	a8cd                	j	8000a18e <snprintf+0x276>
    8000a09e:	fd043783          	ld	a5,-48(s0)
    8000a0a2:	00878713          	addi	a4,a5,8
    8000a0a6:	fce43823          	sd	a4,-48(s0)
    8000a0aa:	639c                	ld	a5,0(a5)
    8000a0ac:	fef43023          	sd	a5,-32(s0)
    8000a0b0:	fe043783          	ld	a5,-32(s0)
    8000a0b4:	e3b1                	bnez	a5,8000a0f8 <snprintf+0x1e0>
    8000a0b6:	00002797          	auipc	a5,0x2
    8000a0ba:	79a78793          	addi	a5,a5,1946 # 8000c850 <etext+0x850>
    8000a0be:	fef43023          	sd	a5,-32(s0)
    8000a0c2:	a81d                	j	8000a0f8 <snprintf+0x1e0>
    8000a0c4:	fe842783          	lw	a5,-24(s0)
    8000a0c8:	fc843703          	ld	a4,-56(s0)
    8000a0cc:	973e                	add	a4,a4,a5
    8000a0ce:	fe043783          	ld	a5,-32(s0)
    8000a0d2:	0007c783          	lbu	a5,0(a5)
    8000a0d6:	85be                	mv	a1,a5
    8000a0d8:	853a                	mv	a0,a4
    8000a0da:	00000097          	auipc	ra,0x0
    8000a0de:	cf6080e7          	jalr	-778(ra) # 80009dd0 <sputc>
    8000a0e2:	87aa                	mv	a5,a0
    8000a0e4:	fe842703          	lw	a4,-24(s0)
    8000a0e8:	9fb9                	addw	a5,a5,a4
    8000a0ea:	fef42423          	sw	a5,-24(s0)
    8000a0ee:	fe043783          	ld	a5,-32(s0)
    8000a0f2:	0785                	addi	a5,a5,1
    8000a0f4:	fef43023          	sd	a5,-32(s0)
    8000a0f8:	fe043783          	ld	a5,-32(s0)
    8000a0fc:	0007c783          	lbu	a5,0(a5)
    8000a100:	c7d1                	beqz	a5,8000a18c <snprintf+0x274>
    8000a102:	fe842783          	lw	a5,-24(s0)
    8000a106:	873e                	mv	a4,a5
    8000a108:	fc442783          	lw	a5,-60(s0)
    8000a10c:	2701                	sext.w	a4,a4
    8000a10e:	2781                	sext.w	a5,a5
    8000a110:	faf74ae3          	blt	a4,a5,8000a0c4 <snprintf+0x1ac>
    8000a114:	a8a5                	j	8000a18c <snprintf+0x274>
    8000a116:	fe842783          	lw	a5,-24(s0)
    8000a11a:	fc843703          	ld	a4,-56(s0)
    8000a11e:	97ba                	add	a5,a5,a4
    8000a120:	02500593          	li	a1,37
    8000a124:	853e                	mv	a0,a5
    8000a126:	00000097          	auipc	ra,0x0
    8000a12a:	caa080e7          	jalr	-854(ra) # 80009dd0 <sputc>
    8000a12e:	87aa                	mv	a5,a0
    8000a130:	fe842703          	lw	a4,-24(s0)
    8000a134:	9fb9                	addw	a5,a5,a4
    8000a136:	fef42423          	sw	a5,-24(s0)
    8000a13a:	a891                	j	8000a18e <snprintf+0x276>
    8000a13c:	fe842783          	lw	a5,-24(s0)
    8000a140:	fc843703          	ld	a4,-56(s0)
    8000a144:	97ba                	add	a5,a5,a4
    8000a146:	02500593          	li	a1,37
    8000a14a:	853e                	mv	a0,a5
    8000a14c:	00000097          	auipc	ra,0x0
    8000a150:	c84080e7          	jalr	-892(ra) # 80009dd0 <sputc>
    8000a154:	87aa                	mv	a5,a0
    8000a156:	fe842703          	lw	a4,-24(s0)
    8000a15a:	9fb9                	addw	a5,a5,a4
    8000a15c:	fef42423          	sw	a5,-24(s0)
    8000a160:	fe842783          	lw	a5,-24(s0)
    8000a164:	fc843703          	ld	a4,-56(s0)
    8000a168:	97ba                	add	a5,a5,a4
    8000a16a:	fdc42703          	lw	a4,-36(s0)
    8000a16e:	0ff77713          	zext.b	a4,a4
    8000a172:	85ba                	mv	a1,a4
    8000a174:	853e                	mv	a0,a5
    8000a176:	00000097          	auipc	ra,0x0
    8000a17a:	c5a080e7          	jalr	-934(ra) # 80009dd0 <sputc>
    8000a17e:	87aa                	mv	a5,a0
    8000a180:	fe842703          	lw	a4,-24(s0)
    8000a184:	9fb9                	addw	a5,a5,a4
    8000a186:	fef42423          	sw	a5,-24(s0)
    8000a18a:	a011                	j	8000a18e <snprintf+0x276>
    8000a18c:	0001                	nop
    8000a18e:	fec42783          	lw	a5,-20(s0)
    8000a192:	2785                	addiw	a5,a5,1
    8000a194:	fef42623          	sw	a5,-20(s0)
    8000a198:	fe842783          	lw	a5,-24(s0)
    8000a19c:	873e                	mv	a4,a5
    8000a19e:	fc442783          	lw	a5,-60(s0)
    8000a1a2:	2701                	sext.w	a4,a4
    8000a1a4:	2781                	sext.w	a5,a5
    8000a1a6:	02f75263          	bge	a4,a5,8000a1ca <snprintf+0x2b2>
    8000a1aa:	fec42783          	lw	a5,-20(s0)
    8000a1ae:	fb843703          	ld	a4,-72(s0)
    8000a1b2:	97ba                	add	a5,a5,a4
    8000a1b4:	0007c783          	lbu	a5,0(a5)
    8000a1b8:	fcf42e23          	sw	a5,-36(s0)
    8000a1bc:	fdc42783          	lw	a5,-36(s0)
    8000a1c0:	2781                	sext.w	a5,a5
    8000a1c2:	da0797e3          	bnez	a5,80009f70 <snprintf+0x58>
    8000a1c6:	a011                	j	8000a1ca <snprintf+0x2b2>
    8000a1c8:	0001                	nop
    8000a1ca:	fe842783          	lw	a5,-24(s0)
    8000a1ce:	853e                	mv	a0,a5
    8000a1d0:	60a6                	ld	ra,72(sp)
    8000a1d2:	6406                	ld	s0,64(sp)
    8000a1d4:	6109                	addi	sp,sp,128
    8000a1d6:	8082                	ret
	...

000000008000b000 <_trampoline>:
    8000b000:	14051573          	csrrw	a0,sscratch,a0
    8000b004:	02153423          	sd	ra,40(a0)
    8000b008:	02253823          	sd	sp,48(a0)
    8000b00c:	02353c23          	sd	gp,56(a0)
    8000b010:	04453023          	sd	tp,64(a0)
    8000b014:	04553423          	sd	t0,72(a0)
    8000b018:	04653823          	sd	t1,80(a0)
    8000b01c:	04753c23          	sd	t2,88(a0)
    8000b020:	f120                	sd	s0,96(a0)
    8000b022:	f524                	sd	s1,104(a0)
    8000b024:	fd2c                	sd	a1,120(a0)
    8000b026:	e150                	sd	a2,128(a0)
    8000b028:	e554                	sd	a3,136(a0)
    8000b02a:	e958                	sd	a4,144(a0)
    8000b02c:	ed5c                	sd	a5,152(a0)
    8000b02e:	0b053023          	sd	a6,160(a0)
    8000b032:	0b153423          	sd	a7,168(a0)
    8000b036:	0b253823          	sd	s2,176(a0)
    8000b03a:	0b353c23          	sd	s3,184(a0)
    8000b03e:	0d453023          	sd	s4,192(a0)
    8000b042:	0d553423          	sd	s5,200(a0)
    8000b046:	0d653823          	sd	s6,208(a0)
    8000b04a:	0d753c23          	sd	s7,216(a0)
    8000b04e:	0f853023          	sd	s8,224(a0)
    8000b052:	0f953423          	sd	s9,232(a0)
    8000b056:	0fa53823          	sd	s10,240(a0)
    8000b05a:	0fb53c23          	sd	s11,248(a0)
    8000b05e:	11c53023          	sd	t3,256(a0)
    8000b062:	11d53423          	sd	t4,264(a0)
    8000b066:	11e53823          	sd	t5,272(a0)
    8000b06a:	11f53c23          	sd	t6,280(a0)
    8000b06e:	140022f3          	csrr	t0,sscratch
    8000b072:	06553823          	sd	t0,112(a0)
    8000b076:	00853103          	ld	sp,8(a0)
    8000b07a:	02053203          	ld	tp,32(a0)
    8000b07e:	01053283          	ld	t0,16(a0)
    8000b082:	00053303          	ld	t1,0(a0)
    8000b086:	8282                	jr	t0

000000008000b088 <userret>:
    8000b088:	07053283          	ld	t0,112(a0)
    8000b08c:	14029073          	csrw	sscratch,t0
    8000b090:	02853083          	ld	ra,40(a0)
    8000b094:	03053103          	ld	sp,48(a0)
    8000b098:	03853183          	ld	gp,56(a0)
    8000b09c:	04053203          	ld	tp,64(a0)
    8000b0a0:	04853283          	ld	t0,72(a0)
    8000b0a4:	05053303          	ld	t1,80(a0)
    8000b0a8:	05853383          	ld	t2,88(a0)
    8000b0ac:	7120                	ld	s0,96(a0)
    8000b0ae:	7524                	ld	s1,104(a0)
    8000b0b0:	7d2c                	ld	a1,120(a0)
    8000b0b2:	6150                	ld	a2,128(a0)
    8000b0b4:	6554                	ld	a3,136(a0)
    8000b0b6:	6958                	ld	a4,144(a0)
    8000b0b8:	6d5c                	ld	a5,152(a0)
    8000b0ba:	0a053803          	ld	a6,160(a0)
    8000b0be:	0a853883          	ld	a7,168(a0)
    8000b0c2:	0b053903          	ld	s2,176(a0)
    8000b0c6:	0b853983          	ld	s3,184(a0)
    8000b0ca:	0c053a03          	ld	s4,192(a0)
    8000b0ce:	0c853a83          	ld	s5,200(a0)
    8000b0d2:	0d053b03          	ld	s6,208(a0)
    8000b0d6:	0d853b83          	ld	s7,216(a0)
    8000b0da:	0e053c03          	ld	s8,224(a0)
    8000b0de:	0e853c83          	ld	s9,232(a0)
    8000b0e2:	0f053d03          	ld	s10,240(a0)
    8000b0e6:	0f853d83          	ld	s11,248(a0)
    8000b0ea:	10053e03          	ld	t3,256(a0)
    8000b0ee:	10853e83          	ld	t4,264(a0)
    8000b0f2:	11053f03          	ld	t5,272(a0)
    8000b0f6:	11853f83          	ld	t6,280(a0)
    8000b0fa:	14051573          	csrrw	a0,sscratch,a0
    8000b0fe:	10200073          	sret
	...
