
kernel/kernel:     file format elf64-littleriscv


Disassembly of section .text:

0000000080000000 <_entry>:
    80000000:	0000d117          	auipc	sp,0xd
    80000004:	03010113          	addi	sp,sp,48 # 8000d030 <stack0>
    80000008:	6505                	lui	a0,0x1
    8000000a:	f14025f3          	csrr	a1,mhartid
    8000000e:	0585                	addi	a1,a1,1
    80000010:	02b50533          	mul	a0,a0,a1
    80000014:	912a                	add	sp,sp,a0
    80000016:	1a4000ef          	jal	800001ba <start>

000000008000001a <spin>:
    8000001a:	a001                	j	8000001a <spin>

000000008000001c <r_mhartid>:
    8000001c:	1101                	addi	sp,sp,-32
    8000001e:	ec22                	sd	s0,24(sp)
    80000020:	1000                	addi	s0,sp,32
    80000022:	f14027f3          	csrr	a5,mhartid
    80000026:	fef43423          	sd	a5,-24(s0)
    8000002a:	fe843783          	ld	a5,-24(s0)
    8000002e:	853e                	mv	a0,a5
    80000030:	6462                	ld	s0,24(sp)
    80000032:	6105                	addi	sp,sp,32
    80000034:	8082                	ret

0000000080000036 <r_mstatus>:
    80000036:	1101                	addi	sp,sp,-32
    80000038:	ec22                	sd	s0,24(sp)
    8000003a:	1000                	addi	s0,sp,32
    8000003c:	300027f3          	csrr	a5,mstatus
    80000040:	fef43423          	sd	a5,-24(s0)
    80000044:	fe843783          	ld	a5,-24(s0)
    80000048:	853e                	mv	a0,a5
    8000004a:	6462                	ld	s0,24(sp)
    8000004c:	6105                	addi	sp,sp,32
    8000004e:	8082                	ret

0000000080000050 <w_mstatus>:
    80000050:	1101                	addi	sp,sp,-32
    80000052:	ec22                	sd	s0,24(sp)
    80000054:	1000                	addi	s0,sp,32
    80000056:	fea43423          	sd	a0,-24(s0)
    8000005a:	fe843783          	ld	a5,-24(s0)
    8000005e:	30079073          	csrw	mstatus,a5
    80000062:	0001                	nop
    80000064:	6462                	ld	s0,24(sp)
    80000066:	6105                	addi	sp,sp,32
    80000068:	8082                	ret

000000008000006a <w_mepc>:
    8000006a:	1101                	addi	sp,sp,-32
    8000006c:	ec22                	sd	s0,24(sp)
    8000006e:	1000                	addi	s0,sp,32
    80000070:	fea43423          	sd	a0,-24(s0)
    80000074:	fe843783          	ld	a5,-24(s0)
    80000078:	34179073          	csrw	mepc,a5
    8000007c:	0001                	nop
    8000007e:	6462                	ld	s0,24(sp)
    80000080:	6105                	addi	sp,sp,32
    80000082:	8082                	ret

0000000080000084 <r_sie>:
    80000084:	1101                	addi	sp,sp,-32
    80000086:	ec22                	sd	s0,24(sp)
    80000088:	1000                	addi	s0,sp,32
    8000008a:	104027f3          	csrr	a5,sie
    8000008e:	fef43423          	sd	a5,-24(s0)
    80000092:	fe843783          	ld	a5,-24(s0)
    80000096:	853e                	mv	a0,a5
    80000098:	6462                	ld	s0,24(sp)
    8000009a:	6105                	addi	sp,sp,32
    8000009c:	8082                	ret

000000008000009e <w_sie>:
    8000009e:	1101                	addi	sp,sp,-32
    800000a0:	ec22                	sd	s0,24(sp)
    800000a2:	1000                	addi	s0,sp,32
    800000a4:	fea43423          	sd	a0,-24(s0)
    800000a8:	fe843783          	ld	a5,-24(s0)
    800000ac:	10479073          	csrw	sie,a5
    800000b0:	0001                	nop
    800000b2:	6462                	ld	s0,24(sp)
    800000b4:	6105                	addi	sp,sp,32
    800000b6:	8082                	ret

00000000800000b8 <r_mie>:
    800000b8:	1101                	addi	sp,sp,-32
    800000ba:	ec22                	sd	s0,24(sp)
    800000bc:	1000                	addi	s0,sp,32
    800000be:	304027f3          	csrr	a5,mie
    800000c2:	fef43423          	sd	a5,-24(s0)
    800000c6:	fe843783          	ld	a5,-24(s0)
    800000ca:	853e                	mv	a0,a5
    800000cc:	6462                	ld	s0,24(sp)
    800000ce:	6105                	addi	sp,sp,32
    800000d0:	8082                	ret

00000000800000d2 <w_mie>:
    800000d2:	1101                	addi	sp,sp,-32
    800000d4:	ec22                	sd	s0,24(sp)
    800000d6:	1000                	addi	s0,sp,32
    800000d8:	fea43423          	sd	a0,-24(s0)
    800000dc:	fe843783          	ld	a5,-24(s0)
    800000e0:	30479073          	csrw	mie,a5
    800000e4:	0001                	nop
    800000e6:	6462                	ld	s0,24(sp)
    800000e8:	6105                	addi	sp,sp,32
    800000ea:	8082                	ret

00000000800000ec <w_medeleg>:
    800000ec:	1101                	addi	sp,sp,-32
    800000ee:	ec22                	sd	s0,24(sp)
    800000f0:	1000                	addi	s0,sp,32
    800000f2:	fea43423          	sd	a0,-24(s0)
    800000f6:	fe843783          	ld	a5,-24(s0)
    800000fa:	30279073          	csrw	medeleg,a5
    800000fe:	0001                	nop
    80000100:	6462                	ld	s0,24(sp)
    80000102:	6105                	addi	sp,sp,32
    80000104:	8082                	ret

0000000080000106 <w_mideleg>:
    80000106:	1101                	addi	sp,sp,-32
    80000108:	ec22                	sd	s0,24(sp)
    8000010a:	1000                	addi	s0,sp,32
    8000010c:	fea43423          	sd	a0,-24(s0)
    80000110:	fe843783          	ld	a5,-24(s0)
    80000114:	30379073          	csrw	mideleg,a5
    80000118:	0001                	nop
    8000011a:	6462                	ld	s0,24(sp)
    8000011c:	6105                	addi	sp,sp,32
    8000011e:	8082                	ret

0000000080000120 <w_mtvec>:
    80000120:	1101                	addi	sp,sp,-32
    80000122:	ec22                	sd	s0,24(sp)
    80000124:	1000                	addi	s0,sp,32
    80000126:	fea43423          	sd	a0,-24(s0)
    8000012a:	fe843783          	ld	a5,-24(s0)
    8000012e:	30579073          	csrw	mtvec,a5
    80000132:	0001                	nop
    80000134:	6462                	ld	s0,24(sp)
    80000136:	6105                	addi	sp,sp,32
    80000138:	8082                	ret

000000008000013a <w_pmpcfg0>:
    8000013a:	1101                	addi	sp,sp,-32
    8000013c:	ec22                	sd	s0,24(sp)
    8000013e:	1000                	addi	s0,sp,32
    80000140:	fea43423          	sd	a0,-24(s0)
    80000144:	fe843783          	ld	a5,-24(s0)
    80000148:	3a079073          	csrw	pmpcfg0,a5
    8000014c:	0001                	nop
    8000014e:	6462                	ld	s0,24(sp)
    80000150:	6105                	addi	sp,sp,32
    80000152:	8082                	ret

0000000080000154 <w_pmpaddr0>:
    80000154:	1101                	addi	sp,sp,-32
    80000156:	ec22                	sd	s0,24(sp)
    80000158:	1000                	addi	s0,sp,32
    8000015a:	fea43423          	sd	a0,-24(s0)
    8000015e:	fe843783          	ld	a5,-24(s0)
    80000162:	3b079073          	csrw	pmpaddr0,a5
    80000166:	0001                	nop
    80000168:	6462                	ld	s0,24(sp)
    8000016a:	6105                	addi	sp,sp,32
    8000016c:	8082                	ret

000000008000016e <w_satp>:
    8000016e:	1101                	addi	sp,sp,-32
    80000170:	ec22                	sd	s0,24(sp)
    80000172:	1000                	addi	s0,sp,32
    80000174:	fea43423          	sd	a0,-24(s0)
    80000178:	fe843783          	ld	a5,-24(s0)
    8000017c:	18079073          	csrw	satp,a5
    80000180:	0001                	nop
    80000182:	6462                	ld	s0,24(sp)
    80000184:	6105                	addi	sp,sp,32
    80000186:	8082                	ret

0000000080000188 <w_mscratch>:
    80000188:	1101                	addi	sp,sp,-32
    8000018a:	ec22                	sd	s0,24(sp)
    8000018c:	1000                	addi	s0,sp,32
    8000018e:	fea43423          	sd	a0,-24(s0)
    80000192:	fe843783          	ld	a5,-24(s0)
    80000196:	34079073          	csrw	mscratch,a5
    8000019a:	0001                	nop
    8000019c:	6462                	ld	s0,24(sp)
    8000019e:	6105                	addi	sp,sp,32
    800001a0:	8082                	ret

00000000800001a2 <w_tp>:
    800001a2:	1101                	addi	sp,sp,-32
    800001a4:	ec22                	sd	s0,24(sp)
    800001a6:	1000                	addi	s0,sp,32
    800001a8:	fea43423          	sd	a0,-24(s0)
    800001ac:	fe843783          	ld	a5,-24(s0)
    800001b0:	823e                	mv	tp,a5
    800001b2:	0001                	nop
    800001b4:	6462                	ld	s0,24(sp)
    800001b6:	6105                	addi	sp,sp,32
    800001b8:	8082                	ret

00000000800001ba <start>:
    800001ba:	1101                	addi	sp,sp,-32
    800001bc:	ec06                	sd	ra,24(sp)
    800001be:	e822                	sd	s0,16(sp)
    800001c0:	1000                	addi	s0,sp,32
    800001c2:	00000097          	auipc	ra,0x0
    800001c6:	e74080e7          	jalr	-396(ra) # 80000036 <r_mstatus>
    800001ca:	fea43423          	sd	a0,-24(s0)
    800001ce:	fe843703          	ld	a4,-24(s0)
    800001d2:	77f9                	lui	a5,0xffffe
    800001d4:	7ff78793          	addi	a5,a5,2047 # ffffffffffffe7ff <end+0xffffffff7ffd37d7>
    800001d8:	8ff9                	and	a5,a5,a4
    800001da:	fef43423          	sd	a5,-24(s0)
    800001de:	fe843703          	ld	a4,-24(s0)
    800001e2:	6785                	lui	a5,0x1
    800001e4:	80078793          	addi	a5,a5,-2048 # 800 <_entry-0x7ffff800>
    800001e8:	8fd9                	or	a5,a5,a4
    800001ea:	fef43423          	sd	a5,-24(s0)
    800001ee:	fe843503          	ld	a0,-24(s0)
    800001f2:	00000097          	auipc	ra,0x0
    800001f6:	e5e080e7          	jalr	-418(ra) # 80000050 <w_mstatus>
    800001fa:	00001797          	auipc	a5,0x1
    800001fe:	65478793          	addi	a5,a5,1620 # 8000184e <main>
    80000202:	853e                	mv	a0,a5
    80000204:	00000097          	auipc	ra,0x0
    80000208:	e66080e7          	jalr	-410(ra) # 8000006a <w_mepc>
    8000020c:	4501                	li	a0,0
    8000020e:	00000097          	auipc	ra,0x0
    80000212:	f60080e7          	jalr	-160(ra) # 8000016e <w_satp>
    80000216:	67c1                	lui	a5,0x10
    80000218:	fff78513          	addi	a0,a5,-1 # ffff <_entry-0x7fff0001>
    8000021c:	00000097          	auipc	ra,0x0
    80000220:	ed0080e7          	jalr	-304(ra) # 800000ec <w_medeleg>
    80000224:	67c1                	lui	a5,0x10
    80000226:	fff78513          	addi	a0,a5,-1 # ffff <_entry-0x7fff0001>
    8000022a:	00000097          	auipc	ra,0x0
    8000022e:	edc080e7          	jalr	-292(ra) # 80000106 <w_mideleg>
    80000232:	00000097          	auipc	ra,0x0
    80000236:	e52080e7          	jalr	-430(ra) # 80000084 <r_sie>
    8000023a:	87aa                	mv	a5,a0
    8000023c:	2227e793          	ori	a5,a5,546
    80000240:	853e                	mv	a0,a5
    80000242:	00000097          	auipc	ra,0x0
    80000246:	e5c080e7          	jalr	-420(ra) # 8000009e <w_sie>
    8000024a:	57fd                	li	a5,-1
    8000024c:	00b7d513          	srli	a0,a5,0xb
    80000250:	00000097          	auipc	ra,0x0
    80000254:	f04080e7          	jalr	-252(ra) # 80000154 <w_pmpaddr0>
    80000258:	457d                	li	a0,31
    8000025a:	00000097          	auipc	ra,0x0
    8000025e:	ee0080e7          	jalr	-288(ra) # 8000013a <w_pmpcfg0>
    80000262:	00000097          	auipc	ra,0x0
    80000266:	032080e7          	jalr	50(ra) # 80000294 <timerinit>
    8000026a:	00000097          	auipc	ra,0x0
    8000026e:	db2080e7          	jalr	-590(ra) # 8000001c <r_mhartid>
    80000272:	87aa                	mv	a5,a0
    80000274:	fef42223          	sw	a5,-28(s0)
    80000278:	fe442783          	lw	a5,-28(s0)
    8000027c:	853e                	mv	a0,a5
    8000027e:	00000097          	auipc	ra,0x0
    80000282:	f24080e7          	jalr	-220(ra) # 800001a2 <w_tp>
    80000286:	30200073          	mret
    8000028a:	0001                	nop
    8000028c:	60e2                	ld	ra,24(sp)
    8000028e:	6442                	ld	s0,16(sp)
    80000290:	6105                	addi	sp,sp,32
    80000292:	8082                	ret

0000000080000294 <timerinit>:
    80000294:	1101                	addi	sp,sp,-32
    80000296:	ec06                	sd	ra,24(sp)
    80000298:	e822                	sd	s0,16(sp)
    8000029a:	1000                	addi	s0,sp,32
    8000029c:	00000097          	auipc	ra,0x0
    800002a0:	d80080e7          	jalr	-640(ra) # 8000001c <r_mhartid>
    800002a4:	87aa                	mv	a5,a0
    800002a6:	fef42623          	sw	a5,-20(s0)
    800002aa:	000f47b7          	lui	a5,0xf4
    800002ae:	24078793          	addi	a5,a5,576 # f4240 <_entry-0x7ff0bdc0>
    800002b2:	fef42423          	sw	a5,-24(s0)
    800002b6:	0200c7b7          	lui	a5,0x200c
    800002ba:	17e1                	addi	a5,a5,-8 # 200bff8 <_entry-0x7dff4008>
    800002bc:	6398                	ld	a4,0(a5)
    800002be:	fe842783          	lw	a5,-24(s0)
    800002c2:	fec42683          	lw	a3,-20(s0)
    800002c6:	0036969b          	slliw	a3,a3,0x3
    800002ca:	2681                	sext.w	a3,a3
    800002cc:	8636                	mv	a2,a3
    800002ce:	020046b7          	lui	a3,0x2004
    800002d2:	96b2                	add	a3,a3,a2
    800002d4:	97ba                	add	a5,a5,a4
    800002d6:	e29c                	sd	a5,0(a3)
    800002d8:	fec42783          	lw	a5,-20(s0)
    800002dc:	0057979b          	slliw	a5,a5,0x5
    800002e0:	2781                	sext.w	a5,a5
    800002e2:	00379713          	slli	a4,a5,0x3
    800002e6:	00015797          	auipc	a5,0x15
    800002ea:	d4a78793          	addi	a5,a5,-694 # 80015030 <mscratch0>
    800002ee:	97ba                	add	a5,a5,a4
    800002f0:	fef43023          	sd	a5,-32(s0)
    800002f4:	fec42783          	lw	a5,-20(s0)
    800002f8:	0037979b          	slliw	a5,a5,0x3
    800002fc:	2781                	sext.w	a5,a5
    800002fe:	873e                	mv	a4,a5
    80000300:	020047b7          	lui	a5,0x2004
    80000304:	973e                	add	a4,a4,a5
    80000306:	fe043783          	ld	a5,-32(s0)
    8000030a:	02078793          	addi	a5,a5,32 # 2004020 <_entry-0x7dffbfe0>
    8000030e:	e398                	sd	a4,0(a5)
    80000310:	fe043783          	ld	a5,-32(s0)
    80000314:	02878793          	addi	a5,a5,40
    80000318:	fe842703          	lw	a4,-24(s0)
    8000031c:	e398                	sd	a4,0(a5)
    8000031e:	fe043783          	ld	a5,-32(s0)
    80000322:	853e                	mv	a0,a5
    80000324:	00000097          	auipc	ra,0x0
    80000328:	e64080e7          	jalr	-412(ra) # 80000188 <w_mscratch>
    8000032c:	00009797          	auipc	a5,0x9
    80000330:	c7478793          	addi	a5,a5,-908 # 80008fa0 <timervec>
    80000334:	853e                	mv	a0,a5
    80000336:	00000097          	auipc	ra,0x0
    8000033a:	dea080e7          	jalr	-534(ra) # 80000120 <w_mtvec>
    8000033e:	00000097          	auipc	ra,0x0
    80000342:	cf8080e7          	jalr	-776(ra) # 80000036 <r_mstatus>
    80000346:	87aa                	mv	a5,a0
    80000348:	0087e793          	ori	a5,a5,8
    8000034c:	853e                	mv	a0,a5
    8000034e:	00000097          	auipc	ra,0x0
    80000352:	d02080e7          	jalr	-766(ra) # 80000050 <w_mstatus>
    80000356:	00000097          	auipc	ra,0x0
    8000035a:	d62080e7          	jalr	-670(ra) # 800000b8 <r_mie>
    8000035e:	87aa                	mv	a5,a0
    80000360:	0807e793          	ori	a5,a5,128
    80000364:	853e                	mv	a0,a5
    80000366:	00000097          	auipc	ra,0x0
    8000036a:	d6c080e7          	jalr	-660(ra) # 800000d2 <w_mie>
    8000036e:	0001                	nop
    80000370:	60e2                	ld	ra,24(sp)
    80000372:	6442                	ld	s0,16(sp)
    80000374:	6105                	addi	sp,sp,32
    80000376:	8082                	ret

0000000080000378 <consputc>:
    80000378:	1101                	addi	sp,sp,-32
    8000037a:	ec06                	sd	ra,24(sp)
    8000037c:	e822                	sd	s0,16(sp)
    8000037e:	1000                	addi	s0,sp,32
    80000380:	87aa                	mv	a5,a0
    80000382:	fef42623          	sw	a5,-20(s0)
    80000386:	fec42783          	lw	a5,-20(s0)
    8000038a:	0007871b          	sext.w	a4,a5
    8000038e:	10000793          	li	a5,256
    80000392:	02f71363          	bne	a4,a5,800003b8 <consputc+0x40>
    80000396:	4521                	li	a0,8
    80000398:	00001097          	auipc	ra,0x1
    8000039c:	af6080e7          	jalr	-1290(ra) # 80000e8e <uartputc_sync>
    800003a0:	02000513          	li	a0,32
    800003a4:	00001097          	auipc	ra,0x1
    800003a8:	aea080e7          	jalr	-1302(ra) # 80000e8e <uartputc_sync>
    800003ac:	4521                	li	a0,8
    800003ae:	00001097          	auipc	ra,0x1
    800003b2:	ae0080e7          	jalr	-1312(ra) # 80000e8e <uartputc_sync>
    800003b6:	a801                	j	800003c6 <consputc+0x4e>
    800003b8:	fec42783          	lw	a5,-20(s0)
    800003bc:	853e                	mv	a0,a5
    800003be:	00001097          	auipc	ra,0x1
    800003c2:	ad0080e7          	jalr	-1328(ra) # 80000e8e <uartputc_sync>
    800003c6:	0001                	nop
    800003c8:	60e2                	ld	ra,24(sp)
    800003ca:	6442                	ld	s0,16(sp)
    800003cc:	6105                	addi	sp,sp,32
    800003ce:	8082                	ret

00000000800003d0 <consolewrite>:
    800003d0:	7179                	addi	sp,sp,-48
    800003d2:	f406                	sd	ra,40(sp)
    800003d4:	f022                	sd	s0,32(sp)
    800003d6:	1800                	addi	s0,sp,48
    800003d8:	87aa                	mv	a5,a0
    800003da:	fcb43823          	sd	a1,-48(s0)
    800003de:	8732                	mv	a4,a2
    800003e0:	fcf42e23          	sw	a5,-36(s0)
    800003e4:	87ba                	mv	a5,a4
    800003e6:	fcf42c23          	sw	a5,-40(s0)
    800003ea:	00015517          	auipc	a0,0x15
    800003ee:	44650513          	addi	a0,a0,1094 # 80015830 <cons>
    800003f2:	00001097          	auipc	ra,0x1
    800003f6:	ee0080e7          	jalr	-288(ra) # 800012d2 <acquire>
    800003fa:	fe042623          	sw	zero,-20(s0)
    800003fe:	a0a1                	j	80000446 <consolewrite+0x76>
    80000400:	fec42703          	lw	a4,-20(s0)
    80000404:	fd043783          	ld	a5,-48(s0)
    80000408:	00f70633          	add	a2,a4,a5
    8000040c:	fdc42703          	lw	a4,-36(s0)
    80000410:	feb40793          	addi	a5,s0,-21
    80000414:	4685                	li	a3,1
    80000416:	85ba                	mv	a1,a4
    80000418:	853e                	mv	a0,a5
    8000041a:	00003097          	auipc	ra,0x3
    8000041e:	77e080e7          	jalr	1918(ra) # 80003b98 <either_copyin>
    80000422:	87aa                	mv	a5,a0
    80000424:	873e                	mv	a4,a5
    80000426:	57fd                	li	a5,-1
    80000428:	02f70963          	beq	a4,a5,8000045a <consolewrite+0x8a>
    8000042c:	feb44783          	lbu	a5,-21(s0)
    80000430:	2781                	sext.w	a5,a5
    80000432:	853e                	mv	a0,a5
    80000434:	00001097          	auipc	ra,0x1
    80000438:	96e080e7          	jalr	-1682(ra) # 80000da2 <uartputc>
    8000043c:	fec42783          	lw	a5,-20(s0)
    80000440:	2785                	addiw	a5,a5,1
    80000442:	fef42623          	sw	a5,-20(s0)
    80000446:	fec42783          	lw	a5,-20(s0)
    8000044a:	873e                	mv	a4,a5
    8000044c:	fd842783          	lw	a5,-40(s0)
    80000450:	2701                	sext.w	a4,a4
    80000452:	2781                	sext.w	a5,a5
    80000454:	faf746e3          	blt	a4,a5,80000400 <consolewrite+0x30>
    80000458:	a011                	j	8000045c <consolewrite+0x8c>
    8000045a:	0001                	nop
    8000045c:	00015517          	auipc	a0,0x15
    80000460:	3d450513          	addi	a0,a0,980 # 80015830 <cons>
    80000464:	00001097          	auipc	ra,0x1
    80000468:	ed2080e7          	jalr	-302(ra) # 80001336 <release>
    8000046c:	fec42783          	lw	a5,-20(s0)
    80000470:	853e                	mv	a0,a5
    80000472:	70a2                	ld	ra,40(sp)
    80000474:	7402                	ld	s0,32(sp)
    80000476:	6145                	addi	sp,sp,48
    80000478:	8082                	ret

000000008000047a <consoleread>:
    8000047a:	7179                	addi	sp,sp,-48
    8000047c:	f406                	sd	ra,40(sp)
    8000047e:	f022                	sd	s0,32(sp)
    80000480:	1800                	addi	s0,sp,48
    80000482:	87aa                	mv	a5,a0
    80000484:	fcb43823          	sd	a1,-48(s0)
    80000488:	8732                	mv	a4,a2
    8000048a:	fcf42e23          	sw	a5,-36(s0)
    8000048e:	87ba                	mv	a5,a4
    80000490:	fcf42c23          	sw	a5,-40(s0)
    80000494:	fd842783          	lw	a5,-40(s0)
    80000498:	fef42623          	sw	a5,-20(s0)
    8000049c:	00015517          	auipc	a0,0x15
    800004a0:	39450513          	addi	a0,a0,916 # 80015830 <cons>
    800004a4:	00001097          	auipc	ra,0x1
    800004a8:	e2e080e7          	jalr	-466(ra) # 800012d2 <acquire>
    800004ac:	a215                	j	800005d0 <consoleread+0x156>
    800004ae:	00002097          	auipc	ra,0x2
    800004b2:	4a4080e7          	jalr	1188(ra) # 80002952 <myproc>
    800004b6:	87aa                	mv	a5,a0
    800004b8:	5b9c                	lw	a5,48(a5)
    800004ba:	cb99                	beqz	a5,800004d0 <consoleread+0x56>
    800004bc:	00015517          	auipc	a0,0x15
    800004c0:	37450513          	addi	a0,a0,884 # 80015830 <cons>
    800004c4:	00001097          	auipc	ra,0x1
    800004c8:	e72080e7          	jalr	-398(ra) # 80001336 <release>
    800004cc:	57fd                	li	a5,-1
    800004ce:	aa25                	j	80000606 <consoleread+0x18c>
    800004d0:	00015597          	auipc	a1,0x15
    800004d4:	36058593          	addi	a1,a1,864 # 80015830 <cons>
    800004d8:	00015517          	auipc	a0,0x15
    800004dc:	3f050513          	addi	a0,a0,1008 # 800158c8 <cons+0x98>
    800004e0:	00003097          	auipc	ra,0x3
    800004e4:	432080e7          	jalr	1074(ra) # 80003912 <sleep>
    800004e8:	00015797          	auipc	a5,0x15
    800004ec:	34878793          	addi	a5,a5,840 # 80015830 <cons>
    800004f0:	0987a703          	lw	a4,152(a5)
    800004f4:	00015797          	auipc	a5,0x15
    800004f8:	33c78793          	addi	a5,a5,828 # 80015830 <cons>
    800004fc:	09c7a783          	lw	a5,156(a5)
    80000500:	faf707e3          	beq	a4,a5,800004ae <consoleread+0x34>
    80000504:	00015797          	auipc	a5,0x15
    80000508:	32c78793          	addi	a5,a5,812 # 80015830 <cons>
    8000050c:	0987a783          	lw	a5,152(a5)
    80000510:	2781                	sext.w	a5,a5
    80000512:	0017871b          	addiw	a4,a5,1
    80000516:	0007069b          	sext.w	a3,a4
    8000051a:	00015717          	auipc	a4,0x15
    8000051e:	31670713          	addi	a4,a4,790 # 80015830 <cons>
    80000522:	08d72c23          	sw	a3,152(a4)
    80000526:	07f7f793          	andi	a5,a5,127
    8000052a:	2781                	sext.w	a5,a5
    8000052c:	00015717          	auipc	a4,0x15
    80000530:	30470713          	addi	a4,a4,772 # 80015830 <cons>
    80000534:	1782                	slli	a5,a5,0x20
    80000536:	9381                	srli	a5,a5,0x20
    80000538:	97ba                	add	a5,a5,a4
    8000053a:	0187c783          	lbu	a5,24(a5)
    8000053e:	fef42423          	sw	a5,-24(s0)
    80000542:	fe842783          	lw	a5,-24(s0)
    80000546:	0007871b          	sext.w	a4,a5
    8000054a:	4791                	li	a5,4
    8000054c:	02f71963          	bne	a4,a5,8000057e <consoleread+0x104>
    80000550:	fd842703          	lw	a4,-40(s0)
    80000554:	fec42783          	lw	a5,-20(s0)
    80000558:	2781                	sext.w	a5,a5
    8000055a:	08f77163          	bgeu	a4,a5,800005dc <consoleread+0x162>
    8000055e:	00015797          	auipc	a5,0x15
    80000562:	2d278793          	addi	a5,a5,722 # 80015830 <cons>
    80000566:	0987a783          	lw	a5,152(a5)
    8000056a:	37fd                	addiw	a5,a5,-1
    8000056c:	0007871b          	sext.w	a4,a5
    80000570:	00015797          	auipc	a5,0x15
    80000574:	2c078793          	addi	a5,a5,704 # 80015830 <cons>
    80000578:	08e7ac23          	sw	a4,152(a5)
    8000057c:	a085                	j	800005dc <consoleread+0x162>
    8000057e:	fe842783          	lw	a5,-24(s0)
    80000582:	0ff7f793          	zext.b	a5,a5
    80000586:	fef403a3          	sb	a5,-25(s0)
    8000058a:	fe740713          	addi	a4,s0,-25
    8000058e:	fdc42783          	lw	a5,-36(s0)
    80000592:	4685                	li	a3,1
    80000594:	863a                	mv	a2,a4
    80000596:	fd043583          	ld	a1,-48(s0)
    8000059a:	853e                	mv	a0,a5
    8000059c:	00003097          	auipc	ra,0x3
    800005a0:	588080e7          	jalr	1416(ra) # 80003b24 <either_copyout>
    800005a4:	87aa                	mv	a5,a0
    800005a6:	873e                	mv	a4,a5
    800005a8:	57fd                	li	a5,-1
    800005aa:	02f70b63          	beq	a4,a5,800005e0 <consoleread+0x166>
    800005ae:	fd043783          	ld	a5,-48(s0)
    800005b2:	0785                	addi	a5,a5,1
    800005b4:	fcf43823          	sd	a5,-48(s0)
    800005b8:	fd842783          	lw	a5,-40(s0)
    800005bc:	37fd                	addiw	a5,a5,-1
    800005be:	fcf42c23          	sw	a5,-40(s0)
    800005c2:	fe842783          	lw	a5,-24(s0)
    800005c6:	0007871b          	sext.w	a4,a5
    800005ca:	47a9                	li	a5,10
    800005cc:	00f70c63          	beq	a4,a5,800005e4 <consoleread+0x16a>
    800005d0:	fd842783          	lw	a5,-40(s0)
    800005d4:	2781                	sext.w	a5,a5
    800005d6:	f0f049e3          	bgtz	a5,800004e8 <consoleread+0x6e>
    800005da:	a031                	j	800005e6 <consoleread+0x16c>
    800005dc:	0001                	nop
    800005de:	a021                	j	800005e6 <consoleread+0x16c>
    800005e0:	0001                	nop
    800005e2:	a011                	j	800005e6 <consoleread+0x16c>
    800005e4:	0001                	nop
    800005e6:	00015517          	auipc	a0,0x15
    800005ea:	24a50513          	addi	a0,a0,586 # 80015830 <cons>
    800005ee:	00001097          	auipc	ra,0x1
    800005f2:	d48080e7          	jalr	-696(ra) # 80001336 <release>
    800005f6:	fd842783          	lw	a5,-40(s0)
    800005fa:	fec42703          	lw	a4,-20(s0)
    800005fe:	40f707bb          	subw	a5,a4,a5
    80000602:	2781                	sext.w	a5,a5
    80000604:	2781                	sext.w	a5,a5
    80000606:	853e                	mv	a0,a5
    80000608:	70a2                	ld	ra,40(sp)
    8000060a:	7402                	ld	s0,32(sp)
    8000060c:	6145                	addi	sp,sp,48
    8000060e:	8082                	ret

0000000080000610 <consoleintr>:
    80000610:	1101                	addi	sp,sp,-32
    80000612:	ec06                	sd	ra,24(sp)
    80000614:	e822                	sd	s0,16(sp)
    80000616:	1000                	addi	s0,sp,32
    80000618:	87aa                	mv	a5,a0
    8000061a:	fef42623          	sw	a5,-20(s0)
    8000061e:	00015517          	auipc	a0,0x15
    80000622:	21250513          	addi	a0,a0,530 # 80015830 <cons>
    80000626:	00001097          	auipc	ra,0x1
    8000062a:	cac080e7          	jalr	-852(ra) # 800012d2 <acquire>
    8000062e:	fec42783          	lw	a5,-20(s0)
    80000632:	0007871b          	sext.w	a4,a5
    80000636:	07f00793          	li	a5,127
    8000063a:	0cf70763          	beq	a4,a5,80000708 <consoleintr+0xf8>
    8000063e:	fec42783          	lw	a5,-20(s0)
    80000642:	0007871b          	sext.w	a4,a5
    80000646:	07f00793          	li	a5,127
    8000064a:	10e7c363          	blt	a5,a4,80000750 <consoleintr+0x140>
    8000064e:	fec42783          	lw	a5,-20(s0)
    80000652:	0007871b          	sext.w	a4,a5
    80000656:	47d5                	li	a5,21
    80000658:	06f70163          	beq	a4,a5,800006ba <consoleintr+0xaa>
    8000065c:	fec42783          	lw	a5,-20(s0)
    80000660:	0007871b          	sext.w	a4,a5
    80000664:	47d5                	li	a5,21
    80000666:	0ee7c563          	blt	a5,a4,80000750 <consoleintr+0x140>
    8000066a:	fec42783          	lw	a5,-20(s0)
    8000066e:	0007871b          	sext.w	a4,a5
    80000672:	47a1                	li	a5,8
    80000674:	08f70a63          	beq	a4,a5,80000708 <consoleintr+0xf8>
    80000678:	fec42783          	lw	a5,-20(s0)
    8000067c:	0007871b          	sext.w	a4,a5
    80000680:	47c1                	li	a5,16
    80000682:	0cf71763          	bne	a4,a5,80000750 <consoleintr+0x140>
    80000686:	00003097          	auipc	ra,0x3
    8000068a:	586080e7          	jalr	1414(ra) # 80003c0c <procdump>
    8000068e:	aac1                	j	8000085e <consoleintr+0x24e>
    80000690:	00015797          	auipc	a5,0x15
    80000694:	1a078793          	addi	a5,a5,416 # 80015830 <cons>
    80000698:	0a07a783          	lw	a5,160(a5)
    8000069c:	37fd                	addiw	a5,a5,-1
    8000069e:	0007871b          	sext.w	a4,a5
    800006a2:	00015797          	auipc	a5,0x15
    800006a6:	18e78793          	addi	a5,a5,398 # 80015830 <cons>
    800006aa:	0ae7a023          	sw	a4,160(a5)
    800006ae:	10000513          	li	a0,256
    800006b2:	00000097          	auipc	ra,0x0
    800006b6:	cc6080e7          	jalr	-826(ra) # 80000378 <consputc>
    800006ba:	00015797          	auipc	a5,0x15
    800006be:	17678793          	addi	a5,a5,374 # 80015830 <cons>
    800006c2:	0a07a703          	lw	a4,160(a5)
    800006c6:	00015797          	auipc	a5,0x15
    800006ca:	16a78793          	addi	a5,a5,362 # 80015830 <cons>
    800006ce:	09c7a783          	lw	a5,156(a5)
    800006d2:	18f70163          	beq	a4,a5,80000854 <consoleintr+0x244>
    800006d6:	00015797          	auipc	a5,0x15
    800006da:	15a78793          	addi	a5,a5,346 # 80015830 <cons>
    800006de:	0a07a783          	lw	a5,160(a5)
    800006e2:	37fd                	addiw	a5,a5,-1
    800006e4:	2781                	sext.w	a5,a5
    800006e6:	07f7f793          	andi	a5,a5,127
    800006ea:	2781                	sext.w	a5,a5
    800006ec:	00015717          	auipc	a4,0x15
    800006f0:	14470713          	addi	a4,a4,324 # 80015830 <cons>
    800006f4:	1782                	slli	a5,a5,0x20
    800006f6:	9381                	srli	a5,a5,0x20
    800006f8:	97ba                	add	a5,a5,a4
    800006fa:	0187c783          	lbu	a5,24(a5)
    800006fe:	873e                	mv	a4,a5
    80000700:	47a9                	li	a5,10
    80000702:	f8f717e3          	bne	a4,a5,80000690 <consoleintr+0x80>
    80000706:	a2b9                	j	80000854 <consoleintr+0x244>
    80000708:	00015797          	auipc	a5,0x15
    8000070c:	12878793          	addi	a5,a5,296 # 80015830 <cons>
    80000710:	0a07a703          	lw	a4,160(a5)
    80000714:	00015797          	auipc	a5,0x15
    80000718:	11c78793          	addi	a5,a5,284 # 80015830 <cons>
    8000071c:	09c7a783          	lw	a5,156(a5)
    80000720:	12f70c63          	beq	a4,a5,80000858 <consoleintr+0x248>
    80000724:	00015797          	auipc	a5,0x15
    80000728:	10c78793          	addi	a5,a5,268 # 80015830 <cons>
    8000072c:	0a07a783          	lw	a5,160(a5)
    80000730:	37fd                	addiw	a5,a5,-1
    80000732:	0007871b          	sext.w	a4,a5
    80000736:	00015797          	auipc	a5,0x15
    8000073a:	0fa78793          	addi	a5,a5,250 # 80015830 <cons>
    8000073e:	0ae7a023          	sw	a4,160(a5)
    80000742:	10000513          	li	a0,256
    80000746:	00000097          	auipc	ra,0x0
    8000074a:	c32080e7          	jalr	-974(ra) # 80000378 <consputc>
    8000074e:	a229                	j	80000858 <consoleintr+0x248>
    80000750:	fec42783          	lw	a5,-20(s0)
    80000754:	2781                	sext.w	a5,a5
    80000756:	10078363          	beqz	a5,8000085c <consoleintr+0x24c>
    8000075a:	00015797          	auipc	a5,0x15
    8000075e:	0d678793          	addi	a5,a5,214 # 80015830 <cons>
    80000762:	0a07a703          	lw	a4,160(a5)
    80000766:	00015797          	auipc	a5,0x15
    8000076a:	0ca78793          	addi	a5,a5,202 # 80015830 <cons>
    8000076e:	0987a783          	lw	a5,152(a5)
    80000772:	40f707bb          	subw	a5,a4,a5
    80000776:	2781                	sext.w	a5,a5
    80000778:	873e                	mv	a4,a5
    8000077a:	07f00793          	li	a5,127
    8000077e:	0ce7ef63          	bltu	a5,a4,8000085c <consoleintr+0x24c>
    80000782:	fec42783          	lw	a5,-20(s0)
    80000786:	0007871b          	sext.w	a4,a5
    8000078a:	47b5                	li	a5,13
    8000078c:	00f70563          	beq	a4,a5,80000796 <consoleintr+0x186>
    80000790:	fec42783          	lw	a5,-20(s0)
    80000794:	a011                	j	80000798 <consoleintr+0x188>
    80000796:	47a9                	li	a5,10
    80000798:	fef42623          	sw	a5,-20(s0)
    8000079c:	fec42783          	lw	a5,-20(s0)
    800007a0:	853e                	mv	a0,a5
    800007a2:	00000097          	auipc	ra,0x0
    800007a6:	bd6080e7          	jalr	-1066(ra) # 80000378 <consputc>
    800007aa:	00015797          	auipc	a5,0x15
    800007ae:	08678793          	addi	a5,a5,134 # 80015830 <cons>
    800007b2:	0a07a783          	lw	a5,160(a5)
    800007b6:	2781                	sext.w	a5,a5
    800007b8:	0017871b          	addiw	a4,a5,1
    800007bc:	0007069b          	sext.w	a3,a4
    800007c0:	00015717          	auipc	a4,0x15
    800007c4:	07070713          	addi	a4,a4,112 # 80015830 <cons>
    800007c8:	0ad72023          	sw	a3,160(a4)
    800007cc:	07f7f793          	andi	a5,a5,127
    800007d0:	2781                	sext.w	a5,a5
    800007d2:	fec42703          	lw	a4,-20(s0)
    800007d6:	0ff77713          	zext.b	a4,a4
    800007da:	00015697          	auipc	a3,0x15
    800007de:	05668693          	addi	a3,a3,86 # 80015830 <cons>
    800007e2:	1782                	slli	a5,a5,0x20
    800007e4:	9381                	srli	a5,a5,0x20
    800007e6:	97b6                	add	a5,a5,a3
    800007e8:	00e78c23          	sb	a4,24(a5)
    800007ec:	fec42783          	lw	a5,-20(s0)
    800007f0:	0007871b          	sext.w	a4,a5
    800007f4:	47a9                	li	a5,10
    800007f6:	02f70a63          	beq	a4,a5,8000082a <consoleintr+0x21a>
    800007fa:	fec42783          	lw	a5,-20(s0)
    800007fe:	0007871b          	sext.w	a4,a5
    80000802:	4791                	li	a5,4
    80000804:	02f70363          	beq	a4,a5,8000082a <consoleintr+0x21a>
    80000808:	00015797          	auipc	a5,0x15
    8000080c:	02878793          	addi	a5,a5,40 # 80015830 <cons>
    80000810:	0a07a703          	lw	a4,160(a5)
    80000814:	00015797          	auipc	a5,0x15
    80000818:	01c78793          	addi	a5,a5,28 # 80015830 <cons>
    8000081c:	0987a783          	lw	a5,152(a5)
    80000820:	0807879b          	addiw	a5,a5,128
    80000824:	2781                	sext.w	a5,a5
    80000826:	02f71b63          	bne	a4,a5,8000085c <consoleintr+0x24c>
    8000082a:	00015797          	auipc	a5,0x15
    8000082e:	00678793          	addi	a5,a5,6 # 80015830 <cons>
    80000832:	0a07a703          	lw	a4,160(a5)
    80000836:	00015797          	auipc	a5,0x15
    8000083a:	ffa78793          	addi	a5,a5,-6 # 80015830 <cons>
    8000083e:	08e7ae23          	sw	a4,156(a5)
    80000842:	00015517          	auipc	a0,0x15
    80000846:	08650513          	addi	a0,a0,134 # 800158c8 <cons+0x98>
    8000084a:	00003097          	auipc	ra,0x3
    8000084e:	15c080e7          	jalr	348(ra) # 800039a6 <wakeup>
    80000852:	a029                	j	8000085c <consoleintr+0x24c>
    80000854:	0001                	nop
    80000856:	a021                	j	8000085e <consoleintr+0x24e>
    80000858:	0001                	nop
    8000085a:	a011                	j	8000085e <consoleintr+0x24e>
    8000085c:	0001                	nop
    8000085e:	00015517          	auipc	a0,0x15
    80000862:	fd250513          	addi	a0,a0,-46 # 80015830 <cons>
    80000866:	00001097          	auipc	ra,0x1
    8000086a:	ad0080e7          	jalr	-1328(ra) # 80001336 <release>
    8000086e:	0001                	nop
    80000870:	60e2                	ld	ra,24(sp)
    80000872:	6442                	ld	s0,16(sp)
    80000874:	6105                	addi	sp,sp,32
    80000876:	8082                	ret

0000000080000878 <consoleinit>:
    80000878:	1141                	addi	sp,sp,-16
    8000087a:	e406                	sd	ra,8(sp)
    8000087c:	e022                	sd	s0,0(sp)
    8000087e:	0800                	addi	s0,sp,16
    80000880:	0000b597          	auipc	a1,0xb
    80000884:	78058593          	addi	a1,a1,1920 # 8000c000 <etext>
    80000888:	00015517          	auipc	a0,0x15
    8000088c:	fa850513          	addi	a0,a0,-88 # 80015830 <cons>
    80000890:	00001097          	auipc	ra,0x1
    80000894:	a12080e7          	jalr	-1518(ra) # 800012a2 <initlock>
    80000898:	00000097          	auipc	ra,0x0
    8000089c:	490080e7          	jalr	1168(ra) # 80000d28 <uartinit>
    800008a0:	00025797          	auipc	a5,0x25
    800008a4:	11878793          	addi	a5,a5,280 # 800259b8 <devsw>
    800008a8:	00000717          	auipc	a4,0x0
    800008ac:	bd270713          	addi	a4,a4,-1070 # 8000047a <consoleread>
    800008b0:	eb98                	sd	a4,16(a5)
    800008b2:	00025797          	auipc	a5,0x25
    800008b6:	10678793          	addi	a5,a5,262 # 800259b8 <devsw>
    800008ba:	00000717          	auipc	a4,0x0
    800008be:	b1670713          	addi	a4,a4,-1258 # 800003d0 <consolewrite>
    800008c2:	ef98                	sd	a4,24(a5)
    800008c4:	0001                	nop
    800008c6:	60a2                	ld	ra,8(sp)
    800008c8:	6402                	ld	s0,0(sp)
    800008ca:	0141                	addi	sp,sp,16
    800008cc:	8082                	ret

00000000800008ce <printint>:
    800008ce:	7139                	addi	sp,sp,-64
    800008d0:	fc06                	sd	ra,56(sp)
    800008d2:	f822                	sd	s0,48(sp)
    800008d4:	0080                	addi	s0,sp,64
    800008d6:	87aa                	mv	a5,a0
    800008d8:	86ae                	mv	a3,a1
    800008da:	8732                	mv	a4,a2
    800008dc:	fcf42623          	sw	a5,-52(s0)
    800008e0:	87b6                	mv	a5,a3
    800008e2:	fcf42423          	sw	a5,-56(s0)
    800008e6:	87ba                	mv	a5,a4
    800008e8:	fcf42223          	sw	a5,-60(s0)
    800008ec:	fc442783          	lw	a5,-60(s0)
    800008f0:	2781                	sext.w	a5,a5
    800008f2:	c78d                	beqz	a5,8000091c <printint+0x4e>
    800008f4:	fcc42783          	lw	a5,-52(s0)
    800008f8:	01f7d79b          	srliw	a5,a5,0x1f
    800008fc:	0ff7f793          	zext.b	a5,a5
    80000900:	fcf42223          	sw	a5,-60(s0)
    80000904:	fc442783          	lw	a5,-60(s0)
    80000908:	2781                	sext.w	a5,a5
    8000090a:	cb89                	beqz	a5,8000091c <printint+0x4e>
    8000090c:	fcc42783          	lw	a5,-52(s0)
    80000910:	40f007bb          	negw	a5,a5
    80000914:	2781                	sext.w	a5,a5
    80000916:	fef42423          	sw	a5,-24(s0)
    8000091a:	a029                	j	80000924 <printint+0x56>
    8000091c:	fcc42783          	lw	a5,-52(s0)
    80000920:	fef42423          	sw	a5,-24(s0)
    80000924:	fe042623          	sw	zero,-20(s0)
    80000928:	fc842783          	lw	a5,-56(s0)
    8000092c:	fe842703          	lw	a4,-24(s0)
    80000930:	02f777bb          	remuw	a5,a4,a5
    80000934:	0007861b          	sext.w	a2,a5
    80000938:	fec42783          	lw	a5,-20(s0)
    8000093c:	0017871b          	addiw	a4,a5,1
    80000940:	fee42623          	sw	a4,-20(s0)
    80000944:	0000c697          	auipc	a3,0xc
    80000948:	f2c68693          	addi	a3,a3,-212 # 8000c870 <digits>
    8000094c:	02061713          	slli	a4,a2,0x20
    80000950:	9301                	srli	a4,a4,0x20
    80000952:	9736                	add	a4,a4,a3
    80000954:	00074703          	lbu	a4,0(a4)
    80000958:	17c1                	addi	a5,a5,-16
    8000095a:	97a2                	add	a5,a5,s0
    8000095c:	fee78423          	sb	a4,-24(a5)
    80000960:	fc842783          	lw	a5,-56(s0)
    80000964:	fe842703          	lw	a4,-24(s0)
    80000968:	02f757bb          	divuw	a5,a4,a5
    8000096c:	fef42423          	sw	a5,-24(s0)
    80000970:	fe842783          	lw	a5,-24(s0)
    80000974:	2781                	sext.w	a5,a5
    80000976:	fbcd                	bnez	a5,80000928 <printint+0x5a>
    80000978:	fc442783          	lw	a5,-60(s0)
    8000097c:	2781                	sext.w	a5,a5
    8000097e:	cb95                	beqz	a5,800009b2 <printint+0xe4>
    80000980:	fec42783          	lw	a5,-20(s0)
    80000984:	0017871b          	addiw	a4,a5,1
    80000988:	fee42623          	sw	a4,-20(s0)
    8000098c:	17c1                	addi	a5,a5,-16
    8000098e:	97a2                	add	a5,a5,s0
    80000990:	02d00713          	li	a4,45
    80000994:	fee78423          	sb	a4,-24(a5)
    80000998:	a829                	j	800009b2 <printint+0xe4>
    8000099a:	fec42783          	lw	a5,-20(s0)
    8000099e:	17c1                	addi	a5,a5,-16
    800009a0:	97a2                	add	a5,a5,s0
    800009a2:	fe87c783          	lbu	a5,-24(a5)
    800009a6:	2781                	sext.w	a5,a5
    800009a8:	853e                	mv	a0,a5
    800009aa:	00000097          	auipc	ra,0x0
    800009ae:	9ce080e7          	jalr	-1586(ra) # 80000378 <consputc>
    800009b2:	fec42783          	lw	a5,-20(s0)
    800009b6:	37fd                	addiw	a5,a5,-1
    800009b8:	fef42623          	sw	a5,-20(s0)
    800009bc:	fec42783          	lw	a5,-20(s0)
    800009c0:	2781                	sext.w	a5,a5
    800009c2:	fc07dce3          	bgez	a5,8000099a <printint+0xcc>
    800009c6:	0001                	nop
    800009c8:	0001                	nop
    800009ca:	70e2                	ld	ra,56(sp)
    800009cc:	7442                	ld	s0,48(sp)
    800009ce:	6121                	addi	sp,sp,64
    800009d0:	8082                	ret

00000000800009d2 <printptr>:
    800009d2:	7179                	addi	sp,sp,-48
    800009d4:	f406                	sd	ra,40(sp)
    800009d6:	f022                	sd	s0,32(sp)
    800009d8:	1800                	addi	s0,sp,48
    800009da:	fca43c23          	sd	a0,-40(s0)
    800009de:	03000513          	li	a0,48
    800009e2:	00000097          	auipc	ra,0x0
    800009e6:	996080e7          	jalr	-1642(ra) # 80000378 <consputc>
    800009ea:	07800513          	li	a0,120
    800009ee:	00000097          	auipc	ra,0x0
    800009f2:	98a080e7          	jalr	-1654(ra) # 80000378 <consputc>
    800009f6:	fe042623          	sw	zero,-20(s0)
    800009fa:	a81d                	j	80000a30 <printptr+0x5e>
    800009fc:	fd843783          	ld	a5,-40(s0)
    80000a00:	93f1                	srli	a5,a5,0x3c
    80000a02:	0000c717          	auipc	a4,0xc
    80000a06:	e6e70713          	addi	a4,a4,-402 # 8000c870 <digits>
    80000a0a:	97ba                	add	a5,a5,a4
    80000a0c:	0007c783          	lbu	a5,0(a5)
    80000a10:	2781                	sext.w	a5,a5
    80000a12:	853e                	mv	a0,a5
    80000a14:	00000097          	auipc	ra,0x0
    80000a18:	964080e7          	jalr	-1692(ra) # 80000378 <consputc>
    80000a1c:	fec42783          	lw	a5,-20(s0)
    80000a20:	2785                	addiw	a5,a5,1
    80000a22:	fef42623          	sw	a5,-20(s0)
    80000a26:	fd843783          	ld	a5,-40(s0)
    80000a2a:	0792                	slli	a5,a5,0x4
    80000a2c:	fcf43c23          	sd	a5,-40(s0)
    80000a30:	fec42783          	lw	a5,-20(s0)
    80000a34:	873e                	mv	a4,a5
    80000a36:	47bd                	li	a5,15
    80000a38:	fce7f2e3          	bgeu	a5,a4,800009fc <printptr+0x2a>
    80000a3c:	0001                	nop
    80000a3e:	0001                	nop
    80000a40:	70a2                	ld	ra,40(sp)
    80000a42:	7402                	ld	s0,32(sp)
    80000a44:	6145                	addi	sp,sp,48
    80000a46:	8082                	ret

0000000080000a48 <printf>:
    80000a48:	7119                	addi	sp,sp,-128
    80000a4a:	fc06                	sd	ra,56(sp)
    80000a4c:	f822                	sd	s0,48(sp)
    80000a4e:	0080                	addi	s0,sp,64
    80000a50:	fca43423          	sd	a0,-56(s0)
    80000a54:	e40c                	sd	a1,8(s0)
    80000a56:	e810                	sd	a2,16(s0)
    80000a58:	ec14                	sd	a3,24(s0)
    80000a5a:	f018                	sd	a4,32(s0)
    80000a5c:	f41c                	sd	a5,40(s0)
    80000a5e:	03043823          	sd	a6,48(s0)
    80000a62:	03143c23          	sd	a7,56(s0)
    80000a66:	00015797          	auipc	a5,0x15
    80000a6a:	e7278793          	addi	a5,a5,-398 # 800158d8 <pr>
    80000a6e:	4f9c                	lw	a5,24(a5)
    80000a70:	fcf42e23          	sw	a5,-36(s0)
    80000a74:	fdc42783          	lw	a5,-36(s0)
    80000a78:	2781                	sext.w	a5,a5
    80000a7a:	cb89                	beqz	a5,80000a8c <printf+0x44>
    80000a7c:	00015517          	auipc	a0,0x15
    80000a80:	e5c50513          	addi	a0,a0,-420 # 800158d8 <pr>
    80000a84:	00001097          	auipc	ra,0x1
    80000a88:	84e080e7          	jalr	-1970(ra) # 800012d2 <acquire>
    80000a8c:	fc843783          	ld	a5,-56(s0)
    80000a90:	eb89                	bnez	a5,80000aa2 <printf+0x5a>
    80000a92:	0000b517          	auipc	a0,0xb
    80000a96:	57650513          	addi	a0,a0,1398 # 8000c008 <etext+0x8>
    80000a9a:	00000097          	auipc	ra,0x0
    80000a9e:	204080e7          	jalr	516(ra) # 80000c9e <panic>
    80000aa2:	04040793          	addi	a5,s0,64
    80000aa6:	fcf43023          	sd	a5,-64(s0)
    80000aaa:	fc043783          	ld	a5,-64(s0)
    80000aae:	fc878793          	addi	a5,a5,-56
    80000ab2:	fcf43823          	sd	a5,-48(s0)
    80000ab6:	fe042623          	sw	zero,-20(s0)
    80000aba:	a24d                	j	80000c5c <printf+0x214>
    80000abc:	fd842783          	lw	a5,-40(s0)
    80000ac0:	0007871b          	sext.w	a4,a5
    80000ac4:	02500793          	li	a5,37
    80000ac8:	00f70a63          	beq	a4,a5,80000adc <printf+0x94>
    80000acc:	fd842783          	lw	a5,-40(s0)
    80000ad0:	853e                	mv	a0,a5
    80000ad2:	00000097          	auipc	ra,0x0
    80000ad6:	8a6080e7          	jalr	-1882(ra) # 80000378 <consputc>
    80000ada:	aaa5                	j	80000c52 <printf+0x20a>
    80000adc:	fec42783          	lw	a5,-20(s0)
    80000ae0:	2785                	addiw	a5,a5,1
    80000ae2:	fef42623          	sw	a5,-20(s0)
    80000ae6:	fec42783          	lw	a5,-20(s0)
    80000aea:	fc843703          	ld	a4,-56(s0)
    80000aee:	97ba                	add	a5,a5,a4
    80000af0:	0007c783          	lbu	a5,0(a5)
    80000af4:	fcf42c23          	sw	a5,-40(s0)
    80000af8:	fd842783          	lw	a5,-40(s0)
    80000afc:	2781                	sext.w	a5,a5
    80000afe:	16078e63          	beqz	a5,80000c7a <printf+0x232>
    80000b02:	fd842783          	lw	a5,-40(s0)
    80000b06:	0007871b          	sext.w	a4,a5
    80000b0a:	07800793          	li	a5,120
    80000b0e:	08f70963          	beq	a4,a5,80000ba0 <printf+0x158>
    80000b12:	fd842783          	lw	a5,-40(s0)
    80000b16:	0007871b          	sext.w	a4,a5
    80000b1a:	07800793          	li	a5,120
    80000b1e:	10e7cc63          	blt	a5,a4,80000c36 <printf+0x1ee>
    80000b22:	fd842783          	lw	a5,-40(s0)
    80000b26:	0007871b          	sext.w	a4,a5
    80000b2a:	07300793          	li	a5,115
    80000b2e:	0af70563          	beq	a4,a5,80000bd8 <printf+0x190>
    80000b32:	fd842783          	lw	a5,-40(s0)
    80000b36:	0007871b          	sext.w	a4,a5
    80000b3a:	07300793          	li	a5,115
    80000b3e:	0ee7cc63          	blt	a5,a4,80000c36 <printf+0x1ee>
    80000b42:	fd842783          	lw	a5,-40(s0)
    80000b46:	0007871b          	sext.w	a4,a5
    80000b4a:	07000793          	li	a5,112
    80000b4e:	06f70863          	beq	a4,a5,80000bbe <printf+0x176>
    80000b52:	fd842783          	lw	a5,-40(s0)
    80000b56:	0007871b          	sext.w	a4,a5
    80000b5a:	07000793          	li	a5,112
    80000b5e:	0ce7cc63          	blt	a5,a4,80000c36 <printf+0x1ee>
    80000b62:	fd842783          	lw	a5,-40(s0)
    80000b66:	0007871b          	sext.w	a4,a5
    80000b6a:	02500793          	li	a5,37
    80000b6e:	0af70d63          	beq	a4,a5,80000c28 <printf+0x1e0>
    80000b72:	fd842783          	lw	a5,-40(s0)
    80000b76:	0007871b          	sext.w	a4,a5
    80000b7a:	06400793          	li	a5,100
    80000b7e:	0af71c63          	bne	a4,a5,80000c36 <printf+0x1ee>
    80000b82:	fd043783          	ld	a5,-48(s0)
    80000b86:	00878713          	addi	a4,a5,8
    80000b8a:	fce43823          	sd	a4,-48(s0)
    80000b8e:	439c                	lw	a5,0(a5)
    80000b90:	4605                	li	a2,1
    80000b92:	45a9                	li	a1,10
    80000b94:	853e                	mv	a0,a5
    80000b96:	00000097          	auipc	ra,0x0
    80000b9a:	d38080e7          	jalr	-712(ra) # 800008ce <printint>
    80000b9e:	a855                	j	80000c52 <printf+0x20a>
    80000ba0:	fd043783          	ld	a5,-48(s0)
    80000ba4:	00878713          	addi	a4,a5,8
    80000ba8:	fce43823          	sd	a4,-48(s0)
    80000bac:	439c                	lw	a5,0(a5)
    80000bae:	4605                	li	a2,1
    80000bb0:	45c1                	li	a1,16
    80000bb2:	853e                	mv	a0,a5
    80000bb4:	00000097          	auipc	ra,0x0
    80000bb8:	d1a080e7          	jalr	-742(ra) # 800008ce <printint>
    80000bbc:	a859                	j	80000c52 <printf+0x20a>
    80000bbe:	fd043783          	ld	a5,-48(s0)
    80000bc2:	00878713          	addi	a4,a5,8
    80000bc6:	fce43823          	sd	a4,-48(s0)
    80000bca:	639c                	ld	a5,0(a5)
    80000bcc:	853e                	mv	a0,a5
    80000bce:	00000097          	auipc	ra,0x0
    80000bd2:	e04080e7          	jalr	-508(ra) # 800009d2 <printptr>
    80000bd6:	a8b5                	j	80000c52 <printf+0x20a>
    80000bd8:	fd043783          	ld	a5,-48(s0)
    80000bdc:	00878713          	addi	a4,a5,8
    80000be0:	fce43823          	sd	a4,-48(s0)
    80000be4:	639c                	ld	a5,0(a5)
    80000be6:	fef43023          	sd	a5,-32(s0)
    80000bea:	fe043783          	ld	a5,-32(s0)
    80000bee:	e79d                	bnez	a5,80000c1c <printf+0x1d4>
    80000bf0:	0000b797          	auipc	a5,0xb
    80000bf4:	42878793          	addi	a5,a5,1064 # 8000c018 <etext+0x18>
    80000bf8:	fef43023          	sd	a5,-32(s0)
    80000bfc:	a005                	j	80000c1c <printf+0x1d4>
    80000bfe:	fe043783          	ld	a5,-32(s0)
    80000c02:	0007c783          	lbu	a5,0(a5)
    80000c06:	2781                	sext.w	a5,a5
    80000c08:	853e                	mv	a0,a5
    80000c0a:	fffff097          	auipc	ra,0xfffff
    80000c0e:	76e080e7          	jalr	1902(ra) # 80000378 <consputc>
    80000c12:	fe043783          	ld	a5,-32(s0)
    80000c16:	0785                	addi	a5,a5,1
    80000c18:	fef43023          	sd	a5,-32(s0)
    80000c1c:	fe043783          	ld	a5,-32(s0)
    80000c20:	0007c783          	lbu	a5,0(a5)
    80000c24:	ffe9                	bnez	a5,80000bfe <printf+0x1b6>
    80000c26:	a035                	j	80000c52 <printf+0x20a>
    80000c28:	02500513          	li	a0,37
    80000c2c:	fffff097          	auipc	ra,0xfffff
    80000c30:	74c080e7          	jalr	1868(ra) # 80000378 <consputc>
    80000c34:	a839                	j	80000c52 <printf+0x20a>
    80000c36:	02500513          	li	a0,37
    80000c3a:	fffff097          	auipc	ra,0xfffff
    80000c3e:	73e080e7          	jalr	1854(ra) # 80000378 <consputc>
    80000c42:	fd842783          	lw	a5,-40(s0)
    80000c46:	853e                	mv	a0,a5
    80000c48:	fffff097          	auipc	ra,0xfffff
    80000c4c:	730080e7          	jalr	1840(ra) # 80000378 <consputc>
    80000c50:	0001                	nop
    80000c52:	fec42783          	lw	a5,-20(s0)
    80000c56:	2785                	addiw	a5,a5,1
    80000c58:	fef42623          	sw	a5,-20(s0)
    80000c5c:	fec42783          	lw	a5,-20(s0)
    80000c60:	fc843703          	ld	a4,-56(s0)
    80000c64:	97ba                	add	a5,a5,a4
    80000c66:	0007c783          	lbu	a5,0(a5)
    80000c6a:	fcf42c23          	sw	a5,-40(s0)
    80000c6e:	fd842783          	lw	a5,-40(s0)
    80000c72:	2781                	sext.w	a5,a5
    80000c74:	e40794e3          	bnez	a5,80000abc <printf+0x74>
    80000c78:	a011                	j	80000c7c <printf+0x234>
    80000c7a:	0001                	nop
    80000c7c:	fdc42783          	lw	a5,-36(s0)
    80000c80:	2781                	sext.w	a5,a5
    80000c82:	cb89                	beqz	a5,80000c94 <printf+0x24c>
    80000c84:	00015517          	auipc	a0,0x15
    80000c88:	c5450513          	addi	a0,a0,-940 # 800158d8 <pr>
    80000c8c:	00000097          	auipc	ra,0x0
    80000c90:	6aa080e7          	jalr	1706(ra) # 80001336 <release>
    80000c94:	0001                	nop
    80000c96:	70e2                	ld	ra,56(sp)
    80000c98:	7442                	ld	s0,48(sp)
    80000c9a:	6109                	addi	sp,sp,128
    80000c9c:	8082                	ret

0000000080000c9e <panic>:
    80000c9e:	1101                	addi	sp,sp,-32
    80000ca0:	ec06                	sd	ra,24(sp)
    80000ca2:	e822                	sd	s0,16(sp)
    80000ca4:	1000                	addi	s0,sp,32
    80000ca6:	fea43423          	sd	a0,-24(s0)
    80000caa:	00015797          	auipc	a5,0x15
    80000cae:	c2e78793          	addi	a5,a5,-978 # 800158d8 <pr>
    80000cb2:	0007ac23          	sw	zero,24(a5)
    80000cb6:	0000b517          	auipc	a0,0xb
    80000cba:	36a50513          	addi	a0,a0,874 # 8000c020 <etext+0x20>
    80000cbe:	00000097          	auipc	ra,0x0
    80000cc2:	d8a080e7          	jalr	-630(ra) # 80000a48 <printf>
    80000cc6:	fe843503          	ld	a0,-24(s0)
    80000cca:	00000097          	auipc	ra,0x0
    80000cce:	d7e080e7          	jalr	-642(ra) # 80000a48 <printf>
    80000cd2:	0000b517          	auipc	a0,0xb
    80000cd6:	35650513          	addi	a0,a0,854 # 8000c028 <etext+0x28>
    80000cda:	00000097          	auipc	ra,0x0
    80000cde:	d6e080e7          	jalr	-658(ra) # 80000a48 <printf>
    80000ce2:	0000c797          	auipc	a5,0xc
    80000ce6:	31e78793          	addi	a5,a5,798 # 8000d000 <panicked>
    80000cea:	4705                	li	a4,1
    80000cec:	c398                	sw	a4,0(a5)
    80000cee:	0001                	nop
    80000cf0:	bffd                	j	80000cee <panic+0x50>

0000000080000cf2 <printfinit>:
    80000cf2:	1141                	addi	sp,sp,-16
    80000cf4:	e406                	sd	ra,8(sp)
    80000cf6:	e022                	sd	s0,0(sp)
    80000cf8:	0800                	addi	s0,sp,16
    80000cfa:	0000b597          	auipc	a1,0xb
    80000cfe:	33658593          	addi	a1,a1,822 # 8000c030 <etext+0x30>
    80000d02:	00015517          	auipc	a0,0x15
    80000d06:	bd650513          	addi	a0,a0,-1066 # 800158d8 <pr>
    80000d0a:	00000097          	auipc	ra,0x0
    80000d0e:	598080e7          	jalr	1432(ra) # 800012a2 <initlock>
    80000d12:	00015797          	auipc	a5,0x15
    80000d16:	bc678793          	addi	a5,a5,-1082 # 800158d8 <pr>
    80000d1a:	4705                	li	a4,1
    80000d1c:	cf98                	sw	a4,24(a5)
    80000d1e:	0001                	nop
    80000d20:	60a2                	ld	ra,8(sp)
    80000d22:	6402                	ld	s0,0(sp)
    80000d24:	0141                	addi	sp,sp,16
    80000d26:	8082                	ret

0000000080000d28 <uartinit>:
    80000d28:	1141                	addi	sp,sp,-16
    80000d2a:	e406                	sd	ra,8(sp)
    80000d2c:	e022                	sd	s0,0(sp)
    80000d2e:	0800                	addi	s0,sp,16
    80000d30:	100007b7          	lui	a5,0x10000
    80000d34:	0785                	addi	a5,a5,1 # 10000001 <_entry-0x6fffffff>
    80000d36:	00078023          	sb	zero,0(a5)
    80000d3a:	100007b7          	lui	a5,0x10000
    80000d3e:	078d                	addi	a5,a5,3 # 10000003 <_entry-0x6ffffffd>
    80000d40:	f8000713          	li	a4,-128
    80000d44:	00e78023          	sb	a4,0(a5)
    80000d48:	100007b7          	lui	a5,0x10000
    80000d4c:	470d                	li	a4,3
    80000d4e:	00e78023          	sb	a4,0(a5) # 10000000 <_entry-0x70000000>
    80000d52:	100007b7          	lui	a5,0x10000
    80000d56:	0785                	addi	a5,a5,1 # 10000001 <_entry-0x6fffffff>
    80000d58:	00078023          	sb	zero,0(a5)
    80000d5c:	100007b7          	lui	a5,0x10000
    80000d60:	078d                	addi	a5,a5,3 # 10000003 <_entry-0x6ffffffd>
    80000d62:	470d                	li	a4,3
    80000d64:	00e78023          	sb	a4,0(a5)
    80000d68:	100007b7          	lui	a5,0x10000
    80000d6c:	0789                	addi	a5,a5,2 # 10000002 <_entry-0x6ffffffe>
    80000d6e:	471d                	li	a4,7
    80000d70:	00e78023          	sb	a4,0(a5)
    80000d74:	100007b7          	lui	a5,0x10000
    80000d78:	0785                	addi	a5,a5,1 # 10000001 <_entry-0x6fffffff>
    80000d7a:	470d                	li	a4,3
    80000d7c:	00e78023          	sb	a4,0(a5)
    80000d80:	0000b597          	auipc	a1,0xb
    80000d84:	2b858593          	addi	a1,a1,696 # 8000c038 <etext+0x38>
    80000d88:	00015517          	auipc	a0,0x15
    80000d8c:	b7050513          	addi	a0,a0,-1168 # 800158f8 <uart_tx_lock>
    80000d90:	00000097          	auipc	ra,0x0
    80000d94:	512080e7          	jalr	1298(ra) # 800012a2 <initlock>
    80000d98:	0001                	nop
    80000d9a:	60a2                	ld	ra,8(sp)
    80000d9c:	6402                	ld	s0,0(sp)
    80000d9e:	0141                	addi	sp,sp,16
    80000da0:	8082                	ret

0000000080000da2 <uartputc>:
    80000da2:	1101                	addi	sp,sp,-32
    80000da4:	ec06                	sd	ra,24(sp)
    80000da6:	e822                	sd	s0,16(sp)
    80000da8:	1000                	addi	s0,sp,32
    80000daa:	87aa                	mv	a5,a0
    80000dac:	fef42623          	sw	a5,-20(s0)
    80000db0:	00015517          	auipc	a0,0x15
    80000db4:	b4850513          	addi	a0,a0,-1208 # 800158f8 <uart_tx_lock>
    80000db8:	00000097          	auipc	ra,0x0
    80000dbc:	51a080e7          	jalr	1306(ra) # 800012d2 <acquire>
    80000dc0:	0000c797          	auipc	a5,0xc
    80000dc4:	24078793          	addi	a5,a5,576 # 8000d000 <panicked>
    80000dc8:	439c                	lw	a5,0(a5)
    80000dca:	2781                	sext.w	a5,a5
    80000dcc:	c399                	beqz	a5,80000dd2 <uartputc+0x30>
    80000dce:	0001                	nop
    80000dd0:	bffd                	j	80000dce <uartputc+0x2c>
    80000dd2:	0000c797          	auipc	a5,0xc
    80000dd6:	23278793          	addi	a5,a5,562 # 8000d004 <uart_tx_w>
    80000dda:	439c                	lw	a5,0(a5)
    80000ddc:	2785                	addiw	a5,a5,1
    80000dde:	2781                	sext.w	a5,a5
    80000de0:	873e                	mv	a4,a5
    80000de2:	41f7579b          	sraiw	a5,a4,0x1f
    80000de6:	01b7d79b          	srliw	a5,a5,0x1b
    80000dea:	9f3d                	addw	a4,a4,a5
    80000dec:	8b7d                	andi	a4,a4,31
    80000dee:	40f707bb          	subw	a5,a4,a5
    80000df2:	0007871b          	sext.w	a4,a5
    80000df6:	0000c797          	auipc	a5,0xc
    80000dfa:	21278793          	addi	a5,a5,530 # 8000d008 <uart_tx_r>
    80000dfe:	439c                	lw	a5,0(a5)
    80000e00:	00f71f63          	bne	a4,a5,80000e1e <uartputc+0x7c>
    80000e04:	00015597          	auipc	a1,0x15
    80000e08:	af458593          	addi	a1,a1,-1292 # 800158f8 <uart_tx_lock>
    80000e0c:	0000c517          	auipc	a0,0xc
    80000e10:	1fc50513          	addi	a0,a0,508 # 8000d008 <uart_tx_r>
    80000e14:	00003097          	auipc	ra,0x3
    80000e18:	afe080e7          	jalr	-1282(ra) # 80003912 <sleep>
    80000e1c:	bf5d                	j	80000dd2 <uartputc+0x30>
    80000e1e:	0000c797          	auipc	a5,0xc
    80000e22:	1e678793          	addi	a5,a5,486 # 8000d004 <uart_tx_w>
    80000e26:	439c                	lw	a5,0(a5)
    80000e28:	fec42703          	lw	a4,-20(s0)
    80000e2c:	0ff77713          	zext.b	a4,a4
    80000e30:	00015697          	auipc	a3,0x15
    80000e34:	ae068693          	addi	a3,a3,-1312 # 80015910 <uart_tx_buf>
    80000e38:	97b6                	add	a5,a5,a3
    80000e3a:	00e78023          	sb	a4,0(a5)
    80000e3e:	0000c797          	auipc	a5,0xc
    80000e42:	1c678793          	addi	a5,a5,454 # 8000d004 <uart_tx_w>
    80000e46:	439c                	lw	a5,0(a5)
    80000e48:	2785                	addiw	a5,a5,1
    80000e4a:	2781                	sext.w	a5,a5
    80000e4c:	873e                	mv	a4,a5
    80000e4e:	41f7579b          	sraiw	a5,a4,0x1f
    80000e52:	01b7d79b          	srliw	a5,a5,0x1b
    80000e56:	9f3d                	addw	a4,a4,a5
    80000e58:	8b7d                	andi	a4,a4,31
    80000e5a:	40f707bb          	subw	a5,a4,a5
    80000e5e:	0007871b          	sext.w	a4,a5
    80000e62:	0000c797          	auipc	a5,0xc
    80000e66:	1a278793          	addi	a5,a5,418 # 8000d004 <uart_tx_w>
    80000e6a:	c398                	sw	a4,0(a5)
    80000e6c:	00000097          	auipc	ra,0x0
    80000e70:	086080e7          	jalr	134(ra) # 80000ef2 <uartstart>
    80000e74:	00015517          	auipc	a0,0x15
    80000e78:	a8450513          	addi	a0,a0,-1404 # 800158f8 <uart_tx_lock>
    80000e7c:	00000097          	auipc	ra,0x0
    80000e80:	4ba080e7          	jalr	1210(ra) # 80001336 <release>
    80000e84:	0001                	nop
    80000e86:	60e2                	ld	ra,24(sp)
    80000e88:	6442                	ld	s0,16(sp)
    80000e8a:	6105                	addi	sp,sp,32
    80000e8c:	8082                	ret

0000000080000e8e <uartputc_sync>:
    80000e8e:	1101                	addi	sp,sp,-32
    80000e90:	ec06                	sd	ra,24(sp)
    80000e92:	e822                	sd	s0,16(sp)
    80000e94:	1000                	addi	s0,sp,32
    80000e96:	87aa                	mv	a5,a0
    80000e98:	fef42623          	sw	a5,-20(s0)
    80000e9c:	00000097          	auipc	ra,0x0
    80000ea0:	534080e7          	jalr	1332(ra) # 800013d0 <push_off>
    80000ea4:	0000c797          	auipc	a5,0xc
    80000ea8:	15c78793          	addi	a5,a5,348 # 8000d000 <panicked>
    80000eac:	439c                	lw	a5,0(a5)
    80000eae:	2781                	sext.w	a5,a5
    80000eb0:	c399                	beqz	a5,80000eb6 <uartputc_sync+0x28>
    80000eb2:	0001                	nop
    80000eb4:	bffd                	j	80000eb2 <uartputc_sync+0x24>
    80000eb6:	0001                	nop
    80000eb8:	100007b7          	lui	a5,0x10000
    80000ebc:	0795                	addi	a5,a5,5 # 10000005 <_entry-0x6ffffffb>
    80000ebe:	0007c783          	lbu	a5,0(a5)
    80000ec2:	0ff7f793          	zext.b	a5,a5
    80000ec6:	2781                	sext.w	a5,a5
    80000ec8:	0207f793          	andi	a5,a5,32
    80000ecc:	2781                	sext.w	a5,a5
    80000ece:	d7ed                	beqz	a5,80000eb8 <uartputc_sync+0x2a>
    80000ed0:	100007b7          	lui	a5,0x10000
    80000ed4:	fec42703          	lw	a4,-20(s0)
    80000ed8:	0ff77713          	zext.b	a4,a4
    80000edc:	00e78023          	sb	a4,0(a5) # 10000000 <_entry-0x70000000>
    80000ee0:	00000097          	auipc	ra,0x0
    80000ee4:	548080e7          	jalr	1352(ra) # 80001428 <pop_off>
    80000ee8:	0001                	nop
    80000eea:	60e2                	ld	ra,24(sp)
    80000eec:	6442                	ld	s0,16(sp)
    80000eee:	6105                	addi	sp,sp,32
    80000ef0:	8082                	ret

0000000080000ef2 <uartstart>:
    80000ef2:	1101                	addi	sp,sp,-32
    80000ef4:	ec06                	sd	ra,24(sp)
    80000ef6:	e822                	sd	s0,16(sp)
    80000ef8:	1000                	addi	s0,sp,32
    80000efa:	0000c797          	auipc	a5,0xc
    80000efe:	10a78793          	addi	a5,a5,266 # 8000d004 <uart_tx_w>
    80000f02:	4398                	lw	a4,0(a5)
    80000f04:	0000c797          	auipc	a5,0xc
    80000f08:	10478793          	addi	a5,a5,260 # 8000d008 <uart_tx_r>
    80000f0c:	439c                	lw	a5,0(a5)
    80000f0e:	08f70463          	beq	a4,a5,80000f96 <uartstart+0xa4>
    80000f12:	100007b7          	lui	a5,0x10000
    80000f16:	0795                	addi	a5,a5,5 # 10000005 <_entry-0x6ffffffb>
    80000f18:	0007c783          	lbu	a5,0(a5)
    80000f1c:	0ff7f793          	zext.b	a5,a5
    80000f20:	2781                	sext.w	a5,a5
    80000f22:	0207f793          	andi	a5,a5,32
    80000f26:	2781                	sext.w	a5,a5
    80000f28:	cbad                	beqz	a5,80000f9a <uartstart+0xa8>
    80000f2a:	0000c797          	auipc	a5,0xc
    80000f2e:	0de78793          	addi	a5,a5,222 # 8000d008 <uart_tx_r>
    80000f32:	439c                	lw	a5,0(a5)
    80000f34:	00015717          	auipc	a4,0x15
    80000f38:	9dc70713          	addi	a4,a4,-1572 # 80015910 <uart_tx_buf>
    80000f3c:	97ba                	add	a5,a5,a4
    80000f3e:	0007c783          	lbu	a5,0(a5)
    80000f42:	fef42623          	sw	a5,-20(s0)
    80000f46:	0000c797          	auipc	a5,0xc
    80000f4a:	0c278793          	addi	a5,a5,194 # 8000d008 <uart_tx_r>
    80000f4e:	439c                	lw	a5,0(a5)
    80000f50:	2785                	addiw	a5,a5,1
    80000f52:	2781                	sext.w	a5,a5
    80000f54:	873e                	mv	a4,a5
    80000f56:	41f7579b          	sraiw	a5,a4,0x1f
    80000f5a:	01b7d79b          	srliw	a5,a5,0x1b
    80000f5e:	9f3d                	addw	a4,a4,a5
    80000f60:	8b7d                	andi	a4,a4,31
    80000f62:	40f707bb          	subw	a5,a4,a5
    80000f66:	0007871b          	sext.w	a4,a5
    80000f6a:	0000c797          	auipc	a5,0xc
    80000f6e:	09e78793          	addi	a5,a5,158 # 8000d008 <uart_tx_r>
    80000f72:	c398                	sw	a4,0(a5)
    80000f74:	0000c517          	auipc	a0,0xc
    80000f78:	09450513          	addi	a0,a0,148 # 8000d008 <uart_tx_r>
    80000f7c:	00003097          	auipc	ra,0x3
    80000f80:	a2a080e7          	jalr	-1494(ra) # 800039a6 <wakeup>
    80000f84:	100007b7          	lui	a5,0x10000
    80000f88:	fec42703          	lw	a4,-20(s0)
    80000f8c:	0ff77713          	zext.b	a4,a4
    80000f90:	00e78023          	sb	a4,0(a5) # 10000000 <_entry-0x70000000>
    80000f94:	b79d                	j	80000efa <uartstart+0x8>
    80000f96:	0001                	nop
    80000f98:	a011                	j	80000f9c <uartstart+0xaa>
    80000f9a:	0001                	nop
    80000f9c:	60e2                	ld	ra,24(sp)
    80000f9e:	6442                	ld	s0,16(sp)
    80000fa0:	6105                	addi	sp,sp,32
    80000fa2:	8082                	ret

0000000080000fa4 <uartgetc>:
    80000fa4:	1141                	addi	sp,sp,-16
    80000fa6:	e422                	sd	s0,8(sp)
    80000fa8:	0800                	addi	s0,sp,16
    80000faa:	100007b7          	lui	a5,0x10000
    80000fae:	0795                	addi	a5,a5,5 # 10000005 <_entry-0x6ffffffb>
    80000fb0:	0007c783          	lbu	a5,0(a5)
    80000fb4:	0ff7f793          	zext.b	a5,a5
    80000fb8:	2781                	sext.w	a5,a5
    80000fba:	8b85                	andi	a5,a5,1
    80000fbc:	2781                	sext.w	a5,a5
    80000fbe:	cb89                	beqz	a5,80000fd0 <uartgetc+0x2c>
    80000fc0:	100007b7          	lui	a5,0x10000
    80000fc4:	0007c783          	lbu	a5,0(a5) # 10000000 <_entry-0x70000000>
    80000fc8:	0ff7f793          	zext.b	a5,a5
    80000fcc:	2781                	sext.w	a5,a5
    80000fce:	a011                	j	80000fd2 <uartgetc+0x2e>
    80000fd0:	57fd                	li	a5,-1
    80000fd2:	853e                	mv	a0,a5
    80000fd4:	6422                	ld	s0,8(sp)
    80000fd6:	0141                	addi	sp,sp,16
    80000fd8:	8082                	ret

0000000080000fda <uartintr>:
    80000fda:	1101                	addi	sp,sp,-32
    80000fdc:	ec06                	sd	ra,24(sp)
    80000fde:	e822                	sd	s0,16(sp)
    80000fe0:	1000                	addi	s0,sp,32
    80000fe2:	00000097          	auipc	ra,0x0
    80000fe6:	fc2080e7          	jalr	-62(ra) # 80000fa4 <uartgetc>
    80000fea:	87aa                	mv	a5,a0
    80000fec:	fef42623          	sw	a5,-20(s0)
    80000ff0:	fec42783          	lw	a5,-20(s0)
    80000ff4:	0007871b          	sext.w	a4,a5
    80000ff8:	57fd                	li	a5,-1
    80000ffa:	00f70a63          	beq	a4,a5,8000100e <uartintr+0x34>
    80000ffe:	fec42783          	lw	a5,-20(s0)
    80001002:	853e                	mv	a0,a5
    80001004:	fffff097          	auipc	ra,0xfffff
    80001008:	60c080e7          	jalr	1548(ra) # 80000610 <consoleintr>
    8000100c:	bfd9                	j	80000fe2 <uartintr+0x8>
    8000100e:	0001                	nop
    80001010:	00015517          	auipc	a0,0x15
    80001014:	8e850513          	addi	a0,a0,-1816 # 800158f8 <uart_tx_lock>
    80001018:	00000097          	auipc	ra,0x0
    8000101c:	2ba080e7          	jalr	698(ra) # 800012d2 <acquire>
    80001020:	00000097          	auipc	ra,0x0
    80001024:	ed2080e7          	jalr	-302(ra) # 80000ef2 <uartstart>
    80001028:	00015517          	auipc	a0,0x15
    8000102c:	8d050513          	addi	a0,a0,-1840 # 800158f8 <uart_tx_lock>
    80001030:	00000097          	auipc	ra,0x0
    80001034:	306080e7          	jalr	774(ra) # 80001336 <release>
    80001038:	0001                	nop
    8000103a:	60e2                	ld	ra,24(sp)
    8000103c:	6442                	ld	s0,16(sp)
    8000103e:	6105                	addi	sp,sp,32
    80001040:	8082                	ret

0000000080001042 <kinit>:
    80001042:	1141                	addi	sp,sp,-16
    80001044:	e406                	sd	ra,8(sp)
    80001046:	e022                	sd	s0,0(sp)
    80001048:	0800                	addi	s0,sp,16
    8000104a:	0000b597          	auipc	a1,0xb
    8000104e:	ff658593          	addi	a1,a1,-10 # 8000c040 <etext+0x40>
    80001052:	00015517          	auipc	a0,0x15
    80001056:	8de50513          	addi	a0,a0,-1826 # 80015930 <kmem>
    8000105a:	00000097          	auipc	ra,0x0
    8000105e:	248080e7          	jalr	584(ra) # 800012a2 <initlock>
    80001062:	47c5                	li	a5,17
    80001064:	01b79593          	slli	a1,a5,0x1b
    80001068:	0002a517          	auipc	a0,0x2a
    8000106c:	fc050513          	addi	a0,a0,-64 # 8002b028 <end>
    80001070:	00000097          	auipc	ra,0x0
    80001074:	012080e7          	jalr	18(ra) # 80001082 <freerange>
    80001078:	0001                	nop
    8000107a:	60a2                	ld	ra,8(sp)
    8000107c:	6402                	ld	s0,0(sp)
    8000107e:	0141                	addi	sp,sp,16
    80001080:	8082                	ret

0000000080001082 <freerange>:
    80001082:	7179                	addi	sp,sp,-48
    80001084:	f406                	sd	ra,40(sp)
    80001086:	f022                	sd	s0,32(sp)
    80001088:	1800                	addi	s0,sp,48
    8000108a:	fca43c23          	sd	a0,-40(s0)
    8000108e:	fcb43823          	sd	a1,-48(s0)
    80001092:	fd843703          	ld	a4,-40(s0)
    80001096:	6785                	lui	a5,0x1
    80001098:	17fd                	addi	a5,a5,-1 # fff <_entry-0x7ffff001>
    8000109a:	973e                	add	a4,a4,a5
    8000109c:	77fd                	lui	a5,0xfffff
    8000109e:	8ff9                	and	a5,a5,a4
    800010a0:	fef43423          	sd	a5,-24(s0)
    800010a4:	a829                	j	800010be <freerange+0x3c>
    800010a6:	fe843503          	ld	a0,-24(s0)
    800010aa:	00000097          	auipc	ra,0x0
    800010ae:	030080e7          	jalr	48(ra) # 800010da <kfree>
    800010b2:	fe843703          	ld	a4,-24(s0)
    800010b6:	6785                	lui	a5,0x1
    800010b8:	97ba                	add	a5,a5,a4
    800010ba:	fef43423          	sd	a5,-24(s0)
    800010be:	fe843703          	ld	a4,-24(s0)
    800010c2:	6785                	lui	a5,0x1
    800010c4:	97ba                	add	a5,a5,a4
    800010c6:	fd043703          	ld	a4,-48(s0)
    800010ca:	fcf77ee3          	bgeu	a4,a5,800010a6 <freerange+0x24>
    800010ce:	0001                	nop
    800010d0:	0001                	nop
    800010d2:	70a2                	ld	ra,40(sp)
    800010d4:	7402                	ld	s0,32(sp)
    800010d6:	6145                	addi	sp,sp,48
    800010d8:	8082                	ret

00000000800010da <kfree>:
    800010da:	7179                	addi	sp,sp,-48
    800010dc:	f406                	sd	ra,40(sp)
    800010de:	f022                	sd	s0,32(sp)
    800010e0:	1800                	addi	s0,sp,48
    800010e2:	fca43c23          	sd	a0,-40(s0)
    800010e6:	fd843703          	ld	a4,-40(s0)
    800010ea:	6785                	lui	a5,0x1
    800010ec:	17fd                	addi	a5,a5,-1 # fff <_entry-0x7ffff001>
    800010ee:	8ff9                	and	a5,a5,a4
    800010f0:	ef99                	bnez	a5,8000110e <kfree+0x34>
    800010f2:	fd843703          	ld	a4,-40(s0)
    800010f6:	0002a797          	auipc	a5,0x2a
    800010fa:	f3278793          	addi	a5,a5,-206 # 8002b028 <end>
    800010fe:	00f76863          	bltu	a4,a5,8000110e <kfree+0x34>
    80001102:	fd843703          	ld	a4,-40(s0)
    80001106:	47c5                	li	a5,17
    80001108:	07ee                	slli	a5,a5,0x1b
    8000110a:	00f76a63          	bltu	a4,a5,8000111e <kfree+0x44>
    8000110e:	0000b517          	auipc	a0,0xb
    80001112:	f3a50513          	addi	a0,a0,-198 # 8000c048 <etext+0x48>
    80001116:	00000097          	auipc	ra,0x0
    8000111a:	b88080e7          	jalr	-1144(ra) # 80000c9e <panic>
    8000111e:	6605                	lui	a2,0x1
    80001120:	4585                	li	a1,1
    80001122:	fd843503          	ld	a0,-40(s0)
    80001126:	00000097          	auipc	ra,0x0
    8000112a:	380080e7          	jalr	896(ra) # 800014a6 <memset>
    8000112e:	fd843783          	ld	a5,-40(s0)
    80001132:	fef43423          	sd	a5,-24(s0)
    80001136:	00014517          	auipc	a0,0x14
    8000113a:	7fa50513          	addi	a0,a0,2042 # 80015930 <kmem>
    8000113e:	00000097          	auipc	ra,0x0
    80001142:	194080e7          	jalr	404(ra) # 800012d2 <acquire>
    80001146:	00014797          	auipc	a5,0x14
    8000114a:	7ea78793          	addi	a5,a5,2026 # 80015930 <kmem>
    8000114e:	6f98                	ld	a4,24(a5)
    80001150:	fe843783          	ld	a5,-24(s0)
    80001154:	e398                	sd	a4,0(a5)
    80001156:	00014797          	auipc	a5,0x14
    8000115a:	7da78793          	addi	a5,a5,2010 # 80015930 <kmem>
    8000115e:	fe843703          	ld	a4,-24(s0)
    80001162:	ef98                	sd	a4,24(a5)
    80001164:	00014517          	auipc	a0,0x14
    80001168:	7cc50513          	addi	a0,a0,1996 # 80015930 <kmem>
    8000116c:	00000097          	auipc	ra,0x0
    80001170:	1ca080e7          	jalr	458(ra) # 80001336 <release>
    80001174:	0001                	nop
    80001176:	70a2                	ld	ra,40(sp)
    80001178:	7402                	ld	s0,32(sp)
    8000117a:	6145                	addi	sp,sp,48
    8000117c:	8082                	ret

000000008000117e <kalloc>:
    8000117e:	1101                	addi	sp,sp,-32
    80001180:	ec06                	sd	ra,24(sp)
    80001182:	e822                	sd	s0,16(sp)
    80001184:	1000                	addi	s0,sp,32
    80001186:	00014517          	auipc	a0,0x14
    8000118a:	7aa50513          	addi	a0,a0,1962 # 80015930 <kmem>
    8000118e:	00000097          	auipc	ra,0x0
    80001192:	144080e7          	jalr	324(ra) # 800012d2 <acquire>
    80001196:	00014797          	auipc	a5,0x14
    8000119a:	79a78793          	addi	a5,a5,1946 # 80015930 <kmem>
    8000119e:	6f9c                	ld	a5,24(a5)
    800011a0:	fef43423          	sd	a5,-24(s0)
    800011a4:	fe843783          	ld	a5,-24(s0)
    800011a8:	cb89                	beqz	a5,800011ba <kalloc+0x3c>
    800011aa:	fe843783          	ld	a5,-24(s0)
    800011ae:	6398                	ld	a4,0(a5)
    800011b0:	00014797          	auipc	a5,0x14
    800011b4:	78078793          	addi	a5,a5,1920 # 80015930 <kmem>
    800011b8:	ef98                	sd	a4,24(a5)
    800011ba:	00014517          	auipc	a0,0x14
    800011be:	77650513          	addi	a0,a0,1910 # 80015930 <kmem>
    800011c2:	00000097          	auipc	ra,0x0
    800011c6:	174080e7          	jalr	372(ra) # 80001336 <release>
    800011ca:	fe843783          	ld	a5,-24(s0)
    800011ce:	cb89                	beqz	a5,800011e0 <kalloc+0x62>
    800011d0:	6605                	lui	a2,0x1
    800011d2:	4595                	li	a1,5
    800011d4:	fe843503          	ld	a0,-24(s0)
    800011d8:	00000097          	auipc	ra,0x0
    800011dc:	2ce080e7          	jalr	718(ra) # 800014a6 <memset>
    800011e0:	fe843783          	ld	a5,-24(s0)
    800011e4:	853e                	mv	a0,a5
    800011e6:	60e2                	ld	ra,24(sp)
    800011e8:	6442                	ld	s0,16(sp)
    800011ea:	6105                	addi	sp,sp,32
    800011ec:	8082                	ret

00000000800011ee <r_sstatus>:
    800011ee:	1101                	addi	sp,sp,-32
    800011f0:	ec22                	sd	s0,24(sp)
    800011f2:	1000                	addi	s0,sp,32
    800011f4:	100027f3          	csrr	a5,sstatus
    800011f8:	fef43423          	sd	a5,-24(s0)
    800011fc:	fe843783          	ld	a5,-24(s0)
    80001200:	853e                	mv	a0,a5
    80001202:	6462                	ld	s0,24(sp)
    80001204:	6105                	addi	sp,sp,32
    80001206:	8082                	ret

0000000080001208 <w_sstatus>:
    80001208:	1101                	addi	sp,sp,-32
    8000120a:	ec22                	sd	s0,24(sp)
    8000120c:	1000                	addi	s0,sp,32
    8000120e:	fea43423          	sd	a0,-24(s0)
    80001212:	fe843783          	ld	a5,-24(s0)
    80001216:	10079073          	csrw	sstatus,a5
    8000121a:	0001                	nop
    8000121c:	6462                	ld	s0,24(sp)
    8000121e:	6105                	addi	sp,sp,32
    80001220:	8082                	ret

0000000080001222 <intr_on>:
    80001222:	1141                	addi	sp,sp,-16
    80001224:	e406                	sd	ra,8(sp)
    80001226:	e022                	sd	s0,0(sp)
    80001228:	0800                	addi	s0,sp,16
    8000122a:	00000097          	auipc	ra,0x0
    8000122e:	fc4080e7          	jalr	-60(ra) # 800011ee <r_sstatus>
    80001232:	87aa                	mv	a5,a0
    80001234:	0027e793          	ori	a5,a5,2
    80001238:	853e                	mv	a0,a5
    8000123a:	00000097          	auipc	ra,0x0
    8000123e:	fce080e7          	jalr	-50(ra) # 80001208 <w_sstatus>
    80001242:	0001                	nop
    80001244:	60a2                	ld	ra,8(sp)
    80001246:	6402                	ld	s0,0(sp)
    80001248:	0141                	addi	sp,sp,16
    8000124a:	8082                	ret

000000008000124c <intr_off>:
    8000124c:	1141                	addi	sp,sp,-16
    8000124e:	e406                	sd	ra,8(sp)
    80001250:	e022                	sd	s0,0(sp)
    80001252:	0800                	addi	s0,sp,16
    80001254:	00000097          	auipc	ra,0x0
    80001258:	f9a080e7          	jalr	-102(ra) # 800011ee <r_sstatus>
    8000125c:	87aa                	mv	a5,a0
    8000125e:	9bf5                	andi	a5,a5,-3
    80001260:	853e                	mv	a0,a5
    80001262:	00000097          	auipc	ra,0x0
    80001266:	fa6080e7          	jalr	-90(ra) # 80001208 <w_sstatus>
    8000126a:	0001                	nop
    8000126c:	60a2                	ld	ra,8(sp)
    8000126e:	6402                	ld	s0,0(sp)
    80001270:	0141                	addi	sp,sp,16
    80001272:	8082                	ret

0000000080001274 <intr_get>:
    80001274:	1101                	addi	sp,sp,-32
    80001276:	ec06                	sd	ra,24(sp)
    80001278:	e822                	sd	s0,16(sp)
    8000127a:	1000                	addi	s0,sp,32
    8000127c:	00000097          	auipc	ra,0x0
    80001280:	f72080e7          	jalr	-142(ra) # 800011ee <r_sstatus>
    80001284:	fea43423          	sd	a0,-24(s0)
    80001288:	fe843783          	ld	a5,-24(s0)
    8000128c:	8b89                	andi	a5,a5,2
    8000128e:	00f037b3          	snez	a5,a5
    80001292:	0ff7f793          	zext.b	a5,a5
    80001296:	2781                	sext.w	a5,a5
    80001298:	853e                	mv	a0,a5
    8000129a:	60e2                	ld	ra,24(sp)
    8000129c:	6442                	ld	s0,16(sp)
    8000129e:	6105                	addi	sp,sp,32
    800012a0:	8082                	ret

00000000800012a2 <initlock>:
    800012a2:	1101                	addi	sp,sp,-32
    800012a4:	ec22                	sd	s0,24(sp)
    800012a6:	1000                	addi	s0,sp,32
    800012a8:	fea43423          	sd	a0,-24(s0)
    800012ac:	feb43023          	sd	a1,-32(s0)
    800012b0:	fe843783          	ld	a5,-24(s0)
    800012b4:	fe043703          	ld	a4,-32(s0)
    800012b8:	e798                	sd	a4,8(a5)
    800012ba:	fe843783          	ld	a5,-24(s0)
    800012be:	0007a023          	sw	zero,0(a5)
    800012c2:	fe843783          	ld	a5,-24(s0)
    800012c6:	0007b823          	sd	zero,16(a5)
    800012ca:	0001                	nop
    800012cc:	6462                	ld	s0,24(sp)
    800012ce:	6105                	addi	sp,sp,32
    800012d0:	8082                	ret

00000000800012d2 <acquire>:
    800012d2:	1101                	addi	sp,sp,-32
    800012d4:	ec06                	sd	ra,24(sp)
    800012d6:	e822                	sd	s0,16(sp)
    800012d8:	1000                	addi	s0,sp,32
    800012da:	fea43423          	sd	a0,-24(s0)
    800012de:	00000097          	auipc	ra,0x0
    800012e2:	0f2080e7          	jalr	242(ra) # 800013d0 <push_off>
    800012e6:	fe843503          	ld	a0,-24(s0)
    800012ea:	00000097          	auipc	ra,0x0
    800012ee:	0a2080e7          	jalr	162(ra) # 8000138c <holding>
    800012f2:	87aa                	mv	a5,a0
    800012f4:	cb89                	beqz	a5,80001306 <acquire+0x34>
    800012f6:	0000b517          	auipc	a0,0xb
    800012fa:	d5a50513          	addi	a0,a0,-678 # 8000c050 <etext+0x50>
    800012fe:	00000097          	auipc	ra,0x0
    80001302:	9a0080e7          	jalr	-1632(ra) # 80000c9e <panic>
    80001306:	0001                	nop
    80001308:	fe843783          	ld	a5,-24(s0)
    8000130c:	4705                	li	a4,1
    8000130e:	0ce7a72f          	amoswap.w.aq	a4,a4,(a5)
    80001312:	0007079b          	sext.w	a5,a4
    80001316:	fbed                	bnez	a5,80001308 <acquire+0x36>
    80001318:	0330000f          	fence	rw,rw
    8000131c:	00001097          	auipc	ra,0x1
    80001320:	5fc080e7          	jalr	1532(ra) # 80002918 <mycpu>
    80001324:	872a                	mv	a4,a0
    80001326:	fe843783          	ld	a5,-24(s0)
    8000132a:	eb98                	sd	a4,16(a5)
    8000132c:	0001                	nop
    8000132e:	60e2                	ld	ra,24(sp)
    80001330:	6442                	ld	s0,16(sp)
    80001332:	6105                	addi	sp,sp,32
    80001334:	8082                	ret

0000000080001336 <release>:
    80001336:	1101                	addi	sp,sp,-32
    80001338:	ec06                	sd	ra,24(sp)
    8000133a:	e822                	sd	s0,16(sp)
    8000133c:	1000                	addi	s0,sp,32
    8000133e:	fea43423          	sd	a0,-24(s0)
    80001342:	fe843503          	ld	a0,-24(s0)
    80001346:	00000097          	auipc	ra,0x0
    8000134a:	046080e7          	jalr	70(ra) # 8000138c <holding>
    8000134e:	87aa                	mv	a5,a0
    80001350:	eb89                	bnez	a5,80001362 <release+0x2c>
    80001352:	0000b517          	auipc	a0,0xb
    80001356:	d0650513          	addi	a0,a0,-762 # 8000c058 <etext+0x58>
    8000135a:	00000097          	auipc	ra,0x0
    8000135e:	944080e7          	jalr	-1724(ra) # 80000c9e <panic>
    80001362:	fe843783          	ld	a5,-24(s0)
    80001366:	0007b823          	sd	zero,16(a5)
    8000136a:	0330000f          	fence	rw,rw
    8000136e:	fe843783          	ld	a5,-24(s0)
    80001372:	0310000f          	fence	rw,w
    80001376:	0007a023          	sw	zero,0(a5)
    8000137a:	00000097          	auipc	ra,0x0
    8000137e:	0ae080e7          	jalr	174(ra) # 80001428 <pop_off>
    80001382:	0001                	nop
    80001384:	60e2                	ld	ra,24(sp)
    80001386:	6442                	ld	s0,16(sp)
    80001388:	6105                	addi	sp,sp,32
    8000138a:	8082                	ret

000000008000138c <holding>:
    8000138c:	7139                	addi	sp,sp,-64
    8000138e:	fc06                	sd	ra,56(sp)
    80001390:	f822                	sd	s0,48(sp)
    80001392:	f426                	sd	s1,40(sp)
    80001394:	0080                	addi	s0,sp,64
    80001396:	fca43423          	sd	a0,-56(s0)
    8000139a:	fc843783          	ld	a5,-56(s0)
    8000139e:	439c                	lw	a5,0(a5)
    800013a0:	cf89                	beqz	a5,800013ba <holding+0x2e>
    800013a2:	fc843783          	ld	a5,-56(s0)
    800013a6:	6b84                	ld	s1,16(a5)
    800013a8:	00001097          	auipc	ra,0x1
    800013ac:	570080e7          	jalr	1392(ra) # 80002918 <mycpu>
    800013b0:	87aa                	mv	a5,a0
    800013b2:	00f49463          	bne	s1,a5,800013ba <holding+0x2e>
    800013b6:	4785                	li	a5,1
    800013b8:	a011                	j	800013bc <holding+0x30>
    800013ba:	4781                	li	a5,0
    800013bc:	fcf42e23          	sw	a5,-36(s0)
    800013c0:	fdc42783          	lw	a5,-36(s0)
    800013c4:	853e                	mv	a0,a5
    800013c6:	70e2                	ld	ra,56(sp)
    800013c8:	7442                	ld	s0,48(sp)
    800013ca:	74a2                	ld	s1,40(sp)
    800013cc:	6121                	addi	sp,sp,64
    800013ce:	8082                	ret

00000000800013d0 <push_off>:
    800013d0:	1101                	addi	sp,sp,-32
    800013d2:	ec06                	sd	ra,24(sp)
    800013d4:	e822                	sd	s0,16(sp)
    800013d6:	1000                	addi	s0,sp,32
    800013d8:	00000097          	auipc	ra,0x0
    800013dc:	e9c080e7          	jalr	-356(ra) # 80001274 <intr_get>
    800013e0:	87aa                	mv	a5,a0
    800013e2:	fef42623          	sw	a5,-20(s0)
    800013e6:	00000097          	auipc	ra,0x0
    800013ea:	e66080e7          	jalr	-410(ra) # 8000124c <intr_off>
    800013ee:	00001097          	auipc	ra,0x1
    800013f2:	52a080e7          	jalr	1322(ra) # 80002918 <mycpu>
    800013f6:	87aa                	mv	a5,a0
    800013f8:	5fbc                	lw	a5,120(a5)
    800013fa:	eb89                	bnez	a5,8000140c <push_off+0x3c>
    800013fc:	00001097          	auipc	ra,0x1
    80001400:	51c080e7          	jalr	1308(ra) # 80002918 <mycpu>
    80001404:	872a                	mv	a4,a0
    80001406:	fec42783          	lw	a5,-20(s0)
    8000140a:	df7c                	sw	a5,124(a4)
    8000140c:	00001097          	auipc	ra,0x1
    80001410:	50c080e7          	jalr	1292(ra) # 80002918 <mycpu>
    80001414:	87aa                	mv	a5,a0
    80001416:	5fb8                	lw	a4,120(a5)
    80001418:	2705                	addiw	a4,a4,1
    8000141a:	2701                	sext.w	a4,a4
    8000141c:	dfb8                	sw	a4,120(a5)
    8000141e:	0001                	nop
    80001420:	60e2                	ld	ra,24(sp)
    80001422:	6442                	ld	s0,16(sp)
    80001424:	6105                	addi	sp,sp,32
    80001426:	8082                	ret

0000000080001428 <pop_off>:
    80001428:	1101                	addi	sp,sp,-32
    8000142a:	ec06                	sd	ra,24(sp)
    8000142c:	e822                	sd	s0,16(sp)
    8000142e:	1000                	addi	s0,sp,32
    80001430:	00001097          	auipc	ra,0x1
    80001434:	4e8080e7          	jalr	1256(ra) # 80002918 <mycpu>
    80001438:	fea43423          	sd	a0,-24(s0)
    8000143c:	00000097          	auipc	ra,0x0
    80001440:	e38080e7          	jalr	-456(ra) # 80001274 <intr_get>
    80001444:	87aa                	mv	a5,a0
    80001446:	cb89                	beqz	a5,80001458 <pop_off+0x30>
    80001448:	0000b517          	auipc	a0,0xb
    8000144c:	c1850513          	addi	a0,a0,-1000 # 8000c060 <etext+0x60>
    80001450:	00000097          	auipc	ra,0x0
    80001454:	84e080e7          	jalr	-1970(ra) # 80000c9e <panic>
    80001458:	fe843783          	ld	a5,-24(s0)
    8000145c:	5fbc                	lw	a5,120(a5)
    8000145e:	00f04a63          	bgtz	a5,80001472 <pop_off+0x4a>
    80001462:	0000b517          	auipc	a0,0xb
    80001466:	c1650513          	addi	a0,a0,-1002 # 8000c078 <etext+0x78>
    8000146a:	00000097          	auipc	ra,0x0
    8000146e:	834080e7          	jalr	-1996(ra) # 80000c9e <panic>
    80001472:	fe843783          	ld	a5,-24(s0)
    80001476:	5fbc                	lw	a5,120(a5)
    80001478:	37fd                	addiw	a5,a5,-1
    8000147a:	0007871b          	sext.w	a4,a5
    8000147e:	fe843783          	ld	a5,-24(s0)
    80001482:	dfb8                	sw	a4,120(a5)
    80001484:	fe843783          	ld	a5,-24(s0)
    80001488:	5fbc                	lw	a5,120(a5)
    8000148a:	eb89                	bnez	a5,8000149c <pop_off+0x74>
    8000148c:	fe843783          	ld	a5,-24(s0)
    80001490:	5ffc                	lw	a5,124(a5)
    80001492:	c789                	beqz	a5,8000149c <pop_off+0x74>
    80001494:	00000097          	auipc	ra,0x0
    80001498:	d8e080e7          	jalr	-626(ra) # 80001222 <intr_on>
    8000149c:	0001                	nop
    8000149e:	60e2                	ld	ra,24(sp)
    800014a0:	6442                	ld	s0,16(sp)
    800014a2:	6105                	addi	sp,sp,32
    800014a4:	8082                	ret

00000000800014a6 <memset>:
    800014a6:	7179                	addi	sp,sp,-48
    800014a8:	f422                	sd	s0,40(sp)
    800014aa:	1800                	addi	s0,sp,48
    800014ac:	fca43c23          	sd	a0,-40(s0)
    800014b0:	87ae                	mv	a5,a1
    800014b2:	8732                	mv	a4,a2
    800014b4:	fcf42a23          	sw	a5,-44(s0)
    800014b8:	87ba                	mv	a5,a4
    800014ba:	fcf42823          	sw	a5,-48(s0)
    800014be:	fd843783          	ld	a5,-40(s0)
    800014c2:	fef43023          	sd	a5,-32(s0)
    800014c6:	fe042623          	sw	zero,-20(s0)
    800014ca:	a00d                	j	800014ec <memset+0x46>
    800014cc:	fec42783          	lw	a5,-20(s0)
    800014d0:	fe043703          	ld	a4,-32(s0)
    800014d4:	97ba                	add	a5,a5,a4
    800014d6:	fd442703          	lw	a4,-44(s0)
    800014da:	0ff77713          	zext.b	a4,a4
    800014de:	00e78023          	sb	a4,0(a5)
    800014e2:	fec42783          	lw	a5,-20(s0)
    800014e6:	2785                	addiw	a5,a5,1
    800014e8:	fef42623          	sw	a5,-20(s0)
    800014ec:	fec42703          	lw	a4,-20(s0)
    800014f0:	fd042783          	lw	a5,-48(s0)
    800014f4:	2781                	sext.w	a5,a5
    800014f6:	fcf76be3          	bltu	a4,a5,800014cc <memset+0x26>
    800014fa:	fd843783          	ld	a5,-40(s0)
    800014fe:	853e                	mv	a0,a5
    80001500:	7422                	ld	s0,40(sp)
    80001502:	6145                	addi	sp,sp,48
    80001504:	8082                	ret

0000000080001506 <memcmp>:
    80001506:	7139                	addi	sp,sp,-64
    80001508:	fc22                	sd	s0,56(sp)
    8000150a:	0080                	addi	s0,sp,64
    8000150c:	fca43c23          	sd	a0,-40(s0)
    80001510:	fcb43823          	sd	a1,-48(s0)
    80001514:	87b2                	mv	a5,a2
    80001516:	fcf42623          	sw	a5,-52(s0)
    8000151a:	fd843783          	ld	a5,-40(s0)
    8000151e:	fef43423          	sd	a5,-24(s0)
    80001522:	fd043783          	ld	a5,-48(s0)
    80001526:	fef43023          	sd	a5,-32(s0)
    8000152a:	a0a1                	j	80001572 <memcmp+0x6c>
    8000152c:	fe843783          	ld	a5,-24(s0)
    80001530:	0007c703          	lbu	a4,0(a5)
    80001534:	fe043783          	ld	a5,-32(s0)
    80001538:	0007c783          	lbu	a5,0(a5)
    8000153c:	02f70163          	beq	a4,a5,8000155e <memcmp+0x58>
    80001540:	fe843783          	ld	a5,-24(s0)
    80001544:	0007c783          	lbu	a5,0(a5)
    80001548:	0007871b          	sext.w	a4,a5
    8000154c:	fe043783          	ld	a5,-32(s0)
    80001550:	0007c783          	lbu	a5,0(a5)
    80001554:	2781                	sext.w	a5,a5
    80001556:	40f707bb          	subw	a5,a4,a5
    8000155a:	2781                	sext.w	a5,a5
    8000155c:	a01d                	j	80001582 <memcmp+0x7c>
    8000155e:	fe843783          	ld	a5,-24(s0)
    80001562:	0785                	addi	a5,a5,1
    80001564:	fef43423          	sd	a5,-24(s0)
    80001568:	fe043783          	ld	a5,-32(s0)
    8000156c:	0785                	addi	a5,a5,1
    8000156e:	fef43023          	sd	a5,-32(s0)
    80001572:	fcc42783          	lw	a5,-52(s0)
    80001576:	fff7871b          	addiw	a4,a5,-1
    8000157a:	fce42623          	sw	a4,-52(s0)
    8000157e:	f7dd                	bnez	a5,8000152c <memcmp+0x26>
    80001580:	4781                	li	a5,0
    80001582:	853e                	mv	a0,a5
    80001584:	7462                	ld	s0,56(sp)
    80001586:	6121                	addi	sp,sp,64
    80001588:	8082                	ret

000000008000158a <memmove>:
    8000158a:	7139                	addi	sp,sp,-64
    8000158c:	fc22                	sd	s0,56(sp)
    8000158e:	0080                	addi	s0,sp,64
    80001590:	fca43c23          	sd	a0,-40(s0)
    80001594:	fcb43823          	sd	a1,-48(s0)
    80001598:	87b2                	mv	a5,a2
    8000159a:	fcf42623          	sw	a5,-52(s0)
    8000159e:	fd043783          	ld	a5,-48(s0)
    800015a2:	fef43423          	sd	a5,-24(s0)
    800015a6:	fd843783          	ld	a5,-40(s0)
    800015aa:	fef43023          	sd	a5,-32(s0)
    800015ae:	fe843703          	ld	a4,-24(s0)
    800015b2:	fe043783          	ld	a5,-32(s0)
    800015b6:	08f77463          	bgeu	a4,a5,8000163e <memmove+0xb4>
    800015ba:	fcc46783          	lwu	a5,-52(s0)
    800015be:	fe843703          	ld	a4,-24(s0)
    800015c2:	97ba                	add	a5,a5,a4
    800015c4:	fe043703          	ld	a4,-32(s0)
    800015c8:	06f77b63          	bgeu	a4,a5,8000163e <memmove+0xb4>
    800015cc:	fcc46783          	lwu	a5,-52(s0)
    800015d0:	fe843703          	ld	a4,-24(s0)
    800015d4:	97ba                	add	a5,a5,a4
    800015d6:	fef43423          	sd	a5,-24(s0)
    800015da:	fcc46783          	lwu	a5,-52(s0)
    800015de:	fe043703          	ld	a4,-32(s0)
    800015e2:	97ba                	add	a5,a5,a4
    800015e4:	fef43023          	sd	a5,-32(s0)
    800015e8:	a01d                	j	8000160e <memmove+0x84>
    800015ea:	fe843783          	ld	a5,-24(s0)
    800015ee:	17fd                	addi	a5,a5,-1
    800015f0:	fef43423          	sd	a5,-24(s0)
    800015f4:	fe043783          	ld	a5,-32(s0)
    800015f8:	17fd                	addi	a5,a5,-1
    800015fa:	fef43023          	sd	a5,-32(s0)
    800015fe:	fe843783          	ld	a5,-24(s0)
    80001602:	0007c703          	lbu	a4,0(a5)
    80001606:	fe043783          	ld	a5,-32(s0)
    8000160a:	00e78023          	sb	a4,0(a5)
    8000160e:	fcc42783          	lw	a5,-52(s0)
    80001612:	fff7871b          	addiw	a4,a5,-1
    80001616:	fce42623          	sw	a4,-52(s0)
    8000161a:	fbe1                	bnez	a5,800015ea <memmove+0x60>
    8000161c:	a805                	j	8000164c <memmove+0xc2>
    8000161e:	fe843703          	ld	a4,-24(s0)
    80001622:	00170793          	addi	a5,a4,1
    80001626:	fef43423          	sd	a5,-24(s0)
    8000162a:	fe043783          	ld	a5,-32(s0)
    8000162e:	00178693          	addi	a3,a5,1
    80001632:	fed43023          	sd	a3,-32(s0)
    80001636:	00074703          	lbu	a4,0(a4)
    8000163a:	00e78023          	sb	a4,0(a5)
    8000163e:	fcc42783          	lw	a5,-52(s0)
    80001642:	fff7871b          	addiw	a4,a5,-1
    80001646:	fce42623          	sw	a4,-52(s0)
    8000164a:	fbf1                	bnez	a5,8000161e <memmove+0x94>
    8000164c:	fd843783          	ld	a5,-40(s0)
    80001650:	853e                	mv	a0,a5
    80001652:	7462                	ld	s0,56(sp)
    80001654:	6121                	addi	sp,sp,64
    80001656:	8082                	ret

0000000080001658 <memcpy>:
    80001658:	7179                	addi	sp,sp,-48
    8000165a:	f406                	sd	ra,40(sp)
    8000165c:	f022                	sd	s0,32(sp)
    8000165e:	1800                	addi	s0,sp,48
    80001660:	fea43423          	sd	a0,-24(s0)
    80001664:	feb43023          	sd	a1,-32(s0)
    80001668:	87b2                	mv	a5,a2
    8000166a:	fcf42e23          	sw	a5,-36(s0)
    8000166e:	fdc42783          	lw	a5,-36(s0)
    80001672:	863e                	mv	a2,a5
    80001674:	fe043583          	ld	a1,-32(s0)
    80001678:	fe843503          	ld	a0,-24(s0)
    8000167c:	00000097          	auipc	ra,0x0
    80001680:	f0e080e7          	jalr	-242(ra) # 8000158a <memmove>
    80001684:	87aa                	mv	a5,a0
    80001686:	853e                	mv	a0,a5
    80001688:	70a2                	ld	ra,40(sp)
    8000168a:	7402                	ld	s0,32(sp)
    8000168c:	6145                	addi	sp,sp,48
    8000168e:	8082                	ret

0000000080001690 <strncmp>:
    80001690:	7179                	addi	sp,sp,-48
    80001692:	f422                	sd	s0,40(sp)
    80001694:	1800                	addi	s0,sp,48
    80001696:	fea43423          	sd	a0,-24(s0)
    8000169a:	feb43023          	sd	a1,-32(s0)
    8000169e:	87b2                	mv	a5,a2
    800016a0:	fcf42e23          	sw	a5,-36(s0)
    800016a4:	a005                	j	800016c4 <strncmp+0x34>
    800016a6:	fdc42783          	lw	a5,-36(s0)
    800016aa:	37fd                	addiw	a5,a5,-1
    800016ac:	fcf42e23          	sw	a5,-36(s0)
    800016b0:	fe843783          	ld	a5,-24(s0)
    800016b4:	0785                	addi	a5,a5,1
    800016b6:	fef43423          	sd	a5,-24(s0)
    800016ba:	fe043783          	ld	a5,-32(s0)
    800016be:	0785                	addi	a5,a5,1
    800016c0:	fef43023          	sd	a5,-32(s0)
    800016c4:	fdc42783          	lw	a5,-36(s0)
    800016c8:	2781                	sext.w	a5,a5
    800016ca:	c385                	beqz	a5,800016ea <strncmp+0x5a>
    800016cc:	fe843783          	ld	a5,-24(s0)
    800016d0:	0007c783          	lbu	a5,0(a5)
    800016d4:	cb99                	beqz	a5,800016ea <strncmp+0x5a>
    800016d6:	fe843783          	ld	a5,-24(s0)
    800016da:	0007c703          	lbu	a4,0(a5)
    800016de:	fe043783          	ld	a5,-32(s0)
    800016e2:	0007c783          	lbu	a5,0(a5)
    800016e6:	fcf700e3          	beq	a4,a5,800016a6 <strncmp+0x16>
    800016ea:	fdc42783          	lw	a5,-36(s0)
    800016ee:	2781                	sext.w	a5,a5
    800016f0:	e399                	bnez	a5,800016f6 <strncmp+0x66>
    800016f2:	4781                	li	a5,0
    800016f4:	a839                	j	80001712 <strncmp+0x82>
    800016f6:	fe843783          	ld	a5,-24(s0)
    800016fa:	0007c783          	lbu	a5,0(a5)
    800016fe:	0007871b          	sext.w	a4,a5
    80001702:	fe043783          	ld	a5,-32(s0)
    80001706:	0007c783          	lbu	a5,0(a5)
    8000170a:	2781                	sext.w	a5,a5
    8000170c:	40f707bb          	subw	a5,a4,a5
    80001710:	2781                	sext.w	a5,a5
    80001712:	853e                	mv	a0,a5
    80001714:	7422                	ld	s0,40(sp)
    80001716:	6145                	addi	sp,sp,48
    80001718:	8082                	ret

000000008000171a <strncpy>:
    8000171a:	7139                	addi	sp,sp,-64
    8000171c:	fc22                	sd	s0,56(sp)
    8000171e:	0080                	addi	s0,sp,64
    80001720:	fca43c23          	sd	a0,-40(s0)
    80001724:	fcb43823          	sd	a1,-48(s0)
    80001728:	87b2                	mv	a5,a2
    8000172a:	fcf42623          	sw	a5,-52(s0)
    8000172e:	fd843783          	ld	a5,-40(s0)
    80001732:	fef43423          	sd	a5,-24(s0)
    80001736:	0001                	nop
    80001738:	fcc42783          	lw	a5,-52(s0)
    8000173c:	fff7871b          	addiw	a4,a5,-1
    80001740:	fce42623          	sw	a4,-52(s0)
    80001744:	02f05e63          	blez	a5,80001780 <strncpy+0x66>
    80001748:	fd043703          	ld	a4,-48(s0)
    8000174c:	00170793          	addi	a5,a4,1
    80001750:	fcf43823          	sd	a5,-48(s0)
    80001754:	fd843783          	ld	a5,-40(s0)
    80001758:	00178693          	addi	a3,a5,1
    8000175c:	fcd43c23          	sd	a3,-40(s0)
    80001760:	00074703          	lbu	a4,0(a4)
    80001764:	00e78023          	sb	a4,0(a5)
    80001768:	0007c783          	lbu	a5,0(a5)
    8000176c:	f7f1                	bnez	a5,80001738 <strncpy+0x1e>
    8000176e:	a809                	j	80001780 <strncpy+0x66>
    80001770:	fd843783          	ld	a5,-40(s0)
    80001774:	00178713          	addi	a4,a5,1
    80001778:	fce43c23          	sd	a4,-40(s0)
    8000177c:	00078023          	sb	zero,0(a5)
    80001780:	fcc42783          	lw	a5,-52(s0)
    80001784:	fff7871b          	addiw	a4,a5,-1
    80001788:	fce42623          	sw	a4,-52(s0)
    8000178c:	fef042e3          	bgtz	a5,80001770 <strncpy+0x56>
    80001790:	fe843783          	ld	a5,-24(s0)
    80001794:	853e                	mv	a0,a5
    80001796:	7462                	ld	s0,56(sp)
    80001798:	6121                	addi	sp,sp,64
    8000179a:	8082                	ret

000000008000179c <safestrcpy>:
    8000179c:	7139                	addi	sp,sp,-64
    8000179e:	fc22                	sd	s0,56(sp)
    800017a0:	0080                	addi	s0,sp,64
    800017a2:	fca43c23          	sd	a0,-40(s0)
    800017a6:	fcb43823          	sd	a1,-48(s0)
    800017aa:	87b2                	mv	a5,a2
    800017ac:	fcf42623          	sw	a5,-52(s0)
    800017b0:	fd843783          	ld	a5,-40(s0)
    800017b4:	fef43423          	sd	a5,-24(s0)
    800017b8:	fcc42783          	lw	a5,-52(s0)
    800017bc:	2781                	sext.w	a5,a5
    800017be:	00f04563          	bgtz	a5,800017c8 <safestrcpy+0x2c>
    800017c2:	fe843783          	ld	a5,-24(s0)
    800017c6:	a0a9                	j	80001810 <safestrcpy+0x74>
    800017c8:	0001                	nop
    800017ca:	fcc42783          	lw	a5,-52(s0)
    800017ce:	37fd                	addiw	a5,a5,-1
    800017d0:	fcf42623          	sw	a5,-52(s0)
    800017d4:	fcc42783          	lw	a5,-52(s0)
    800017d8:	2781                	sext.w	a5,a5
    800017da:	02f05563          	blez	a5,80001804 <safestrcpy+0x68>
    800017de:	fd043703          	ld	a4,-48(s0)
    800017e2:	00170793          	addi	a5,a4,1
    800017e6:	fcf43823          	sd	a5,-48(s0)
    800017ea:	fd843783          	ld	a5,-40(s0)
    800017ee:	00178693          	addi	a3,a5,1
    800017f2:	fcd43c23          	sd	a3,-40(s0)
    800017f6:	00074703          	lbu	a4,0(a4)
    800017fa:	00e78023          	sb	a4,0(a5)
    800017fe:	0007c783          	lbu	a5,0(a5)
    80001802:	f7e1                	bnez	a5,800017ca <safestrcpy+0x2e>
    80001804:	fd843783          	ld	a5,-40(s0)
    80001808:	00078023          	sb	zero,0(a5)
    8000180c:	fe843783          	ld	a5,-24(s0)
    80001810:	853e                	mv	a0,a5
    80001812:	7462                	ld	s0,56(sp)
    80001814:	6121                	addi	sp,sp,64
    80001816:	8082                	ret

0000000080001818 <strlen>:
    80001818:	7179                	addi	sp,sp,-48
    8000181a:	f422                	sd	s0,40(sp)
    8000181c:	1800                	addi	s0,sp,48
    8000181e:	fca43c23          	sd	a0,-40(s0)
    80001822:	fe042623          	sw	zero,-20(s0)
    80001826:	a031                	j	80001832 <strlen+0x1a>
    80001828:	fec42783          	lw	a5,-20(s0)
    8000182c:	2785                	addiw	a5,a5,1
    8000182e:	fef42623          	sw	a5,-20(s0)
    80001832:	fec42783          	lw	a5,-20(s0)
    80001836:	fd843703          	ld	a4,-40(s0)
    8000183a:	97ba                	add	a5,a5,a4
    8000183c:	0007c783          	lbu	a5,0(a5)
    80001840:	f7e5                	bnez	a5,80001828 <strlen+0x10>
    80001842:	fec42783          	lw	a5,-20(s0)
    80001846:	853e                	mv	a0,a5
    80001848:	7422                	ld	s0,40(sp)
    8000184a:	6145                	addi	sp,sp,48
    8000184c:	8082                	ret

000000008000184e <main>:
    8000184e:	1141                	addi	sp,sp,-16
    80001850:	e406                	sd	ra,8(sp)
    80001852:	e022                	sd	s0,0(sp)
    80001854:	0800                	addi	s0,sp,16
    80001856:	00001097          	auipc	ra,0x1
    8000185a:	09e080e7          	jalr	158(ra) # 800028f4 <cpuid>
    8000185e:	87aa                	mv	a5,a0
    80001860:	e3f1                	bnez	a5,80001924 <main+0xd6>
    80001862:	fffff097          	auipc	ra,0xfffff
    80001866:	016080e7          	jalr	22(ra) # 80000878 <consoleinit>
    8000186a:	00008097          	auipc	ra,0x8
    8000186e:	518080e7          	jalr	1304(ra) # 80009d82 <statsinit>
    80001872:	fffff097          	auipc	ra,0xfffff
    80001876:	480080e7          	jalr	1152(ra) # 80000cf2 <printfinit>
    8000187a:	0000b517          	auipc	a0,0xb
    8000187e:	80650513          	addi	a0,a0,-2042 # 8000c080 <etext+0x80>
    80001882:	fffff097          	auipc	ra,0xfffff
    80001886:	1c6080e7          	jalr	454(ra) # 80000a48 <printf>
    8000188a:	0000a517          	auipc	a0,0xa
    8000188e:	7fe50513          	addi	a0,a0,2046 # 8000c088 <etext+0x88>
    80001892:	fffff097          	auipc	ra,0xfffff
    80001896:	1b6080e7          	jalr	438(ra) # 80000a48 <printf>
    8000189a:	0000a517          	auipc	a0,0xa
    8000189e:	7e650513          	addi	a0,a0,2022 # 8000c080 <etext+0x80>
    800018a2:	fffff097          	auipc	ra,0xfffff
    800018a6:	1a6080e7          	jalr	422(ra) # 80000a48 <printf>
    800018aa:	fffff097          	auipc	ra,0xfffff
    800018ae:	798080e7          	jalr	1944(ra) # 80001042 <kinit>
    800018b2:	00000097          	auipc	ra,0x0
    800018b6:	108080e7          	jalr	264(ra) # 800019ba <g_space_init>
    800018ba:	00000097          	auipc	ra,0x0
    800018be:	2dc080e7          	jalr	732(ra) # 80001b96 <kvminithart>
    800018c2:	00001097          	auipc	ra,0x1
    800018c6:	f94080e7          	jalr	-108(ra) # 80002856 <procinit>
    800018ca:	00002097          	auipc	ra,0x2
    800018ce:	62a080e7          	jalr	1578(ra) # 80003ef4 <trapinit>
    800018d2:	00002097          	auipc	ra,0x2
    800018d6:	64c080e7          	jalr	1612(ra) # 80003f1e <trapinithart>
    800018da:	00007097          	auipc	ra,0x7
    800018de:	6f0080e7          	jalr	1776(ra) # 80008fca <plicinit>
    800018e2:	00007097          	auipc	ra,0x7
    800018e6:	70c080e7          	jalr	1804(ra) # 80008fee <plicinithart>
    800018ea:	00003097          	auipc	ra,0x3
    800018ee:	076080e7          	jalr	118(ra) # 80004960 <binit>
    800018f2:	00004097          	auipc	ra,0x4
    800018f6:	8aa080e7          	jalr	-1878(ra) # 8000519c <iinit>
    800018fa:	00005097          	auipc	ra,0x5
    800018fe:	246080e7          	jalr	582(ra) # 80006b40 <fileinit>
    80001902:	00007097          	auipc	ra,0x7
    80001906:	7c0080e7          	jalr	1984(ra) # 800090c2 <virtio_disk_init>
    8000190a:	00001097          	auipc	ra,0x1
    8000190e:	736080e7          	jalr	1846(ra) # 80003040 <userinit>
    80001912:	0330000f          	fence	rw,rw
    80001916:	00014797          	auipc	a5,0x14
    8000191a:	03a78793          	addi	a5,a5,58 # 80015950 <started>
    8000191e:	4705                	li	a4,1
    80001920:	c398                	sw	a4,0(a5)
    80001922:	a0a9                	j	8000196c <main+0x11e>
    80001924:	0001                	nop
    80001926:	00014797          	auipc	a5,0x14
    8000192a:	02a78793          	addi	a5,a5,42 # 80015950 <started>
    8000192e:	439c                	lw	a5,0(a5)
    80001930:	2781                	sext.w	a5,a5
    80001932:	dbf5                	beqz	a5,80001926 <main+0xd8>
    80001934:	0330000f          	fence	rw,rw
    80001938:	00001097          	auipc	ra,0x1
    8000193c:	fbc080e7          	jalr	-68(ra) # 800028f4 <cpuid>
    80001940:	87aa                	mv	a5,a0
    80001942:	85be                	mv	a1,a5
    80001944:	0000a517          	auipc	a0,0xa
    80001948:	75c50513          	addi	a0,a0,1884 # 8000c0a0 <etext+0xa0>
    8000194c:	fffff097          	auipc	ra,0xfffff
    80001950:	0fc080e7          	jalr	252(ra) # 80000a48 <printf>
    80001954:	00000097          	auipc	ra,0x0
    80001958:	242080e7          	jalr	578(ra) # 80001b96 <kvminithart>
    8000195c:	00002097          	auipc	ra,0x2
    80001960:	5c2080e7          	jalr	1474(ra) # 80003f1e <trapinithart>
    80001964:	00007097          	auipc	ra,0x7
    80001968:	68a080e7          	jalr	1674(ra) # 80008fee <plicinithart>
    8000196c:	00002097          	auipc	ra,0x2
    80001970:	d14080e7          	jalr	-748(ra) # 80003680 <scheduler>

0000000080001974 <w_satp>:
    80001974:	1101                	addi	sp,sp,-32
    80001976:	ec22                	sd	s0,24(sp)
    80001978:	1000                	addi	s0,sp,32
    8000197a:	fea43423          	sd	a0,-24(s0)
    8000197e:	fe843783          	ld	a5,-24(s0)
    80001982:	18079073          	csrw	satp,a5
    80001986:	0001                	nop
    80001988:	6462                	ld	s0,24(sp)
    8000198a:	6105                	addi	sp,sp,32
    8000198c:	8082                	ret

000000008000198e <r_satp>:
    8000198e:	1101                	addi	sp,sp,-32
    80001990:	ec22                	sd	s0,24(sp)
    80001992:	1000                	addi	s0,sp,32
    80001994:	180027f3          	csrr	a5,satp
    80001998:	fef43423          	sd	a5,-24(s0)
    8000199c:	fe843783          	ld	a5,-24(s0)
    800019a0:	853e                	mv	a0,a5
    800019a2:	6462                	ld	s0,24(sp)
    800019a4:	6105                	addi	sp,sp,32
    800019a6:	8082                	ret

00000000800019a8 <sfence_vma>:
    800019a8:	1141                	addi	sp,sp,-16
    800019aa:	e422                	sd	s0,8(sp)
    800019ac:	0800                	addi	s0,sp,16
    800019ae:	12000073          	sfence.vma
    800019b2:	0001                	nop
    800019b4:	6422                	ld	s0,8(sp)
    800019b6:	0141                	addi	sp,sp,16
    800019b8:	8082                	ret

00000000800019ba <g_space_init>:
    800019ba:	1141                	addi	sp,sp,-16
    800019bc:	e406                	sd	ra,8(sp)
    800019be:	e022                	sd	s0,0(sp)
    800019c0:	0800                	addi	s0,sp,16
    800019c2:	fffff097          	auipc	ra,0xfffff
    800019c6:	7bc080e7          	jalr	1980(ra) # 8000117e <kalloc>
    800019ca:	872a                	mv	a4,a0
    800019cc:	0000b797          	auipc	a5,0xb
    800019d0:	64478793          	addi	a5,a5,1604 # 8000d010 <g_space>
    800019d4:	e398                	sd	a4,0(a5)
    800019d6:	0000b797          	auipc	a5,0xb
    800019da:	63a78793          	addi	a5,a5,1594 # 8000d010 <g_space>
    800019de:	639c                	ld	a5,0(a5)
    800019e0:	6605                	lui	a2,0x1
    800019e2:	4581                	li	a1,0
    800019e4:	853e                	mv	a0,a5
    800019e6:	00000097          	auipc	ra,0x0
    800019ea:	ac0080e7          	jalr	-1344(ra) # 800014a6 <memset>
    800019ee:	0000b797          	auipc	a5,0xb
    800019f2:	62278793          	addi	a5,a5,1570 # 8000d010 <g_space>
    800019f6:	639c                	ld	a5,0(a5)
    800019f8:	4719                	li	a4,6
    800019fa:	100006b7          	lui	a3,0x10000
    800019fe:	6605                	lui	a2,0x1
    80001a00:	100005b7          	lui	a1,0x10000
    80001a04:	853e                	mv	a0,a5
    80001a06:	00000097          	auipc	ra,0x0
    80001a0a:	3bc080e7          	jalr	956(ra) # 80001dc2 <space_map>
    80001a0e:	87aa                	mv	a5,a0
    80001a10:	cb89                	beqz	a5,80001a22 <g_space_init+0x68>
    80001a12:	0000a517          	auipc	a0,0xa
    80001a16:	6a650513          	addi	a0,a0,1702 # 8000c0b8 <etext+0xb8>
    80001a1a:	fffff097          	auipc	ra,0xfffff
    80001a1e:	284080e7          	jalr	644(ra) # 80000c9e <panic>
    80001a22:	0000b797          	auipc	a5,0xb
    80001a26:	5ee78793          	addi	a5,a5,1518 # 8000d010 <g_space>
    80001a2a:	639c                	ld	a5,0(a5)
    80001a2c:	4719                	li	a4,6
    80001a2e:	100016b7          	lui	a3,0x10001
    80001a32:	6605                	lui	a2,0x1
    80001a34:	100015b7          	lui	a1,0x10001
    80001a38:	853e                	mv	a0,a5
    80001a3a:	00000097          	auipc	ra,0x0
    80001a3e:	388080e7          	jalr	904(ra) # 80001dc2 <space_map>
    80001a42:	87aa                	mv	a5,a0
    80001a44:	cb89                	beqz	a5,80001a56 <g_space_init+0x9c>
    80001a46:	0000a517          	auipc	a0,0xa
    80001a4a:	67250513          	addi	a0,a0,1650 # 8000c0b8 <etext+0xb8>
    80001a4e:	fffff097          	auipc	ra,0xfffff
    80001a52:	250080e7          	jalr	592(ra) # 80000c9e <panic>
    80001a56:	0000b797          	auipc	a5,0xb
    80001a5a:	5ba78793          	addi	a5,a5,1466 # 8000d010 <g_space>
    80001a5e:	639c                	ld	a5,0(a5)
    80001a60:	4719                	li	a4,6
    80001a62:	020006b7          	lui	a3,0x2000
    80001a66:	6641                	lui	a2,0x10
    80001a68:	020005b7          	lui	a1,0x2000
    80001a6c:	853e                	mv	a0,a5
    80001a6e:	00000097          	auipc	ra,0x0
    80001a72:	354080e7          	jalr	852(ra) # 80001dc2 <space_map>
    80001a76:	87aa                	mv	a5,a0
    80001a78:	cb89                	beqz	a5,80001a8a <g_space_init+0xd0>
    80001a7a:	0000a517          	auipc	a0,0xa
    80001a7e:	63e50513          	addi	a0,a0,1598 # 8000c0b8 <etext+0xb8>
    80001a82:	fffff097          	auipc	ra,0xfffff
    80001a86:	21c080e7          	jalr	540(ra) # 80000c9e <panic>
    80001a8a:	0000b797          	auipc	a5,0xb
    80001a8e:	58678793          	addi	a5,a5,1414 # 8000d010 <g_space>
    80001a92:	639c                	ld	a5,0(a5)
    80001a94:	4719                	li	a4,6
    80001a96:	0c0006b7          	lui	a3,0xc000
    80001a9a:	00400637          	lui	a2,0x400
    80001a9e:	0c0005b7          	lui	a1,0xc000
    80001aa2:	853e                	mv	a0,a5
    80001aa4:	00000097          	auipc	ra,0x0
    80001aa8:	31e080e7          	jalr	798(ra) # 80001dc2 <space_map>
    80001aac:	87aa                	mv	a5,a0
    80001aae:	cb89                	beqz	a5,80001ac0 <g_space_init+0x106>
    80001ab0:	0000a517          	auipc	a0,0xa
    80001ab4:	60850513          	addi	a0,a0,1544 # 8000c0b8 <etext+0xb8>
    80001ab8:	fffff097          	auipc	ra,0xfffff
    80001abc:	1e6080e7          	jalr	486(ra) # 80000c9e <panic>
    80001ac0:	0000b797          	auipc	a5,0xb
    80001ac4:	55078793          	addi	a5,a5,1360 # 8000d010 <g_space>
    80001ac8:	6388                	ld	a0,0(a5)
    80001aca:	0000a717          	auipc	a4,0xa
    80001ace:	53670713          	addi	a4,a4,1334 # 8000c000 <etext>
    80001ad2:	800007b7          	lui	a5,0x80000
    80001ad6:	00f70633          	add	a2,a4,a5
    80001ada:	4729                	li	a4,10
    80001adc:	4785                	li	a5,1
    80001ade:	01f79693          	slli	a3,a5,0x1f
    80001ae2:	4785                	li	a5,1
    80001ae4:	01f79593          	slli	a1,a5,0x1f
    80001ae8:	00000097          	auipc	ra,0x0
    80001aec:	2da080e7          	jalr	730(ra) # 80001dc2 <space_map>
    80001af0:	87aa                	mv	a5,a0
    80001af2:	cb89                	beqz	a5,80001b04 <g_space_init+0x14a>
    80001af4:	0000a517          	auipc	a0,0xa
    80001af8:	5c450513          	addi	a0,a0,1476 # 8000c0b8 <etext+0xb8>
    80001afc:	fffff097          	auipc	ra,0xfffff
    80001b00:	1a2080e7          	jalr	418(ra) # 80000c9e <panic>
    80001b04:	0000b797          	auipc	a5,0xb
    80001b08:	50c78793          	addi	a5,a5,1292 # 8000d010 <g_space>
    80001b0c:	6388                	ld	a0,0(a5)
    80001b0e:	0000a597          	auipc	a1,0xa
    80001b12:	4f258593          	addi	a1,a1,1266 # 8000c000 <etext>
    80001b16:	0000a797          	auipc	a5,0xa
    80001b1a:	4ea78793          	addi	a5,a5,1258 # 8000c000 <etext>
    80001b1e:	4745                	li	a4,17
    80001b20:	076e                	slli	a4,a4,0x1b
    80001b22:	40f707b3          	sub	a5,a4,a5
    80001b26:	0000a697          	auipc	a3,0xa
    80001b2a:	4da68693          	addi	a3,a3,1242 # 8000c000 <etext>
    80001b2e:	4719                	li	a4,6
    80001b30:	863e                	mv	a2,a5
    80001b32:	00000097          	auipc	ra,0x0
    80001b36:	290080e7          	jalr	656(ra) # 80001dc2 <space_map>
    80001b3a:	87aa                	mv	a5,a0
    80001b3c:	cb89                	beqz	a5,80001b4e <g_space_init+0x194>
    80001b3e:	0000a517          	auipc	a0,0xa
    80001b42:	57a50513          	addi	a0,a0,1402 # 8000c0b8 <etext+0xb8>
    80001b46:	fffff097          	auipc	ra,0xfffff
    80001b4a:	158080e7          	jalr	344(ra) # 80000c9e <panic>
    80001b4e:	0000b797          	auipc	a5,0xb
    80001b52:	4c278793          	addi	a5,a5,1218 # 8000d010 <g_space>
    80001b56:	6388                	ld	a0,0(a5)
    80001b58:	00009797          	auipc	a5,0x9
    80001b5c:	4a878793          	addi	a5,a5,1192 # 8000b000 <_trampoline>
    80001b60:	4729                	li	a4,10
    80001b62:	86be                	mv	a3,a5
    80001b64:	6605                	lui	a2,0x1
    80001b66:	040007b7          	lui	a5,0x4000
    80001b6a:	17fd                	addi	a5,a5,-1 # 3ffffff <_entry-0x7c000001>
    80001b6c:	00c79593          	slli	a1,a5,0xc
    80001b70:	00000097          	auipc	ra,0x0
    80001b74:	252080e7          	jalr	594(ra) # 80001dc2 <space_map>
    80001b78:	87aa                	mv	a5,a0
    80001b7a:	cb89                	beqz	a5,80001b8c <g_space_init+0x1d2>
    80001b7c:	0000a517          	auipc	a0,0xa
    80001b80:	53c50513          	addi	a0,a0,1340 # 8000c0b8 <etext+0xb8>
    80001b84:	fffff097          	auipc	ra,0xfffff
    80001b88:	11a080e7          	jalr	282(ra) # 80000c9e <panic>
    80001b8c:	0001                	nop
    80001b8e:	60a2                	ld	ra,8(sp)
    80001b90:	6402                	ld	s0,0(sp)
    80001b92:	0141                	addi	sp,sp,16
    80001b94:	8082                	ret

0000000080001b96 <kvminithart>:
    80001b96:	1141                	addi	sp,sp,-16
    80001b98:	e406                	sd	ra,8(sp)
    80001b9a:	e022                	sd	s0,0(sp)
    80001b9c:	0800                	addi	s0,sp,16
    80001b9e:	0000b797          	auipc	a5,0xb
    80001ba2:	47278793          	addi	a5,a5,1138 # 8000d010 <g_space>
    80001ba6:	639c                	ld	a5,0(a5)
    80001ba8:	00c7d713          	srli	a4,a5,0xc
    80001bac:	57fd                	li	a5,-1
    80001bae:	17fe                	slli	a5,a5,0x3f
    80001bb0:	8fd9                	or	a5,a5,a4
    80001bb2:	853e                	mv	a0,a5
    80001bb4:	00000097          	auipc	ra,0x0
    80001bb8:	dc0080e7          	jalr	-576(ra) # 80001974 <w_satp>
    80001bbc:	00000097          	auipc	ra,0x0
    80001bc0:	dec080e7          	jalr	-532(ra) # 800019a8 <sfence_vma>
    80001bc4:	0001                	nop
    80001bc6:	60a2                	ld	ra,8(sp)
    80001bc8:	6402                	ld	s0,0(sp)
    80001bca:	0141                	addi	sp,sp,16
    80001bcc:	8082                	ret

0000000080001bce <walk>:
    80001bce:	7139                	addi	sp,sp,-64
    80001bd0:	fc06                	sd	ra,56(sp)
    80001bd2:	f822                	sd	s0,48(sp)
    80001bd4:	0080                	addi	s0,sp,64
    80001bd6:	fca43c23          	sd	a0,-40(s0)
    80001bda:	fcb43823          	sd	a1,-48(s0)
    80001bde:	87b2                	mv	a5,a2
    80001be0:	fcf42623          	sw	a5,-52(s0)
    80001be4:	fd043703          	ld	a4,-48(s0)
    80001be8:	57fd                	li	a5,-1
    80001bea:	83e9                	srli	a5,a5,0x1a
    80001bec:	00e7fa63          	bgeu	a5,a4,80001c00 <walk+0x32>
    80001bf0:	0000a517          	auipc	a0,0xa
    80001bf4:	4d850513          	addi	a0,a0,1240 # 8000c0c8 <etext+0xc8>
    80001bf8:	fffff097          	auipc	ra,0xfffff
    80001bfc:	0a6080e7          	jalr	166(ra) # 80000c9e <panic>
    80001c00:	4789                	li	a5,2
    80001c02:	fef42623          	sw	a5,-20(s0)
    80001c06:	a851                	j	80001c9a <walk+0xcc>
    80001c08:	fec42783          	lw	a5,-20(s0)
    80001c0c:	873e                	mv	a4,a5
    80001c0e:	87ba                	mv	a5,a4
    80001c10:	0037979b          	slliw	a5,a5,0x3
    80001c14:	9fb9                	addw	a5,a5,a4
    80001c16:	2781                	sext.w	a5,a5
    80001c18:	27b1                	addiw	a5,a5,12
    80001c1a:	2781                	sext.w	a5,a5
    80001c1c:	873e                	mv	a4,a5
    80001c1e:	fd043783          	ld	a5,-48(s0)
    80001c22:	00e7d7b3          	srl	a5,a5,a4
    80001c26:	1ff7f793          	andi	a5,a5,511
    80001c2a:	078e                	slli	a5,a5,0x3
    80001c2c:	fd843703          	ld	a4,-40(s0)
    80001c30:	97ba                	add	a5,a5,a4
    80001c32:	fef43023          	sd	a5,-32(s0)
    80001c36:	fe043783          	ld	a5,-32(s0)
    80001c3a:	639c                	ld	a5,0(a5)
    80001c3c:	8b85                	andi	a5,a5,1
    80001c3e:	cb89                	beqz	a5,80001c50 <walk+0x82>
    80001c40:	fe043783          	ld	a5,-32(s0)
    80001c44:	639c                	ld	a5,0(a5)
    80001c46:	83a9                	srli	a5,a5,0xa
    80001c48:	07b2                	slli	a5,a5,0xc
    80001c4a:	fcf43c23          	sd	a5,-40(s0)
    80001c4e:	a089                	j	80001c90 <walk+0xc2>
    80001c50:	fcc42783          	lw	a5,-52(s0)
    80001c54:	2781                	sext.w	a5,a5
    80001c56:	cb91                	beqz	a5,80001c6a <walk+0x9c>
    80001c58:	fffff097          	auipc	ra,0xfffff
    80001c5c:	526080e7          	jalr	1318(ra) # 8000117e <kalloc>
    80001c60:	fca43c23          	sd	a0,-40(s0)
    80001c64:	fd843783          	ld	a5,-40(s0)
    80001c68:	e399                	bnez	a5,80001c6e <walk+0xa0>
    80001c6a:	4781                	li	a5,0
    80001c6c:	a0a9                	j	80001cb6 <walk+0xe8>
    80001c6e:	6605                	lui	a2,0x1
    80001c70:	4581                	li	a1,0
    80001c72:	fd843503          	ld	a0,-40(s0)
    80001c76:	00000097          	auipc	ra,0x0
    80001c7a:	830080e7          	jalr	-2000(ra) # 800014a6 <memset>
    80001c7e:	fd843783          	ld	a5,-40(s0)
    80001c82:	83b1                	srli	a5,a5,0xc
    80001c84:	07aa                	slli	a5,a5,0xa
    80001c86:	0017e713          	ori	a4,a5,1
    80001c8a:	fe043783          	ld	a5,-32(s0)
    80001c8e:	e398                	sd	a4,0(a5)
    80001c90:	fec42783          	lw	a5,-20(s0)
    80001c94:	37fd                	addiw	a5,a5,-1
    80001c96:	fef42623          	sw	a5,-20(s0)
    80001c9a:	fec42783          	lw	a5,-20(s0)
    80001c9e:	2781                	sext.w	a5,a5
    80001ca0:	f6f044e3          	bgtz	a5,80001c08 <walk+0x3a>
    80001ca4:	fd043783          	ld	a5,-48(s0)
    80001ca8:	83b1                	srli	a5,a5,0xc
    80001caa:	1ff7f793          	andi	a5,a5,511
    80001cae:	078e                	slli	a5,a5,0x3
    80001cb0:	fd843703          	ld	a4,-40(s0)
    80001cb4:	97ba                	add	a5,a5,a4
    80001cb6:	853e                	mv	a0,a5
    80001cb8:	70e2                	ld	ra,56(sp)
    80001cba:	7442                	ld	s0,48(sp)
    80001cbc:	6121                	addi	sp,sp,64
    80001cbe:	8082                	ret

0000000080001cc0 <walkaddr>:
    80001cc0:	7179                	addi	sp,sp,-48
    80001cc2:	f406                	sd	ra,40(sp)
    80001cc4:	f022                	sd	s0,32(sp)
    80001cc6:	1800                	addi	s0,sp,48
    80001cc8:	fca43c23          	sd	a0,-40(s0)
    80001ccc:	fcb43823          	sd	a1,-48(s0)
    80001cd0:	fd043703          	ld	a4,-48(s0)
    80001cd4:	57fd                	li	a5,-1
    80001cd6:	83e9                	srli	a5,a5,0x1a
    80001cd8:	00e7f463          	bgeu	a5,a4,80001ce0 <walkaddr+0x20>
    80001cdc:	4781                	li	a5,0
    80001cde:	a881                	j	80001d2e <walkaddr+0x6e>
    80001ce0:	4601                	li	a2,0
    80001ce2:	fd043583          	ld	a1,-48(s0)
    80001ce6:	fd843503          	ld	a0,-40(s0)
    80001cea:	00000097          	auipc	ra,0x0
    80001cee:	ee4080e7          	jalr	-284(ra) # 80001bce <walk>
    80001cf2:	fea43423          	sd	a0,-24(s0)
    80001cf6:	fe843783          	ld	a5,-24(s0)
    80001cfa:	e399                	bnez	a5,80001d00 <walkaddr+0x40>
    80001cfc:	4781                	li	a5,0
    80001cfe:	a805                	j	80001d2e <walkaddr+0x6e>
    80001d00:	fe843783          	ld	a5,-24(s0)
    80001d04:	639c                	ld	a5,0(a5)
    80001d06:	8b85                	andi	a5,a5,1
    80001d08:	e399                	bnez	a5,80001d0e <walkaddr+0x4e>
    80001d0a:	4781                	li	a5,0
    80001d0c:	a00d                	j	80001d2e <walkaddr+0x6e>
    80001d0e:	fe843783          	ld	a5,-24(s0)
    80001d12:	639c                	ld	a5,0(a5)
    80001d14:	8bc1                	andi	a5,a5,16
    80001d16:	e399                	bnez	a5,80001d1c <walkaddr+0x5c>
    80001d18:	4781                	li	a5,0
    80001d1a:	a811                	j	80001d2e <walkaddr+0x6e>
    80001d1c:	fe843783          	ld	a5,-24(s0)
    80001d20:	639c                	ld	a5,0(a5)
    80001d22:	83a9                	srli	a5,a5,0xa
    80001d24:	07b2                	slli	a5,a5,0xc
    80001d26:	fef43023          	sd	a5,-32(s0)
    80001d2a:	fe043783          	ld	a5,-32(s0)
    80001d2e:	853e                	mv	a0,a5
    80001d30:	70a2                	ld	ra,40(sp)
    80001d32:	7402                	ld	s0,32(sp)
    80001d34:	6145                	addi	sp,sp,48
    80001d36:	8082                	ret

0000000080001d38 <kvmpa>:
    80001d38:	7139                	addi	sp,sp,-64
    80001d3a:	fc06                	sd	ra,56(sp)
    80001d3c:	f822                	sd	s0,48(sp)
    80001d3e:	0080                	addi	s0,sp,64
    80001d40:	fca43423          	sd	a0,-56(s0)
    80001d44:	fc843703          	ld	a4,-56(s0)
    80001d48:	6785                	lui	a5,0x1
    80001d4a:	17fd                	addi	a5,a5,-1 # fff <_entry-0x7ffff001>
    80001d4c:	8ff9                	and	a5,a5,a4
    80001d4e:	fef43423          	sd	a5,-24(s0)
    80001d52:	0000b797          	auipc	a5,0xb
    80001d56:	2be78793          	addi	a5,a5,702 # 8000d010 <g_space>
    80001d5a:	639c                	ld	a5,0(a5)
    80001d5c:	4601                	li	a2,0
    80001d5e:	fc843583          	ld	a1,-56(s0)
    80001d62:	853e                	mv	a0,a5
    80001d64:	00000097          	auipc	ra,0x0
    80001d68:	e6a080e7          	jalr	-406(ra) # 80001bce <walk>
    80001d6c:	fea43023          	sd	a0,-32(s0)
    80001d70:	fe043783          	ld	a5,-32(s0)
    80001d74:	eb89                	bnez	a5,80001d86 <kvmpa+0x4e>
    80001d76:	0000a517          	auipc	a0,0xa
    80001d7a:	35a50513          	addi	a0,a0,858 # 8000c0d0 <etext+0xd0>
    80001d7e:	fffff097          	auipc	ra,0xfffff
    80001d82:	f20080e7          	jalr	-224(ra) # 80000c9e <panic>
    80001d86:	fe043783          	ld	a5,-32(s0)
    80001d8a:	639c                	ld	a5,0(a5)
    80001d8c:	8b85                	andi	a5,a5,1
    80001d8e:	eb89                	bnez	a5,80001da0 <kvmpa+0x68>
    80001d90:	0000a517          	auipc	a0,0xa
    80001d94:	34050513          	addi	a0,a0,832 # 8000c0d0 <etext+0xd0>
    80001d98:	fffff097          	auipc	ra,0xfffff
    80001d9c:	f06080e7          	jalr	-250(ra) # 80000c9e <panic>
    80001da0:	fe043783          	ld	a5,-32(s0)
    80001da4:	639c                	ld	a5,0(a5)
    80001da6:	83a9                	srli	a5,a5,0xa
    80001da8:	07b2                	slli	a5,a5,0xc
    80001daa:	fcf43c23          	sd	a5,-40(s0)
    80001dae:	fd843703          	ld	a4,-40(s0)
    80001db2:	fe843783          	ld	a5,-24(s0)
    80001db6:	97ba                	add	a5,a5,a4
    80001db8:	853e                	mv	a0,a5
    80001dba:	70e2                	ld	ra,56(sp)
    80001dbc:	7442                	ld	s0,48(sp)
    80001dbe:	6121                	addi	sp,sp,64
    80001dc0:	8082                	ret

0000000080001dc2 <space_map>:
    80001dc2:	711d                	addi	sp,sp,-96
    80001dc4:	ec86                	sd	ra,88(sp)
    80001dc6:	e8a2                	sd	s0,80(sp)
    80001dc8:	1080                	addi	s0,sp,96
    80001dca:	fca43423          	sd	a0,-56(s0)
    80001dce:	fcb43023          	sd	a1,-64(s0)
    80001dd2:	fac43c23          	sd	a2,-72(s0)
    80001dd6:	fad43823          	sd	a3,-80(s0)
    80001dda:	87ba                	mv	a5,a4
    80001ddc:	faf42623          	sw	a5,-84(s0)
    80001de0:	fc043703          	ld	a4,-64(s0)
    80001de4:	77fd                	lui	a5,0xfffff
    80001de6:	8ff9                	and	a5,a5,a4
    80001de8:	fef43423          	sd	a5,-24(s0)
    80001dec:	fc043703          	ld	a4,-64(s0)
    80001df0:	fb843783          	ld	a5,-72(s0)
    80001df4:	97ba                	add	a5,a5,a4
    80001df6:	fff78713          	addi	a4,a5,-1 # ffffffffffffefff <end+0xffffffff7ffd3fd7>
    80001dfa:	77fd                	lui	a5,0xfffff
    80001dfc:	8ff9                	and	a5,a5,a4
    80001dfe:	fef43023          	sd	a5,-32(s0)
    80001e02:	4605                	li	a2,1
    80001e04:	fe843583          	ld	a1,-24(s0)
    80001e08:	fc843503          	ld	a0,-56(s0)
    80001e0c:	00000097          	auipc	ra,0x0
    80001e10:	dc2080e7          	jalr	-574(ra) # 80001bce <walk>
    80001e14:	fca43c23          	sd	a0,-40(s0)
    80001e18:	fd843783          	ld	a5,-40(s0)
    80001e1c:	eb8d                	bnez	a5,80001e4e <space_map+0x8c>
    80001e1e:	fc043703          	ld	a4,-64(s0)
    80001e22:	77fd                	lui	a5,0xfffff
    80001e24:	00f775b3          	and	a1,a4,a5
    80001e28:	fc043703          	ld	a4,-64(s0)
    80001e2c:	77fd                	lui	a5,0xfffff
    80001e2e:	8ff9                	and	a5,a5,a4
    80001e30:	fe843703          	ld	a4,-24(s0)
    80001e34:	40f707b3          	sub	a5,a4,a5
    80001e38:	83b1                	srli	a5,a5,0xc
    80001e3a:	4681                	li	a3,0
    80001e3c:	863e                	mv	a2,a5
    80001e3e:	fc843503          	ld	a0,-56(s0)
    80001e42:	00000097          	auipc	ra,0x0
    80001e46:	074080e7          	jalr	116(ra) # 80001eb6 <space_unmap>
    80001e4a:	57fd                	li	a5,-1
    80001e4c:	a085                	j	80001eac <space_map+0xea>
    80001e4e:	fd843783          	ld	a5,-40(s0)
    80001e52:	639c                	ld	a5,0(a5)
    80001e54:	8b85                	andi	a5,a5,1
    80001e56:	cb89                	beqz	a5,80001e68 <space_map+0xa6>
    80001e58:	0000a517          	auipc	a0,0xa
    80001e5c:	28050513          	addi	a0,a0,640 # 8000c0d8 <etext+0xd8>
    80001e60:	fffff097          	auipc	ra,0xfffff
    80001e64:	e3e080e7          	jalr	-450(ra) # 80000c9e <panic>
    80001e68:	fb043783          	ld	a5,-80(s0)
    80001e6c:	83b1                	srli	a5,a5,0xc
    80001e6e:	00a79713          	slli	a4,a5,0xa
    80001e72:	fac42783          	lw	a5,-84(s0)
    80001e76:	8fd9                	or	a5,a5,a4
    80001e78:	0017e713          	ori	a4,a5,1
    80001e7c:	fd843783          	ld	a5,-40(s0)
    80001e80:	e398                	sd	a4,0(a5)
    80001e82:	fe843703          	ld	a4,-24(s0)
    80001e86:	fe043783          	ld	a5,-32(s0)
    80001e8a:	00f70f63          	beq	a4,a5,80001ea8 <space_map+0xe6>
    80001e8e:	fe843703          	ld	a4,-24(s0)
    80001e92:	6785                	lui	a5,0x1
    80001e94:	97ba                	add	a5,a5,a4
    80001e96:	fef43423          	sd	a5,-24(s0)
    80001e9a:	fb043703          	ld	a4,-80(s0)
    80001e9e:	6785                	lui	a5,0x1
    80001ea0:	97ba                	add	a5,a5,a4
    80001ea2:	faf43823          	sd	a5,-80(s0)
    80001ea6:	bfb1                	j	80001e02 <space_map+0x40>
    80001ea8:	0001                	nop
    80001eaa:	4781                	li	a5,0
    80001eac:	853e                	mv	a0,a5
    80001eae:	60e6                	ld	ra,88(sp)
    80001eb0:	6446                	ld	s0,80(sp)
    80001eb2:	6125                	addi	sp,sp,96
    80001eb4:	8082                	ret

0000000080001eb6 <space_unmap>:
    80001eb6:	715d                	addi	sp,sp,-80
    80001eb8:	e486                	sd	ra,72(sp)
    80001eba:	e0a2                	sd	s0,64(sp)
    80001ebc:	0880                	addi	s0,sp,80
    80001ebe:	fca43423          	sd	a0,-56(s0)
    80001ec2:	fcb43023          	sd	a1,-64(s0)
    80001ec6:	fac43c23          	sd	a2,-72(s0)
    80001eca:	87b6                	mv	a5,a3
    80001ecc:	faf42a23          	sw	a5,-76(s0)
    80001ed0:	fc043703          	ld	a4,-64(s0)
    80001ed4:	6785                	lui	a5,0x1
    80001ed6:	17fd                	addi	a5,a5,-1 # fff <_entry-0x7ffff001>
    80001ed8:	8ff9                	and	a5,a5,a4
    80001eda:	cb89                	beqz	a5,80001eec <space_unmap+0x36>
    80001edc:	0000a517          	auipc	a0,0xa
    80001ee0:	20450513          	addi	a0,a0,516 # 8000c0e0 <etext+0xe0>
    80001ee4:	fffff097          	auipc	ra,0xfffff
    80001ee8:	dba080e7          	jalr	-582(ra) # 80000c9e <panic>
    80001eec:	fc043783          	ld	a5,-64(s0)
    80001ef0:	fef43423          	sd	a5,-24(s0)
    80001ef4:	a045                	j	80001f94 <space_unmap+0xde>
    80001ef6:	4601                	li	a2,0
    80001ef8:	fe843583          	ld	a1,-24(s0)
    80001efc:	fc843503          	ld	a0,-56(s0)
    80001f00:	00000097          	auipc	ra,0x0
    80001f04:	cce080e7          	jalr	-818(ra) # 80001bce <walk>
    80001f08:	fea43023          	sd	a0,-32(s0)
    80001f0c:	fe043783          	ld	a5,-32(s0)
    80001f10:	eb89                	bnez	a5,80001f22 <space_unmap+0x6c>
    80001f12:	0000a517          	auipc	a0,0xa
    80001f16:	1ee50513          	addi	a0,a0,494 # 8000c100 <etext+0x100>
    80001f1a:	fffff097          	auipc	ra,0xfffff
    80001f1e:	d84080e7          	jalr	-636(ra) # 80000c9e <panic>
    80001f22:	fe043783          	ld	a5,-32(s0)
    80001f26:	639c                	ld	a5,0(a5)
    80001f28:	8b85                	andi	a5,a5,1
    80001f2a:	eb89                	bnez	a5,80001f3c <space_unmap+0x86>
    80001f2c:	0000a517          	auipc	a0,0xa
    80001f30:	1ec50513          	addi	a0,a0,492 # 8000c118 <etext+0x118>
    80001f34:	fffff097          	auipc	ra,0xfffff
    80001f38:	d6a080e7          	jalr	-662(ra) # 80000c9e <panic>
    80001f3c:	fe043783          	ld	a5,-32(s0)
    80001f40:	639c                	ld	a5,0(a5)
    80001f42:	3ff7f713          	andi	a4,a5,1023
    80001f46:	4785                	li	a5,1
    80001f48:	00f71a63          	bne	a4,a5,80001f5c <space_unmap+0xa6>
    80001f4c:	0000a517          	auipc	a0,0xa
    80001f50:	1e450513          	addi	a0,a0,484 # 8000c130 <etext+0x130>
    80001f54:	fffff097          	auipc	ra,0xfffff
    80001f58:	d4a080e7          	jalr	-694(ra) # 80000c9e <panic>
    80001f5c:	fb442783          	lw	a5,-76(s0)
    80001f60:	2781                	sext.w	a5,a5
    80001f62:	cf99                	beqz	a5,80001f80 <space_unmap+0xca>
    80001f64:	fe043783          	ld	a5,-32(s0)
    80001f68:	639c                	ld	a5,0(a5)
    80001f6a:	83a9                	srli	a5,a5,0xa
    80001f6c:	07b2                	slli	a5,a5,0xc
    80001f6e:	fcf43c23          	sd	a5,-40(s0)
    80001f72:	fd843783          	ld	a5,-40(s0)
    80001f76:	853e                	mv	a0,a5
    80001f78:	fffff097          	auipc	ra,0xfffff
    80001f7c:	162080e7          	jalr	354(ra) # 800010da <kfree>
    80001f80:	fe043783          	ld	a5,-32(s0)
    80001f84:	0007b023          	sd	zero,0(a5)
    80001f88:	fe843703          	ld	a4,-24(s0)
    80001f8c:	6785                	lui	a5,0x1
    80001f8e:	97ba                	add	a5,a5,a4
    80001f90:	fef43423          	sd	a5,-24(s0)
    80001f94:	fb843783          	ld	a5,-72(s0)
    80001f98:	00c79713          	slli	a4,a5,0xc
    80001f9c:	fc043783          	ld	a5,-64(s0)
    80001fa0:	97ba                	add	a5,a5,a4
    80001fa2:	fe843703          	ld	a4,-24(s0)
    80001fa6:	f4f768e3          	bltu	a4,a5,80001ef6 <space_unmap+0x40>
    80001faa:	0001                	nop
    80001fac:	0001                	nop
    80001fae:	60a6                	ld	ra,72(sp)
    80001fb0:	6406                	ld	s0,64(sp)
    80001fb2:	6161                	addi	sp,sp,80
    80001fb4:	8082                	ret

0000000080001fb6 <uvmcreate>:
    80001fb6:	1101                	addi	sp,sp,-32
    80001fb8:	ec06                	sd	ra,24(sp)
    80001fba:	e822                	sd	s0,16(sp)
    80001fbc:	1000                	addi	s0,sp,32
    80001fbe:	fffff097          	auipc	ra,0xfffff
    80001fc2:	1c0080e7          	jalr	448(ra) # 8000117e <kalloc>
    80001fc6:	fea43423          	sd	a0,-24(s0)
    80001fca:	fe843783          	ld	a5,-24(s0)
    80001fce:	e399                	bnez	a5,80001fd4 <uvmcreate+0x1e>
    80001fd0:	4781                	li	a5,0
    80001fd2:	a819                	j	80001fe8 <uvmcreate+0x32>
    80001fd4:	6605                	lui	a2,0x1
    80001fd6:	4581                	li	a1,0
    80001fd8:	fe843503          	ld	a0,-24(s0)
    80001fdc:	fffff097          	auipc	ra,0xfffff
    80001fe0:	4ca080e7          	jalr	1226(ra) # 800014a6 <memset>
    80001fe4:	fe843783          	ld	a5,-24(s0)
    80001fe8:	853e                	mv	a0,a5
    80001fea:	60e2                	ld	ra,24(sp)
    80001fec:	6442                	ld	s0,16(sp)
    80001fee:	6105                	addi	sp,sp,32
    80001ff0:	8082                	ret

0000000080001ff2 <uvminit>:
    80001ff2:	7139                	addi	sp,sp,-64
    80001ff4:	fc06                	sd	ra,56(sp)
    80001ff6:	f822                	sd	s0,48(sp)
    80001ff8:	0080                	addi	s0,sp,64
    80001ffa:	fca43c23          	sd	a0,-40(s0)
    80001ffe:	fcb43823          	sd	a1,-48(s0)
    80002002:	87b2                	mv	a5,a2
    80002004:	fcf42623          	sw	a5,-52(s0)
    80002008:	fcc42783          	lw	a5,-52(s0)
    8000200c:	0007871b          	sext.w	a4,a5
    80002010:	6785                	lui	a5,0x1
    80002012:	00f76a63          	bltu	a4,a5,80002026 <uvminit+0x34>
    80002016:	0000a517          	auipc	a0,0xa
    8000201a:	13250513          	addi	a0,a0,306 # 8000c148 <etext+0x148>
    8000201e:	fffff097          	auipc	ra,0xfffff
    80002022:	c80080e7          	jalr	-896(ra) # 80000c9e <panic>
    80002026:	fffff097          	auipc	ra,0xfffff
    8000202a:	158080e7          	jalr	344(ra) # 8000117e <kalloc>
    8000202e:	fea43423          	sd	a0,-24(s0)
    80002032:	6605                	lui	a2,0x1
    80002034:	4581                	li	a1,0
    80002036:	fe843503          	ld	a0,-24(s0)
    8000203a:	fffff097          	auipc	ra,0xfffff
    8000203e:	46c080e7          	jalr	1132(ra) # 800014a6 <memset>
    80002042:	fe843783          	ld	a5,-24(s0)
    80002046:	4779                	li	a4,30
    80002048:	86be                	mv	a3,a5
    8000204a:	6605                	lui	a2,0x1
    8000204c:	4581                	li	a1,0
    8000204e:	fd843503          	ld	a0,-40(s0)
    80002052:	00000097          	auipc	ra,0x0
    80002056:	d70080e7          	jalr	-656(ra) # 80001dc2 <space_map>
    8000205a:	fcc42783          	lw	a5,-52(s0)
    8000205e:	863e                	mv	a2,a5
    80002060:	fd043583          	ld	a1,-48(s0)
    80002064:	fe843503          	ld	a0,-24(s0)
    80002068:	fffff097          	auipc	ra,0xfffff
    8000206c:	522080e7          	jalr	1314(ra) # 8000158a <memmove>
    80002070:	0001                	nop
    80002072:	70e2                	ld	ra,56(sp)
    80002074:	7442                	ld	s0,48(sp)
    80002076:	6121                	addi	sp,sp,64
    80002078:	8082                	ret

000000008000207a <uvmalloc>:
    8000207a:	7139                	addi	sp,sp,-64
    8000207c:	fc06                	sd	ra,56(sp)
    8000207e:	f822                	sd	s0,48(sp)
    80002080:	0080                	addi	s0,sp,64
    80002082:	fca43c23          	sd	a0,-40(s0)
    80002086:	fcb43823          	sd	a1,-48(s0)
    8000208a:	fcc43423          	sd	a2,-56(s0)
    8000208e:	fc843703          	ld	a4,-56(s0)
    80002092:	fd043783          	ld	a5,-48(s0)
    80002096:	00f77563          	bgeu	a4,a5,800020a0 <uvmalloc+0x26>
    8000209a:	fd043783          	ld	a5,-48(s0)
    8000209e:	a0d9                	j	80002164 <uvmalloc+0xea>
    800020a0:	fc843703          	ld	a4,-56(s0)
    800020a4:	0c0007b7          	lui	a5,0xc000
    800020a8:	00f76463          	bltu	a4,a5,800020b0 <uvmalloc+0x36>
    800020ac:	4781                	li	a5,0
    800020ae:	a85d                	j	80002164 <uvmalloc+0xea>
    800020b0:	fd043703          	ld	a4,-48(s0)
    800020b4:	6785                	lui	a5,0x1
    800020b6:	17fd                	addi	a5,a5,-1 # fff <_entry-0x7ffff001>
    800020b8:	973e                	add	a4,a4,a5
    800020ba:	77fd                	lui	a5,0xfffff
    800020bc:	8ff9                	and	a5,a5,a4
    800020be:	fcf43823          	sd	a5,-48(s0)
    800020c2:	fd043783          	ld	a5,-48(s0)
    800020c6:	fef43423          	sd	a5,-24(s0)
    800020ca:	a069                	j	80002154 <uvmalloc+0xda>
    800020cc:	fffff097          	auipc	ra,0xfffff
    800020d0:	0b2080e7          	jalr	178(ra) # 8000117e <kalloc>
    800020d4:	fea43023          	sd	a0,-32(s0)
    800020d8:	fe043783          	ld	a5,-32(s0)
    800020dc:	ef89                	bnez	a5,800020f6 <uvmalloc+0x7c>
    800020de:	fd043603          	ld	a2,-48(s0)
    800020e2:	fe843583          	ld	a1,-24(s0)
    800020e6:	fd843503          	ld	a0,-40(s0)
    800020ea:	00000097          	auipc	ra,0x0
    800020ee:	084080e7          	jalr	132(ra) # 8000216e <uvmdealloc>
    800020f2:	4781                	li	a5,0
    800020f4:	a885                	j	80002164 <uvmalloc+0xea>
    800020f6:	6605                	lui	a2,0x1
    800020f8:	4581                	li	a1,0
    800020fa:	fe043503          	ld	a0,-32(s0)
    800020fe:	fffff097          	auipc	ra,0xfffff
    80002102:	3a8080e7          	jalr	936(ra) # 800014a6 <memset>
    80002106:	fe043783          	ld	a5,-32(s0)
    8000210a:	4779                	li	a4,30
    8000210c:	86be                	mv	a3,a5
    8000210e:	6605                	lui	a2,0x1
    80002110:	fe843583          	ld	a1,-24(s0)
    80002114:	fd843503          	ld	a0,-40(s0)
    80002118:	00000097          	auipc	ra,0x0
    8000211c:	caa080e7          	jalr	-854(ra) # 80001dc2 <space_map>
    80002120:	87aa                	mv	a5,a0
    80002122:	c39d                	beqz	a5,80002148 <uvmalloc+0xce>
    80002124:	fe043503          	ld	a0,-32(s0)
    80002128:	fffff097          	auipc	ra,0xfffff
    8000212c:	fb2080e7          	jalr	-78(ra) # 800010da <kfree>
    80002130:	fd043603          	ld	a2,-48(s0)
    80002134:	fe843583          	ld	a1,-24(s0)
    80002138:	fd843503          	ld	a0,-40(s0)
    8000213c:	00000097          	auipc	ra,0x0
    80002140:	032080e7          	jalr	50(ra) # 8000216e <uvmdealloc>
    80002144:	4781                	li	a5,0
    80002146:	a839                	j	80002164 <uvmalloc+0xea>
    80002148:	fe843703          	ld	a4,-24(s0)
    8000214c:	6785                	lui	a5,0x1
    8000214e:	97ba                	add	a5,a5,a4
    80002150:	fef43423          	sd	a5,-24(s0)
    80002154:	fe843703          	ld	a4,-24(s0)
    80002158:	fc843783          	ld	a5,-56(s0)
    8000215c:	f6f768e3          	bltu	a4,a5,800020cc <uvmalloc+0x52>
    80002160:	fc843783          	ld	a5,-56(s0)
    80002164:	853e                	mv	a0,a5
    80002166:	70e2                	ld	ra,56(sp)
    80002168:	7442                	ld	s0,48(sp)
    8000216a:	6121                	addi	sp,sp,64
    8000216c:	8082                	ret

000000008000216e <uvmdealloc>:
    8000216e:	7139                	addi	sp,sp,-64
    80002170:	fc06                	sd	ra,56(sp)
    80002172:	f822                	sd	s0,48(sp)
    80002174:	0080                	addi	s0,sp,64
    80002176:	fca43c23          	sd	a0,-40(s0)
    8000217a:	fcb43823          	sd	a1,-48(s0)
    8000217e:	fcc43423          	sd	a2,-56(s0)
    80002182:	fc843703          	ld	a4,-56(s0)
    80002186:	fd043783          	ld	a5,-48(s0)
    8000218a:	00f76563          	bltu	a4,a5,80002194 <uvmdealloc+0x26>
    8000218e:	fd043783          	ld	a5,-48(s0)
    80002192:	a885                	j	80002202 <uvmdealloc+0x94>
    80002194:	fc843703          	ld	a4,-56(s0)
    80002198:	6785                	lui	a5,0x1
    8000219a:	17fd                	addi	a5,a5,-1 # fff <_entry-0x7ffff001>
    8000219c:	973e                	add	a4,a4,a5
    8000219e:	77fd                	lui	a5,0xfffff
    800021a0:	8f7d                	and	a4,a4,a5
    800021a2:	fd043683          	ld	a3,-48(s0)
    800021a6:	6785                	lui	a5,0x1
    800021a8:	17fd                	addi	a5,a5,-1 # fff <_entry-0x7ffff001>
    800021aa:	96be                	add	a3,a3,a5
    800021ac:	77fd                	lui	a5,0xfffff
    800021ae:	8ff5                	and	a5,a5,a3
    800021b0:	04f77763          	bgeu	a4,a5,800021fe <uvmdealloc+0x90>
    800021b4:	fd043703          	ld	a4,-48(s0)
    800021b8:	6785                	lui	a5,0x1
    800021ba:	17fd                	addi	a5,a5,-1 # fff <_entry-0x7ffff001>
    800021bc:	973e                	add	a4,a4,a5
    800021be:	77fd                	lui	a5,0xfffff
    800021c0:	8f7d                	and	a4,a4,a5
    800021c2:	fc843683          	ld	a3,-56(s0)
    800021c6:	6785                	lui	a5,0x1
    800021c8:	17fd                	addi	a5,a5,-1 # fff <_entry-0x7ffff001>
    800021ca:	96be                	add	a3,a3,a5
    800021cc:	77fd                	lui	a5,0xfffff
    800021ce:	8ff5                	and	a5,a5,a3
    800021d0:	40f707b3          	sub	a5,a4,a5
    800021d4:	83b1                	srli	a5,a5,0xc
    800021d6:	fef42623          	sw	a5,-20(s0)
    800021da:	fc843703          	ld	a4,-56(s0)
    800021de:	6785                	lui	a5,0x1
    800021e0:	17fd                	addi	a5,a5,-1 # fff <_entry-0x7ffff001>
    800021e2:	973e                	add	a4,a4,a5
    800021e4:	77fd                	lui	a5,0xfffff
    800021e6:	8ff9                	and	a5,a5,a4
    800021e8:	fec42703          	lw	a4,-20(s0)
    800021ec:	4685                	li	a3,1
    800021ee:	863a                	mv	a2,a4
    800021f0:	85be                	mv	a1,a5
    800021f2:	fd843503          	ld	a0,-40(s0)
    800021f6:	00000097          	auipc	ra,0x0
    800021fa:	cc0080e7          	jalr	-832(ra) # 80001eb6 <space_unmap>
    800021fe:	fc843783          	ld	a5,-56(s0)
    80002202:	853e                	mv	a0,a5
    80002204:	70e2                	ld	ra,56(sp)
    80002206:	7442                	ld	s0,48(sp)
    80002208:	6121                	addi	sp,sp,64
    8000220a:	8082                	ret

000000008000220c <freewalk>:
    8000220c:	7139                	addi	sp,sp,-64
    8000220e:	fc06                	sd	ra,56(sp)
    80002210:	f822                	sd	s0,48(sp)
    80002212:	0080                	addi	s0,sp,64
    80002214:	fca43423          	sd	a0,-56(s0)
    80002218:	fe042623          	sw	zero,-20(s0)
    8000221c:	a88d                	j	8000228e <freewalk+0x82>
    8000221e:	fec42783          	lw	a5,-20(s0)
    80002222:	078e                	slli	a5,a5,0x3
    80002224:	fc843703          	ld	a4,-56(s0)
    80002228:	97ba                	add	a5,a5,a4
    8000222a:	639c                	ld	a5,0(a5)
    8000222c:	fef43023          	sd	a5,-32(s0)
    80002230:	fe043783          	ld	a5,-32(s0)
    80002234:	8b85                	andi	a5,a5,1
    80002236:	cb9d                	beqz	a5,8000226c <freewalk+0x60>
    80002238:	fe043783          	ld	a5,-32(s0)
    8000223c:	8bb9                	andi	a5,a5,14
    8000223e:	e79d                	bnez	a5,8000226c <freewalk+0x60>
    80002240:	fe043783          	ld	a5,-32(s0)
    80002244:	83a9                	srli	a5,a5,0xa
    80002246:	07b2                	slli	a5,a5,0xc
    80002248:	fcf43c23          	sd	a5,-40(s0)
    8000224c:	fd843783          	ld	a5,-40(s0)
    80002250:	853e                	mv	a0,a5
    80002252:	00000097          	auipc	ra,0x0
    80002256:	fba080e7          	jalr	-70(ra) # 8000220c <freewalk>
    8000225a:	fec42783          	lw	a5,-20(s0)
    8000225e:	078e                	slli	a5,a5,0x3
    80002260:	fc843703          	ld	a4,-56(s0)
    80002264:	97ba                	add	a5,a5,a4
    80002266:	0007b023          	sd	zero,0(a5) # fffffffffffff000 <end+0xffffffff7ffd3fd8>
    8000226a:	a829                	j	80002284 <freewalk+0x78>
    8000226c:	fe043783          	ld	a5,-32(s0)
    80002270:	8b85                	andi	a5,a5,1
    80002272:	cb89                	beqz	a5,80002284 <freewalk+0x78>
    80002274:	0000a517          	auipc	a0,0xa
    80002278:	ef450513          	addi	a0,a0,-268 # 8000c168 <etext+0x168>
    8000227c:	fffff097          	auipc	ra,0xfffff
    80002280:	a22080e7          	jalr	-1502(ra) # 80000c9e <panic>
    80002284:	fec42783          	lw	a5,-20(s0)
    80002288:	2785                	addiw	a5,a5,1
    8000228a:	fef42623          	sw	a5,-20(s0)
    8000228e:	fec42783          	lw	a5,-20(s0)
    80002292:	0007871b          	sext.w	a4,a5
    80002296:	1ff00793          	li	a5,511
    8000229a:	f8e7d2e3          	bge	a5,a4,8000221e <freewalk+0x12>
    8000229e:	fc843503          	ld	a0,-56(s0)
    800022a2:	fffff097          	auipc	ra,0xfffff
    800022a6:	e38080e7          	jalr	-456(ra) # 800010da <kfree>
    800022aa:	0001                	nop
    800022ac:	70e2                	ld	ra,56(sp)
    800022ae:	7442                	ld	s0,48(sp)
    800022b0:	6121                	addi	sp,sp,64
    800022b2:	8082                	ret

00000000800022b4 <uvmfree>:
    800022b4:	1101                	addi	sp,sp,-32
    800022b6:	ec06                	sd	ra,24(sp)
    800022b8:	e822                	sd	s0,16(sp)
    800022ba:	1000                	addi	s0,sp,32
    800022bc:	fea43423          	sd	a0,-24(s0)
    800022c0:	feb43023          	sd	a1,-32(s0)
    800022c4:	fe043783          	ld	a5,-32(s0)
    800022c8:	c385                	beqz	a5,800022e8 <uvmfree+0x34>
    800022ca:	fe043703          	ld	a4,-32(s0)
    800022ce:	6785                	lui	a5,0x1
    800022d0:	17fd                	addi	a5,a5,-1 # fff <_entry-0x7ffff001>
    800022d2:	97ba                	add	a5,a5,a4
    800022d4:	83b1                	srli	a5,a5,0xc
    800022d6:	4685                	li	a3,1
    800022d8:	863e                	mv	a2,a5
    800022da:	4581                	li	a1,0
    800022dc:	fe843503          	ld	a0,-24(s0)
    800022e0:	00000097          	auipc	ra,0x0
    800022e4:	bd6080e7          	jalr	-1066(ra) # 80001eb6 <space_unmap>
    800022e8:	fe843503          	ld	a0,-24(s0)
    800022ec:	00000097          	auipc	ra,0x0
    800022f0:	f20080e7          	jalr	-224(ra) # 8000220c <freewalk>
    800022f4:	0001                	nop
    800022f6:	60e2                	ld	ra,24(sp)
    800022f8:	6442                	ld	s0,16(sp)
    800022fa:	6105                	addi	sp,sp,32
    800022fc:	8082                	ret

00000000800022fe <uvmcopy>:
    800022fe:	711d                	addi	sp,sp,-96
    80002300:	ec86                	sd	ra,88(sp)
    80002302:	e8a2                	sd	s0,80(sp)
    80002304:	1080                	addi	s0,sp,96
    80002306:	faa43c23          	sd	a0,-72(s0)
    8000230a:	fab43823          	sd	a1,-80(s0)
    8000230e:	fac43423          	sd	a2,-88(s0)
    80002312:	fe043423          	sd	zero,-24(s0)
    80002316:	a0d9                	j	800023dc <uvmcopy+0xde>
    80002318:	4601                	li	a2,0
    8000231a:	fe843583          	ld	a1,-24(s0)
    8000231e:	fb843503          	ld	a0,-72(s0)
    80002322:	00000097          	auipc	ra,0x0
    80002326:	8ac080e7          	jalr	-1876(ra) # 80001bce <walk>
    8000232a:	fea43023          	sd	a0,-32(s0)
    8000232e:	fe043783          	ld	a5,-32(s0)
    80002332:	eb89                	bnez	a5,80002344 <uvmcopy+0x46>
    80002334:	0000a517          	auipc	a0,0xa
    80002338:	e4450513          	addi	a0,a0,-444 # 8000c178 <etext+0x178>
    8000233c:	fffff097          	auipc	ra,0xfffff
    80002340:	962080e7          	jalr	-1694(ra) # 80000c9e <panic>
    80002344:	fe043783          	ld	a5,-32(s0)
    80002348:	639c                	ld	a5,0(a5)
    8000234a:	8b85                	andi	a5,a5,1
    8000234c:	eb89                	bnez	a5,8000235e <uvmcopy+0x60>
    8000234e:	0000a517          	auipc	a0,0xa
    80002352:	e4a50513          	addi	a0,a0,-438 # 8000c198 <etext+0x198>
    80002356:	fffff097          	auipc	ra,0xfffff
    8000235a:	948080e7          	jalr	-1720(ra) # 80000c9e <panic>
    8000235e:	fe043783          	ld	a5,-32(s0)
    80002362:	639c                	ld	a5,0(a5)
    80002364:	83a9                	srli	a5,a5,0xa
    80002366:	07b2                	slli	a5,a5,0xc
    80002368:	fcf43c23          	sd	a5,-40(s0)
    8000236c:	fe043783          	ld	a5,-32(s0)
    80002370:	639c                	ld	a5,0(a5)
    80002372:	2781                	sext.w	a5,a5
    80002374:	3ff7f793          	andi	a5,a5,1023
    80002378:	fcf42a23          	sw	a5,-44(s0)
    8000237c:	fffff097          	auipc	ra,0xfffff
    80002380:	e02080e7          	jalr	-510(ra) # 8000117e <kalloc>
    80002384:	fca43423          	sd	a0,-56(s0)
    80002388:	fc843783          	ld	a5,-56(s0)
    8000238c:	c3a5                	beqz	a5,800023ec <uvmcopy+0xee>
    8000238e:	fd843783          	ld	a5,-40(s0)
    80002392:	6605                	lui	a2,0x1
    80002394:	85be                	mv	a1,a5
    80002396:	fc843503          	ld	a0,-56(s0)
    8000239a:	fffff097          	auipc	ra,0xfffff
    8000239e:	1f0080e7          	jalr	496(ra) # 8000158a <memmove>
    800023a2:	fc843783          	ld	a5,-56(s0)
    800023a6:	fd442703          	lw	a4,-44(s0)
    800023aa:	86be                	mv	a3,a5
    800023ac:	6605                	lui	a2,0x1
    800023ae:	fe843583          	ld	a1,-24(s0)
    800023b2:	fb043503          	ld	a0,-80(s0)
    800023b6:	00000097          	auipc	ra,0x0
    800023ba:	a0c080e7          	jalr	-1524(ra) # 80001dc2 <space_map>
    800023be:	87aa                	mv	a5,a0
    800023c0:	cb81                	beqz	a5,800023d0 <uvmcopy+0xd2>
    800023c2:	fc843503          	ld	a0,-56(s0)
    800023c6:	fffff097          	auipc	ra,0xfffff
    800023ca:	d14080e7          	jalr	-748(ra) # 800010da <kfree>
    800023ce:	a005                	j	800023ee <uvmcopy+0xf0>
    800023d0:	fe843703          	ld	a4,-24(s0)
    800023d4:	6785                	lui	a5,0x1
    800023d6:	97ba                	add	a5,a5,a4
    800023d8:	fef43423          	sd	a5,-24(s0)
    800023dc:	fe843703          	ld	a4,-24(s0)
    800023e0:	fa843783          	ld	a5,-88(s0)
    800023e4:	f2f76ae3          	bltu	a4,a5,80002318 <uvmcopy+0x1a>
    800023e8:	4781                	li	a5,0
    800023ea:	a839                	j	80002408 <uvmcopy+0x10a>
    800023ec:	0001                	nop
    800023ee:	fe843783          	ld	a5,-24(s0)
    800023f2:	83b1                	srli	a5,a5,0xc
    800023f4:	4685                	li	a3,1
    800023f6:	863e                	mv	a2,a5
    800023f8:	4581                	li	a1,0
    800023fa:	fb043503          	ld	a0,-80(s0)
    800023fe:	00000097          	auipc	ra,0x0
    80002402:	ab8080e7          	jalr	-1352(ra) # 80001eb6 <space_unmap>
    80002406:	57fd                	li	a5,-1
    80002408:	853e                	mv	a0,a5
    8000240a:	60e6                	ld	ra,88(sp)
    8000240c:	6446                	ld	s0,80(sp)
    8000240e:	6125                	addi	sp,sp,96
    80002410:	8082                	ret

0000000080002412 <uvmclear>:
    80002412:	7179                	addi	sp,sp,-48
    80002414:	f406                	sd	ra,40(sp)
    80002416:	f022                	sd	s0,32(sp)
    80002418:	1800                	addi	s0,sp,48
    8000241a:	fca43c23          	sd	a0,-40(s0)
    8000241e:	fcb43823          	sd	a1,-48(s0)
    80002422:	4601                	li	a2,0
    80002424:	fd043583          	ld	a1,-48(s0)
    80002428:	fd843503          	ld	a0,-40(s0)
    8000242c:	fffff097          	auipc	ra,0xfffff
    80002430:	7a2080e7          	jalr	1954(ra) # 80001bce <walk>
    80002434:	fea43423          	sd	a0,-24(s0)
    80002438:	fe843783          	ld	a5,-24(s0)
    8000243c:	eb89                	bnez	a5,8000244e <uvmclear+0x3c>
    8000243e:	0000a517          	auipc	a0,0xa
    80002442:	d7a50513          	addi	a0,a0,-646 # 8000c1b8 <etext+0x1b8>
    80002446:	fffff097          	auipc	ra,0xfffff
    8000244a:	858080e7          	jalr	-1960(ra) # 80000c9e <panic>
    8000244e:	fe843783          	ld	a5,-24(s0)
    80002452:	639c                	ld	a5,0(a5)
    80002454:	fef7f713          	andi	a4,a5,-17
    80002458:	fe843783          	ld	a5,-24(s0)
    8000245c:	e398                	sd	a4,0(a5)
    8000245e:	0001                	nop
    80002460:	70a2                	ld	ra,40(sp)
    80002462:	7402                	ld	s0,32(sp)
    80002464:	6145                	addi	sp,sp,48
    80002466:	8082                	ret

0000000080002468 <copyout>:
    80002468:	715d                	addi	sp,sp,-80
    8000246a:	e486                	sd	ra,72(sp)
    8000246c:	e0a2                	sd	s0,64(sp)
    8000246e:	0880                	addi	s0,sp,80
    80002470:	fca43423          	sd	a0,-56(s0)
    80002474:	fcb43023          	sd	a1,-64(s0)
    80002478:	fac43c23          	sd	a2,-72(s0)
    8000247c:	fad43823          	sd	a3,-80(s0)
    80002480:	a055                	j	80002524 <copyout+0xbc>
    80002482:	fc043703          	ld	a4,-64(s0)
    80002486:	77fd                	lui	a5,0xfffff
    80002488:	8ff9                	and	a5,a5,a4
    8000248a:	fef43023          	sd	a5,-32(s0)
    8000248e:	fe043583          	ld	a1,-32(s0)
    80002492:	fc843503          	ld	a0,-56(s0)
    80002496:	00000097          	auipc	ra,0x0
    8000249a:	82a080e7          	jalr	-2006(ra) # 80001cc0 <walkaddr>
    8000249e:	fca43c23          	sd	a0,-40(s0)
    800024a2:	fd843783          	ld	a5,-40(s0)
    800024a6:	e399                	bnez	a5,800024ac <copyout+0x44>
    800024a8:	57fd                	li	a5,-1
    800024aa:	a049                	j	8000252c <copyout+0xc4>
    800024ac:	fe043703          	ld	a4,-32(s0)
    800024b0:	fc043783          	ld	a5,-64(s0)
    800024b4:	8f1d                	sub	a4,a4,a5
    800024b6:	6785                	lui	a5,0x1
    800024b8:	97ba                	add	a5,a5,a4
    800024ba:	fef43423          	sd	a5,-24(s0)
    800024be:	fe843703          	ld	a4,-24(s0)
    800024c2:	fb043783          	ld	a5,-80(s0)
    800024c6:	00e7f663          	bgeu	a5,a4,800024d2 <copyout+0x6a>
    800024ca:	fb043783          	ld	a5,-80(s0)
    800024ce:	fef43423          	sd	a5,-24(s0)
    800024d2:	fc043703          	ld	a4,-64(s0)
    800024d6:	fe043783          	ld	a5,-32(s0)
    800024da:	8f1d                	sub	a4,a4,a5
    800024dc:	fd843783          	ld	a5,-40(s0)
    800024e0:	97ba                	add	a5,a5,a4
    800024e2:	873e                	mv	a4,a5
    800024e4:	fe843783          	ld	a5,-24(s0)
    800024e8:	2781                	sext.w	a5,a5
    800024ea:	863e                	mv	a2,a5
    800024ec:	fb843583          	ld	a1,-72(s0)
    800024f0:	853a                	mv	a0,a4
    800024f2:	fffff097          	auipc	ra,0xfffff
    800024f6:	098080e7          	jalr	152(ra) # 8000158a <memmove>
    800024fa:	fb043703          	ld	a4,-80(s0)
    800024fe:	fe843783          	ld	a5,-24(s0)
    80002502:	40f707b3          	sub	a5,a4,a5
    80002506:	faf43823          	sd	a5,-80(s0)
    8000250a:	fb843703          	ld	a4,-72(s0)
    8000250e:	fe843783          	ld	a5,-24(s0)
    80002512:	97ba                	add	a5,a5,a4
    80002514:	faf43c23          	sd	a5,-72(s0)
    80002518:	fe043703          	ld	a4,-32(s0)
    8000251c:	6785                	lui	a5,0x1
    8000251e:	97ba                	add	a5,a5,a4
    80002520:	fcf43023          	sd	a5,-64(s0)
    80002524:	fb043783          	ld	a5,-80(s0)
    80002528:	ffa9                	bnez	a5,80002482 <copyout+0x1a>
    8000252a:	4781                	li	a5,0
    8000252c:	853e                	mv	a0,a5
    8000252e:	60a6                	ld	ra,72(sp)
    80002530:	6406                	ld	s0,64(sp)
    80002532:	6161                	addi	sp,sp,80
    80002534:	8082                	ret

0000000080002536 <copyin>:
    80002536:	715d                	addi	sp,sp,-80
    80002538:	e486                	sd	ra,72(sp)
    8000253a:	e0a2                	sd	s0,64(sp)
    8000253c:	0880                	addi	s0,sp,80
    8000253e:	fca43423          	sd	a0,-56(s0)
    80002542:	fcb43023          	sd	a1,-64(s0)
    80002546:	fac43c23          	sd	a2,-72(s0)
    8000254a:	fad43823          	sd	a3,-80(s0)
    8000254e:	a055                	j	800025f2 <copyin+0xbc>
    80002550:	fb843703          	ld	a4,-72(s0)
    80002554:	77fd                	lui	a5,0xfffff
    80002556:	8ff9                	and	a5,a5,a4
    80002558:	fef43023          	sd	a5,-32(s0)
    8000255c:	fe043583          	ld	a1,-32(s0)
    80002560:	fc843503          	ld	a0,-56(s0)
    80002564:	fffff097          	auipc	ra,0xfffff
    80002568:	75c080e7          	jalr	1884(ra) # 80001cc0 <walkaddr>
    8000256c:	fca43c23          	sd	a0,-40(s0)
    80002570:	fd843783          	ld	a5,-40(s0)
    80002574:	e399                	bnez	a5,8000257a <copyin+0x44>
    80002576:	57fd                	li	a5,-1
    80002578:	a049                	j	800025fa <copyin+0xc4>
    8000257a:	fe043703          	ld	a4,-32(s0)
    8000257e:	fb843783          	ld	a5,-72(s0)
    80002582:	8f1d                	sub	a4,a4,a5
    80002584:	6785                	lui	a5,0x1
    80002586:	97ba                	add	a5,a5,a4
    80002588:	fef43423          	sd	a5,-24(s0)
    8000258c:	fe843703          	ld	a4,-24(s0)
    80002590:	fb043783          	ld	a5,-80(s0)
    80002594:	00e7f663          	bgeu	a5,a4,800025a0 <copyin+0x6a>
    80002598:	fb043783          	ld	a5,-80(s0)
    8000259c:	fef43423          	sd	a5,-24(s0)
    800025a0:	fb843703          	ld	a4,-72(s0)
    800025a4:	fe043783          	ld	a5,-32(s0)
    800025a8:	8f1d                	sub	a4,a4,a5
    800025aa:	fd843783          	ld	a5,-40(s0)
    800025ae:	97ba                	add	a5,a5,a4
    800025b0:	873e                	mv	a4,a5
    800025b2:	fe843783          	ld	a5,-24(s0)
    800025b6:	2781                	sext.w	a5,a5
    800025b8:	863e                	mv	a2,a5
    800025ba:	85ba                	mv	a1,a4
    800025bc:	fc043503          	ld	a0,-64(s0)
    800025c0:	fffff097          	auipc	ra,0xfffff
    800025c4:	fca080e7          	jalr	-54(ra) # 8000158a <memmove>
    800025c8:	fb043703          	ld	a4,-80(s0)
    800025cc:	fe843783          	ld	a5,-24(s0)
    800025d0:	40f707b3          	sub	a5,a4,a5
    800025d4:	faf43823          	sd	a5,-80(s0)
    800025d8:	fc043703          	ld	a4,-64(s0)
    800025dc:	fe843783          	ld	a5,-24(s0)
    800025e0:	97ba                	add	a5,a5,a4
    800025e2:	fcf43023          	sd	a5,-64(s0)
    800025e6:	fe043703          	ld	a4,-32(s0)
    800025ea:	6785                	lui	a5,0x1
    800025ec:	97ba                	add	a5,a5,a4
    800025ee:	faf43c23          	sd	a5,-72(s0)
    800025f2:	fb043783          	ld	a5,-80(s0)
    800025f6:	ffa9                	bnez	a5,80002550 <copyin+0x1a>
    800025f8:	4781                	li	a5,0
    800025fa:	853e                	mv	a0,a5
    800025fc:	60a6                	ld	ra,72(sp)
    800025fe:	6406                	ld	s0,64(sp)
    80002600:	6161                	addi	sp,sp,80
    80002602:	8082                	ret

0000000080002604 <copyinstr>:
    80002604:	711d                	addi	sp,sp,-96
    80002606:	ec86                	sd	ra,88(sp)
    80002608:	e8a2                	sd	s0,80(sp)
    8000260a:	1080                	addi	s0,sp,96
    8000260c:	faa43c23          	sd	a0,-72(s0)
    80002610:	fab43823          	sd	a1,-80(s0)
    80002614:	fac43423          	sd	a2,-88(s0)
    80002618:	fad43023          	sd	a3,-96(s0)
    8000261c:	fe042223          	sw	zero,-28(s0)
    80002620:	a0f1                	j	800026ec <copyinstr+0xe8>
    80002622:	fa843703          	ld	a4,-88(s0)
    80002626:	77fd                	lui	a5,0xfffff
    80002628:	8ff9                	and	a5,a5,a4
    8000262a:	fcf43823          	sd	a5,-48(s0)
    8000262e:	fd043583          	ld	a1,-48(s0)
    80002632:	fb843503          	ld	a0,-72(s0)
    80002636:	fffff097          	auipc	ra,0xfffff
    8000263a:	68a080e7          	jalr	1674(ra) # 80001cc0 <walkaddr>
    8000263e:	fca43423          	sd	a0,-56(s0)
    80002642:	fc843783          	ld	a5,-56(s0)
    80002646:	e399                	bnez	a5,8000264c <copyinstr+0x48>
    80002648:	57fd                	li	a5,-1
    8000264a:	a87d                	j	80002708 <copyinstr+0x104>
    8000264c:	fd043703          	ld	a4,-48(s0)
    80002650:	fa843783          	ld	a5,-88(s0)
    80002654:	8f1d                	sub	a4,a4,a5
    80002656:	6785                	lui	a5,0x1
    80002658:	97ba                	add	a5,a5,a4
    8000265a:	fef43423          	sd	a5,-24(s0)
    8000265e:	fe843703          	ld	a4,-24(s0)
    80002662:	fa043783          	ld	a5,-96(s0)
    80002666:	00e7f663          	bgeu	a5,a4,80002672 <copyinstr+0x6e>
    8000266a:	fa043783          	ld	a5,-96(s0)
    8000266e:	fef43423          	sd	a5,-24(s0)
    80002672:	fa843703          	ld	a4,-88(s0)
    80002676:	fd043783          	ld	a5,-48(s0)
    8000267a:	8f1d                	sub	a4,a4,a5
    8000267c:	fc843783          	ld	a5,-56(s0)
    80002680:	97ba                	add	a5,a5,a4
    80002682:	fcf43c23          	sd	a5,-40(s0)
    80002686:	a891                	j	800026da <copyinstr+0xd6>
    80002688:	fd843783          	ld	a5,-40(s0)
    8000268c:	0007c783          	lbu	a5,0(a5) # 1000 <_entry-0x7ffff000>
    80002690:	eb89                	bnez	a5,800026a2 <copyinstr+0x9e>
    80002692:	fb043783          	ld	a5,-80(s0)
    80002696:	00078023          	sb	zero,0(a5)
    8000269a:	4785                	li	a5,1
    8000269c:	fef42223          	sw	a5,-28(s0)
    800026a0:	a081                	j	800026e0 <copyinstr+0xdc>
    800026a2:	fd843783          	ld	a5,-40(s0)
    800026a6:	0007c703          	lbu	a4,0(a5)
    800026aa:	fb043783          	ld	a5,-80(s0)
    800026ae:	00e78023          	sb	a4,0(a5)
    800026b2:	fe843783          	ld	a5,-24(s0)
    800026b6:	17fd                	addi	a5,a5,-1
    800026b8:	fef43423          	sd	a5,-24(s0)
    800026bc:	fa043783          	ld	a5,-96(s0)
    800026c0:	17fd                	addi	a5,a5,-1
    800026c2:	faf43023          	sd	a5,-96(s0)
    800026c6:	fd843783          	ld	a5,-40(s0)
    800026ca:	0785                	addi	a5,a5,1
    800026cc:	fcf43c23          	sd	a5,-40(s0)
    800026d0:	fb043783          	ld	a5,-80(s0)
    800026d4:	0785                	addi	a5,a5,1
    800026d6:	faf43823          	sd	a5,-80(s0)
    800026da:	fe843783          	ld	a5,-24(s0)
    800026de:	f7cd                	bnez	a5,80002688 <copyinstr+0x84>
    800026e0:	fd043703          	ld	a4,-48(s0)
    800026e4:	6785                	lui	a5,0x1
    800026e6:	97ba                	add	a5,a5,a4
    800026e8:	faf43423          	sd	a5,-88(s0)
    800026ec:	fe442783          	lw	a5,-28(s0)
    800026f0:	2781                	sext.w	a5,a5
    800026f2:	e781                	bnez	a5,800026fa <copyinstr+0xf6>
    800026f4:	fa043783          	ld	a5,-96(s0)
    800026f8:	f78d                	bnez	a5,80002622 <copyinstr+0x1e>
    800026fa:	fe442783          	lw	a5,-28(s0)
    800026fe:	2781                	sext.w	a5,a5
    80002700:	c399                	beqz	a5,80002706 <copyinstr+0x102>
    80002702:	4781                	li	a5,0
    80002704:	a011                	j	80002708 <copyinstr+0x104>
    80002706:	57fd                	li	a5,-1
    80002708:	853e                	mv	a0,a5
    8000270a:	60e6                	ld	ra,88(sp)
    8000270c:	6446                	ld	s0,80(sp)
    8000270e:	6125                	addi	sp,sp,96
    80002710:	8082                	ret

0000000080002712 <test_pagetable>:
    80002712:	1101                	addi	sp,sp,-32
    80002714:	ec06                	sd	ra,24(sp)
    80002716:	e822                	sd	s0,16(sp)
    80002718:	1000                	addi	s0,sp,32
    8000271a:	fffff097          	auipc	ra,0xfffff
    8000271e:	274080e7          	jalr	628(ra) # 8000198e <r_satp>
    80002722:	fea43423          	sd	a0,-24(s0)
    80002726:	0000b797          	auipc	a5,0xb
    8000272a:	8ea78793          	addi	a5,a5,-1814 # 8000d010 <g_space>
    8000272e:	639c                	ld	a5,0(a5)
    80002730:	00c7d713          	srli	a4,a5,0xc
    80002734:	57fd                	li	a5,-1
    80002736:	17fe                	slli	a5,a5,0x3f
    80002738:	8fd9                	or	a5,a5,a4
    8000273a:	fef43023          	sd	a5,-32(s0)
    8000273e:	fe843703          	ld	a4,-24(s0)
    80002742:	fe043783          	ld	a5,-32(s0)
    80002746:	40f707b3          	sub	a5,a4,a5
    8000274a:	00f037b3          	snez	a5,a5
    8000274e:	0ff7f793          	zext.b	a5,a5
    80002752:	2781                	sext.w	a5,a5
    80002754:	85be                	mv	a1,a5
    80002756:	0000a517          	auipc	a0,0xa
    8000275a:	a7250513          	addi	a0,a0,-1422 # 8000c1c8 <etext+0x1c8>
    8000275e:	ffffe097          	auipc	ra,0xffffe
    80002762:	2ea080e7          	jalr	746(ra) # 80000a48 <printf>
    80002766:	fe843703          	ld	a4,-24(s0)
    8000276a:	fe043783          	ld	a5,-32(s0)
    8000276e:	40f707b3          	sub	a5,a4,a5
    80002772:	00f037b3          	snez	a5,a5
    80002776:	0ff7f793          	zext.b	a5,a5
    8000277a:	2781                	sext.w	a5,a5
    8000277c:	853e                	mv	a0,a5
    8000277e:	60e2                	ld	ra,24(sp)
    80002780:	6442                	ld	s0,16(sp)
    80002782:	6105                	addi	sp,sp,32
    80002784:	8082                	ret

0000000080002786 <r_sstatus>:
    80002786:	1101                	addi	sp,sp,-32
    80002788:	ec22                	sd	s0,24(sp)
    8000278a:	1000                	addi	s0,sp,32
    8000278c:	100027f3          	csrr	a5,sstatus
    80002790:	fef43423          	sd	a5,-24(s0)
    80002794:	fe843783          	ld	a5,-24(s0)
    80002798:	853e                	mv	a0,a5
    8000279a:	6462                	ld	s0,24(sp)
    8000279c:	6105                	addi	sp,sp,32
    8000279e:	8082                	ret

00000000800027a0 <w_sstatus>:
    800027a0:	1101                	addi	sp,sp,-32
    800027a2:	ec22                	sd	s0,24(sp)
    800027a4:	1000                	addi	s0,sp,32
    800027a6:	fea43423          	sd	a0,-24(s0)
    800027aa:	fe843783          	ld	a5,-24(s0)
    800027ae:	10079073          	csrw	sstatus,a5
    800027b2:	0001                	nop
    800027b4:	6462                	ld	s0,24(sp)
    800027b6:	6105                	addi	sp,sp,32
    800027b8:	8082                	ret

00000000800027ba <w_satp>:
    800027ba:	1101                	addi	sp,sp,-32
    800027bc:	ec22                	sd	s0,24(sp)
    800027be:	1000                	addi	s0,sp,32
    800027c0:	fea43423          	sd	a0,-24(s0)
    800027c4:	fe843783          	ld	a5,-24(s0)
    800027c8:	18079073          	csrw	satp,a5
    800027cc:	0001                	nop
    800027ce:	6462                	ld	s0,24(sp)
    800027d0:	6105                	addi	sp,sp,32
    800027d2:	8082                	ret

00000000800027d4 <intr_on>:
    800027d4:	1141                	addi	sp,sp,-16
    800027d6:	e406                	sd	ra,8(sp)
    800027d8:	e022                	sd	s0,0(sp)
    800027da:	0800                	addi	s0,sp,16
    800027dc:	00000097          	auipc	ra,0x0
    800027e0:	faa080e7          	jalr	-86(ra) # 80002786 <r_sstatus>
    800027e4:	87aa                	mv	a5,a0
    800027e6:	0027e793          	ori	a5,a5,2
    800027ea:	853e                	mv	a0,a5
    800027ec:	00000097          	auipc	ra,0x0
    800027f0:	fb4080e7          	jalr	-76(ra) # 800027a0 <w_sstatus>
    800027f4:	0001                	nop
    800027f6:	60a2                	ld	ra,8(sp)
    800027f8:	6402                	ld	s0,0(sp)
    800027fa:	0141                	addi	sp,sp,16
    800027fc:	8082                	ret

00000000800027fe <intr_get>:
    800027fe:	1101                	addi	sp,sp,-32
    80002800:	ec06                	sd	ra,24(sp)
    80002802:	e822                	sd	s0,16(sp)
    80002804:	1000                	addi	s0,sp,32
    80002806:	00000097          	auipc	ra,0x0
    8000280a:	f80080e7          	jalr	-128(ra) # 80002786 <r_sstatus>
    8000280e:	fea43423          	sd	a0,-24(s0)
    80002812:	fe843783          	ld	a5,-24(s0)
    80002816:	8b89                	andi	a5,a5,2
    80002818:	00f037b3          	snez	a5,a5
    8000281c:	0ff7f793          	zext.b	a5,a5
    80002820:	2781                	sext.w	a5,a5
    80002822:	853e                	mv	a0,a5
    80002824:	60e2                	ld	ra,24(sp)
    80002826:	6442                	ld	s0,16(sp)
    80002828:	6105                	addi	sp,sp,32
    8000282a:	8082                	ret

000000008000282c <r_tp>:
    8000282c:	1101                	addi	sp,sp,-32
    8000282e:	ec22                	sd	s0,24(sp)
    80002830:	1000                	addi	s0,sp,32
    80002832:	8792                	mv	a5,tp
    80002834:	fef43423          	sd	a5,-24(s0)
    80002838:	fe843783          	ld	a5,-24(s0)
    8000283c:	853e                	mv	a0,a5
    8000283e:	6462                	ld	s0,24(sp)
    80002840:	6105                	addi	sp,sp,32
    80002842:	8082                	ret

0000000080002844 <sfence_vma>:
    80002844:	1141                	addi	sp,sp,-16
    80002846:	e422                	sd	s0,8(sp)
    80002848:	0800                	addi	s0,sp,16
    8000284a:	12000073          	sfence.vma
    8000284e:	0001                	nop
    80002850:	6422                	ld	s0,8(sp)
    80002852:	0141                	addi	sp,sp,16
    80002854:	8082                	ret

0000000080002856 <procinit>:
    80002856:	1101                	addi	sp,sp,-32
    80002858:	ec06                	sd	ra,24(sp)
    8000285a:	e822                	sd	s0,16(sp)
    8000285c:	1000                	addi	s0,sp,32
    8000285e:	0000a597          	auipc	a1,0xa
    80002862:	98258593          	addi	a1,a1,-1662 # 8000c1e0 <etext+0x1e0>
    80002866:	00019517          	auipc	a0,0x19
    8000286a:	ef250513          	addi	a0,a0,-270 # 8001b758 <pid_lock>
    8000286e:	fffff097          	auipc	ra,0xfffff
    80002872:	a34080e7          	jalr	-1484(ra) # 800012a2 <initlock>
    80002876:	00013797          	auipc	a5,0x13
    8000287a:	4e278793          	addi	a5,a5,1250 # 80015d58 <proc>
    8000287e:	fef43423          	sd	a5,-24(s0)
    80002882:	a881                	j	800028d2 <procinit+0x7c>
    80002884:	fe843783          	ld	a5,-24(s0)
    80002888:	0000a597          	auipc	a1,0xa
    8000288c:	96058593          	addi	a1,a1,-1696 # 8000c1e8 <etext+0x1e8>
    80002890:	853e                	mv	a0,a5
    80002892:	fffff097          	auipc	ra,0xfffff
    80002896:	a10080e7          	jalr	-1520(ra) # 800012a2 <initlock>
    8000289a:	fffff097          	auipc	ra,0xfffff
    8000289e:	8e4080e7          	jalr	-1820(ra) # 8000117e <kalloc>
    800028a2:	fea43023          	sd	a0,-32(s0)
    800028a6:	fe043783          	ld	a5,-32(s0)
    800028aa:	eb89                	bnez	a5,800028bc <procinit+0x66>
    800028ac:	0000a517          	auipc	a0,0xa
    800028b0:	94450513          	addi	a0,a0,-1724 # 8000c1f0 <etext+0x1f0>
    800028b4:	ffffe097          	auipc	ra,0xffffe
    800028b8:	3ea080e7          	jalr	1002(ra) # 80000c9e <panic>
    800028bc:	fe043703          	ld	a4,-32(s0)
    800028c0:	fe843783          	ld	a5,-24(s0)
    800028c4:	e3b8                	sd	a4,64(a5)
    800028c6:	fe843783          	ld	a5,-24(s0)
    800028ca:	16878793          	addi	a5,a5,360
    800028ce:	fef43423          	sd	a5,-24(s0)
    800028d2:	fe843703          	ld	a4,-24(s0)
    800028d6:	00019797          	auipc	a5,0x19
    800028da:	e8278793          	addi	a5,a5,-382 # 8001b758 <pid_lock>
    800028de:	faf763e3          	bltu	a4,a5,80002884 <procinit+0x2e>
    800028e2:	fffff097          	auipc	ra,0xfffff
    800028e6:	2b4080e7          	jalr	692(ra) # 80001b96 <kvminithart>
    800028ea:	0001                	nop
    800028ec:	60e2                	ld	ra,24(sp)
    800028ee:	6442                	ld	s0,16(sp)
    800028f0:	6105                	addi	sp,sp,32
    800028f2:	8082                	ret

00000000800028f4 <cpuid>:
    800028f4:	1101                	addi	sp,sp,-32
    800028f6:	ec06                	sd	ra,24(sp)
    800028f8:	e822                	sd	s0,16(sp)
    800028fa:	1000                	addi	s0,sp,32
    800028fc:	00000097          	auipc	ra,0x0
    80002900:	f30080e7          	jalr	-208(ra) # 8000282c <r_tp>
    80002904:	87aa                	mv	a5,a0
    80002906:	fef42623          	sw	a5,-20(s0)
    8000290a:	fec42783          	lw	a5,-20(s0)
    8000290e:	853e                	mv	a0,a5
    80002910:	60e2                	ld	ra,24(sp)
    80002912:	6442                	ld	s0,16(sp)
    80002914:	6105                	addi	sp,sp,32
    80002916:	8082                	ret

0000000080002918 <mycpu>:
    80002918:	1101                	addi	sp,sp,-32
    8000291a:	ec06                	sd	ra,24(sp)
    8000291c:	e822                	sd	s0,16(sp)
    8000291e:	1000                	addi	s0,sp,32
    80002920:	00000097          	auipc	ra,0x0
    80002924:	fd4080e7          	jalr	-44(ra) # 800028f4 <cpuid>
    80002928:	87aa                	mv	a5,a0
    8000292a:	fef42623          	sw	a5,-20(s0)
    8000292e:	fec42783          	lw	a5,-20(s0)
    80002932:	00779713          	slli	a4,a5,0x7
    80002936:	00013797          	auipc	a5,0x13
    8000293a:	02278793          	addi	a5,a5,34 # 80015958 <cpus>
    8000293e:	97ba                	add	a5,a5,a4
    80002940:	fef43023          	sd	a5,-32(s0)
    80002944:	fe043783          	ld	a5,-32(s0)
    80002948:	853e                	mv	a0,a5
    8000294a:	60e2                	ld	ra,24(sp)
    8000294c:	6442                	ld	s0,16(sp)
    8000294e:	6105                	addi	sp,sp,32
    80002950:	8082                	ret

0000000080002952 <myproc>:
    80002952:	1101                	addi	sp,sp,-32
    80002954:	ec06                	sd	ra,24(sp)
    80002956:	e822                	sd	s0,16(sp)
    80002958:	1000                	addi	s0,sp,32
    8000295a:	fffff097          	auipc	ra,0xfffff
    8000295e:	a76080e7          	jalr	-1418(ra) # 800013d0 <push_off>
    80002962:	00000097          	auipc	ra,0x0
    80002966:	fb6080e7          	jalr	-74(ra) # 80002918 <mycpu>
    8000296a:	fea43423          	sd	a0,-24(s0)
    8000296e:	fe843783          	ld	a5,-24(s0)
    80002972:	639c                	ld	a5,0(a5)
    80002974:	fef43023          	sd	a5,-32(s0)
    80002978:	fffff097          	auipc	ra,0xfffff
    8000297c:	ab0080e7          	jalr	-1360(ra) # 80001428 <pop_off>
    80002980:	fe043783          	ld	a5,-32(s0)
    80002984:	853e                	mv	a0,a5
    80002986:	60e2                	ld	ra,24(sp)
    80002988:	6442                	ld	s0,16(sp)
    8000298a:	6105                	addi	sp,sp,32
    8000298c:	8082                	ret

000000008000298e <allocpid>:
    8000298e:	1101                	addi	sp,sp,-32
    80002990:	ec06                	sd	ra,24(sp)
    80002992:	e822                	sd	s0,16(sp)
    80002994:	1000                	addi	s0,sp,32
    80002996:	00019517          	auipc	a0,0x19
    8000299a:	dc250513          	addi	a0,a0,-574 # 8001b758 <pid_lock>
    8000299e:	fffff097          	auipc	ra,0xfffff
    800029a2:	934080e7          	jalr	-1740(ra) # 800012d2 <acquire>
    800029a6:	0000a797          	auipc	a5,0xa
    800029aa:	eba78793          	addi	a5,a5,-326 # 8000c860 <nextpid>
    800029ae:	439c                	lw	a5,0(a5)
    800029b0:	fef42623          	sw	a5,-20(s0)
    800029b4:	0000a797          	auipc	a5,0xa
    800029b8:	eac78793          	addi	a5,a5,-340 # 8000c860 <nextpid>
    800029bc:	439c                	lw	a5,0(a5)
    800029be:	2785                	addiw	a5,a5,1
    800029c0:	0007871b          	sext.w	a4,a5
    800029c4:	0000a797          	auipc	a5,0xa
    800029c8:	e9c78793          	addi	a5,a5,-356 # 8000c860 <nextpid>
    800029cc:	c398                	sw	a4,0(a5)
    800029ce:	00019517          	auipc	a0,0x19
    800029d2:	d8a50513          	addi	a0,a0,-630 # 8001b758 <pid_lock>
    800029d6:	fffff097          	auipc	ra,0xfffff
    800029da:	960080e7          	jalr	-1696(ra) # 80001336 <release>
    800029de:	fec42783          	lw	a5,-20(s0)
    800029e2:	853e                	mv	a0,a5
    800029e4:	60e2                	ld	ra,24(sp)
    800029e6:	6442                	ld	s0,16(sp)
    800029e8:	6105                	addi	sp,sp,32
    800029ea:	8082                	ret

00000000800029ec <allocproc>:
    800029ec:	1101                	addi	sp,sp,-32
    800029ee:	ec06                	sd	ra,24(sp)
    800029f0:	e822                	sd	s0,16(sp)
    800029f2:	1000                	addi	s0,sp,32
    800029f4:	00013797          	auipc	a5,0x13
    800029f8:	36478793          	addi	a5,a5,868 # 80015d58 <proc>
    800029fc:	fef43423          	sd	a5,-24(s0)
    80002a00:	a80d                	j	80002a32 <allocproc+0x46>
    80002a02:	fe843783          	ld	a5,-24(s0)
    80002a06:	853e                	mv	a0,a5
    80002a08:	fffff097          	auipc	ra,0xfffff
    80002a0c:	8ca080e7          	jalr	-1846(ra) # 800012d2 <acquire>
    80002a10:	fe843783          	ld	a5,-24(s0)
    80002a14:	4f9c                	lw	a5,24(a5)
    80002a16:	cb85                	beqz	a5,80002a46 <allocproc+0x5a>
    80002a18:	fe843783          	ld	a5,-24(s0)
    80002a1c:	853e                	mv	a0,a5
    80002a1e:	fffff097          	auipc	ra,0xfffff
    80002a22:	918080e7          	jalr	-1768(ra) # 80001336 <release>
    80002a26:	fe843783          	ld	a5,-24(s0)
    80002a2a:	16878793          	addi	a5,a5,360
    80002a2e:	fef43423          	sd	a5,-24(s0)
    80002a32:	fe843703          	ld	a4,-24(s0)
    80002a36:	00019797          	auipc	a5,0x19
    80002a3a:	d2278793          	addi	a5,a5,-734 # 8001b758 <pid_lock>
    80002a3e:	fcf762e3          	bltu	a4,a5,80002a02 <allocproc+0x16>
    80002a42:	4781                	li	a5,0
    80002a44:	a855                	j	80002af8 <allocproc+0x10c>
    80002a46:	0001                	nop
    80002a48:	00000097          	auipc	ra,0x0
    80002a4c:	f46080e7          	jalr	-186(ra) # 8000298e <allocpid>
    80002a50:	87aa                	mv	a5,a0
    80002a52:	873e                	mv	a4,a5
    80002a54:	fe843783          	ld	a5,-24(s0)
    80002a58:	df98                	sw	a4,56(a5)
    80002a5a:	ffffe097          	auipc	ra,0xffffe
    80002a5e:	724080e7          	jalr	1828(ra) # 8000117e <kalloc>
    80002a62:	872a                	mv	a4,a0
    80002a64:	fe843783          	ld	a5,-24(s0)
    80002a68:	efb8                	sd	a4,88(a5)
    80002a6a:	fe843783          	ld	a5,-24(s0)
    80002a6e:	6fbc                	ld	a5,88(a5)
    80002a70:	eb91                	bnez	a5,80002a84 <allocproc+0x98>
    80002a72:	fe843783          	ld	a5,-24(s0)
    80002a76:	853e                	mv	a0,a5
    80002a78:	fffff097          	auipc	ra,0xfffff
    80002a7c:	8be080e7          	jalr	-1858(ra) # 80001336 <release>
    80002a80:	4781                	li	a5,0
    80002a82:	a89d                	j	80002af8 <allocproc+0x10c>
    80002a84:	fe843503          	ld	a0,-24(s0)
    80002a88:	00000097          	auipc	ra,0x0
    80002a8c:	118080e7          	jalr	280(ra) # 80002ba0 <proc_pagetable>
    80002a90:	872a                	mv	a4,a0
    80002a92:	fe843783          	ld	a5,-24(s0)
    80002a96:	ebb8                	sd	a4,80(a5)
    80002a98:	fe843783          	ld	a5,-24(s0)
    80002a9c:	6bbc                	ld	a5,80(a5)
    80002a9e:	e385                	bnez	a5,80002abe <allocproc+0xd2>
    80002aa0:	fe843503          	ld	a0,-24(s0)
    80002aa4:	00000097          	auipc	ra,0x0
    80002aa8:	05e080e7          	jalr	94(ra) # 80002b02 <freeproc>
    80002aac:	fe843783          	ld	a5,-24(s0)
    80002ab0:	853e                	mv	a0,a5
    80002ab2:	fffff097          	auipc	ra,0xfffff
    80002ab6:	884080e7          	jalr	-1916(ra) # 80001336 <release>
    80002aba:	4781                	li	a5,0
    80002abc:	a835                	j	80002af8 <allocproc+0x10c>
    80002abe:	fe843783          	ld	a5,-24(s0)
    80002ac2:	06078793          	addi	a5,a5,96
    80002ac6:	07000613          	li	a2,112
    80002aca:	4581                	li	a1,0
    80002acc:	853e                	mv	a0,a5
    80002ace:	fffff097          	auipc	ra,0xfffff
    80002ad2:	9d8080e7          	jalr	-1576(ra) # 800014a6 <memset>
    80002ad6:	00001717          	auipc	a4,0x1
    80002ada:	dec70713          	addi	a4,a4,-532 # 800038c2 <forkret>
    80002ade:	fe843783          	ld	a5,-24(s0)
    80002ae2:	f3b8                	sd	a4,96(a5)
    80002ae4:	fe843783          	ld	a5,-24(s0)
    80002ae8:	63b8                	ld	a4,64(a5)
    80002aea:	6785                	lui	a5,0x1
    80002aec:	973e                	add	a4,a4,a5
    80002aee:	fe843783          	ld	a5,-24(s0)
    80002af2:	f7b8                	sd	a4,104(a5)
    80002af4:	fe843783          	ld	a5,-24(s0)
    80002af8:	853e                	mv	a0,a5
    80002afa:	60e2                	ld	ra,24(sp)
    80002afc:	6442                	ld	s0,16(sp)
    80002afe:	6105                	addi	sp,sp,32
    80002b00:	8082                	ret

0000000080002b02 <freeproc>:
    80002b02:	1101                	addi	sp,sp,-32
    80002b04:	ec06                	sd	ra,24(sp)
    80002b06:	e822                	sd	s0,16(sp)
    80002b08:	1000                	addi	s0,sp,32
    80002b0a:	fea43423          	sd	a0,-24(s0)
    80002b0e:	fe843783          	ld	a5,-24(s0)
    80002b12:	6fbc                	ld	a5,88(a5)
    80002b14:	cb89                	beqz	a5,80002b26 <freeproc+0x24>
    80002b16:	fe843783          	ld	a5,-24(s0)
    80002b1a:	6fbc                	ld	a5,88(a5)
    80002b1c:	853e                	mv	a0,a5
    80002b1e:	ffffe097          	auipc	ra,0xffffe
    80002b22:	5bc080e7          	jalr	1468(ra) # 800010da <kfree>
    80002b26:	fe843783          	ld	a5,-24(s0)
    80002b2a:	0407bc23          	sd	zero,88(a5) # 1058 <_entry-0x7fffefa8>
    80002b2e:	fe843783          	ld	a5,-24(s0)
    80002b32:	6bbc                	ld	a5,80(a5)
    80002b34:	cf89                	beqz	a5,80002b4e <freeproc+0x4c>
    80002b36:	fe843783          	ld	a5,-24(s0)
    80002b3a:	6bb8                	ld	a4,80(a5)
    80002b3c:	fe843783          	ld	a5,-24(s0)
    80002b40:	67bc                	ld	a5,72(a5)
    80002b42:	85be                	mv	a1,a5
    80002b44:	853a                	mv	a0,a4
    80002b46:	00000097          	auipc	ra,0x0
    80002b4a:	40e080e7          	jalr	1038(ra) # 80002f54 <proc_freepagetable>
    80002b4e:	fe843783          	ld	a5,-24(s0)
    80002b52:	0407b823          	sd	zero,80(a5)
    80002b56:	fe843783          	ld	a5,-24(s0)
    80002b5a:	0407b423          	sd	zero,72(a5)
    80002b5e:	fe843783          	ld	a5,-24(s0)
    80002b62:	0207ac23          	sw	zero,56(a5)
    80002b66:	fe843783          	ld	a5,-24(s0)
    80002b6a:	0207b023          	sd	zero,32(a5)
    80002b6e:	fe843783          	ld	a5,-24(s0)
    80002b72:	14078c23          	sb	zero,344(a5)
    80002b76:	fe843783          	ld	a5,-24(s0)
    80002b7a:	0207b423          	sd	zero,40(a5)
    80002b7e:	fe843783          	ld	a5,-24(s0)
    80002b82:	0207a823          	sw	zero,48(a5)
    80002b86:	fe843783          	ld	a5,-24(s0)
    80002b8a:	0207aa23          	sw	zero,52(a5)
    80002b8e:	fe843783          	ld	a5,-24(s0)
    80002b92:	0007ac23          	sw	zero,24(a5)
    80002b96:	0001                	nop
    80002b98:	60e2                	ld	ra,24(sp)
    80002b9a:	6442                	ld	s0,16(sp)
    80002b9c:	6105                	addi	sp,sp,32
    80002b9e:	8082                	ret

0000000080002ba0 <proc_pagetable>:
    80002ba0:	7179                	addi	sp,sp,-48
    80002ba2:	f406                	sd	ra,40(sp)
    80002ba4:	f022                	sd	s0,32(sp)
    80002ba6:	1800                	addi	s0,sp,48
    80002ba8:	fca43c23          	sd	a0,-40(s0)
    80002bac:	fffff097          	auipc	ra,0xfffff
    80002bb0:	40a080e7          	jalr	1034(ra) # 80001fb6 <uvmcreate>
    80002bb4:	fea43423          	sd	a0,-24(s0)
    80002bb8:	fe843783          	ld	a5,-24(s0)
    80002bbc:	e399                	bnez	a5,80002bc2 <proc_pagetable+0x22>
    80002bbe:	4781                	li	a5,0
    80002bc0:	a669                	j	80002f4a <proc_pagetable+0x3aa>
    80002bc2:	00008797          	auipc	a5,0x8
    80002bc6:	43e78793          	addi	a5,a5,1086 # 8000b000 <_trampoline>
    80002bca:	4729                	li	a4,10
    80002bcc:	86be                	mv	a3,a5
    80002bce:	6605                	lui	a2,0x1
    80002bd0:	040007b7          	lui	a5,0x4000
    80002bd4:	17fd                	addi	a5,a5,-1 # 3ffffff <_entry-0x7c000001>
    80002bd6:	00c79593          	slli	a1,a5,0xc
    80002bda:	fe843503          	ld	a0,-24(s0)
    80002bde:	fffff097          	auipc	ra,0xfffff
    80002be2:	1e4080e7          	jalr	484(ra) # 80001dc2 <space_map>
    80002be6:	87aa                	mv	a5,a0
    80002be8:	0007db63          	bgez	a5,80002bfe <proc_pagetable+0x5e>
    80002bec:	4581                	li	a1,0
    80002bee:	fe843503          	ld	a0,-24(s0)
    80002bf2:	fffff097          	auipc	ra,0xfffff
    80002bf6:	6c2080e7          	jalr	1730(ra) # 800022b4 <uvmfree>
    80002bfa:	4781                	li	a5,0
    80002bfc:	a6b9                	j	80002f4a <proc_pagetable+0x3aa>
    80002bfe:	fd843783          	ld	a5,-40(s0)
    80002c02:	6fbc                	ld	a5,88(a5)
    80002c04:	4719                	li	a4,6
    80002c06:	86be                	mv	a3,a5
    80002c08:	6605                	lui	a2,0x1
    80002c0a:	020007b7          	lui	a5,0x2000
    80002c0e:	17fd                	addi	a5,a5,-1 # 1ffffff <_entry-0x7e000001>
    80002c10:	00d79593          	slli	a1,a5,0xd
    80002c14:	fe843503          	ld	a0,-24(s0)
    80002c18:	fffff097          	auipc	ra,0xfffff
    80002c1c:	1aa080e7          	jalr	426(ra) # 80001dc2 <space_map>
    80002c20:	87aa                	mv	a5,a0
    80002c22:	0207d863          	bgez	a5,80002c52 <proc_pagetable+0xb2>
    80002c26:	4681                	li	a3,0
    80002c28:	4605                	li	a2,1
    80002c2a:	040007b7          	lui	a5,0x4000
    80002c2e:	17fd                	addi	a5,a5,-1 # 3ffffff <_entry-0x7c000001>
    80002c30:	00c79593          	slli	a1,a5,0xc
    80002c34:	fe843503          	ld	a0,-24(s0)
    80002c38:	fffff097          	auipc	ra,0xfffff
    80002c3c:	27e080e7          	jalr	638(ra) # 80001eb6 <space_unmap>
    80002c40:	4581                	li	a1,0
    80002c42:	fe843503          	ld	a0,-24(s0)
    80002c46:	fffff097          	auipc	ra,0xfffff
    80002c4a:	66e080e7          	jalr	1646(ra) # 800022b4 <uvmfree>
    80002c4e:	4781                	li	a5,0
    80002c50:	aced                	j	80002f4a <proc_pagetable+0x3aa>
    80002c52:	4719                	li	a4,6
    80002c54:	100006b7          	lui	a3,0x10000
    80002c58:	6605                	lui	a2,0x1
    80002c5a:	100005b7          	lui	a1,0x10000
    80002c5e:	fe843503          	ld	a0,-24(s0)
    80002c62:	fffff097          	auipc	ra,0xfffff
    80002c66:	160080e7          	jalr	352(ra) # 80001dc2 <space_map>
    80002c6a:	87aa                	mv	a5,a0
    80002c6c:	c7a1                	beqz	a5,80002cb4 <proc_pagetable+0x114>
    80002c6e:	4681                	li	a3,0
    80002c70:	4605                	li	a2,1
    80002c72:	040007b7          	lui	a5,0x4000
    80002c76:	17fd                	addi	a5,a5,-1 # 3ffffff <_entry-0x7c000001>
    80002c78:	00c79593          	slli	a1,a5,0xc
    80002c7c:	fe843503          	ld	a0,-24(s0)
    80002c80:	fffff097          	auipc	ra,0xfffff
    80002c84:	236080e7          	jalr	566(ra) # 80001eb6 <space_unmap>
    80002c88:	4681                	li	a3,0
    80002c8a:	4605                	li	a2,1
    80002c8c:	020007b7          	lui	a5,0x2000
    80002c90:	17fd                	addi	a5,a5,-1 # 1ffffff <_entry-0x7e000001>
    80002c92:	00d79593          	slli	a1,a5,0xd
    80002c96:	fe843503          	ld	a0,-24(s0)
    80002c9a:	fffff097          	auipc	ra,0xfffff
    80002c9e:	21c080e7          	jalr	540(ra) # 80001eb6 <space_unmap>
    80002ca2:	4581                	li	a1,0
    80002ca4:	fe843503          	ld	a0,-24(s0)
    80002ca8:	fffff097          	auipc	ra,0xfffff
    80002cac:	60c080e7          	jalr	1548(ra) # 800022b4 <uvmfree>
    80002cb0:	4781                	li	a5,0
    80002cb2:	ac61                	j	80002f4a <proc_pagetable+0x3aa>
    80002cb4:	4719                	li	a4,6
    80002cb6:	100016b7          	lui	a3,0x10001
    80002cba:	6605                	lui	a2,0x1
    80002cbc:	100015b7          	lui	a1,0x10001
    80002cc0:	fe843503          	ld	a0,-24(s0)
    80002cc4:	fffff097          	auipc	ra,0xfffff
    80002cc8:	0fe080e7          	jalr	254(ra) # 80001dc2 <space_map>
    80002ccc:	87aa                	mv	a5,a0
    80002cce:	cfb1                	beqz	a5,80002d2a <proc_pagetable+0x18a>
    80002cd0:	4681                	li	a3,0
    80002cd2:	4605                	li	a2,1
    80002cd4:	100005b7          	lui	a1,0x10000
    80002cd8:	fe843503          	ld	a0,-24(s0)
    80002cdc:	fffff097          	auipc	ra,0xfffff
    80002ce0:	1da080e7          	jalr	474(ra) # 80001eb6 <space_unmap>
    80002ce4:	4681                	li	a3,0
    80002ce6:	4605                	li	a2,1
    80002ce8:	040007b7          	lui	a5,0x4000
    80002cec:	17fd                	addi	a5,a5,-1 # 3ffffff <_entry-0x7c000001>
    80002cee:	00c79593          	slli	a1,a5,0xc
    80002cf2:	fe843503          	ld	a0,-24(s0)
    80002cf6:	fffff097          	auipc	ra,0xfffff
    80002cfa:	1c0080e7          	jalr	448(ra) # 80001eb6 <space_unmap>
    80002cfe:	4681                	li	a3,0
    80002d00:	4605                	li	a2,1
    80002d02:	020007b7          	lui	a5,0x2000
    80002d06:	17fd                	addi	a5,a5,-1 # 1ffffff <_entry-0x7e000001>
    80002d08:	00d79593          	slli	a1,a5,0xd
    80002d0c:	fe843503          	ld	a0,-24(s0)
    80002d10:	fffff097          	auipc	ra,0xfffff
    80002d14:	1a6080e7          	jalr	422(ra) # 80001eb6 <space_unmap>
    80002d18:	4581                	li	a1,0
    80002d1a:	fe843503          	ld	a0,-24(s0)
    80002d1e:	fffff097          	auipc	ra,0xfffff
    80002d22:	596080e7          	jalr	1430(ra) # 800022b4 <uvmfree>
    80002d26:	4781                	li	a5,0
    80002d28:	a40d                	j	80002f4a <proc_pagetable+0x3aa>
    80002d2a:	4719                	li	a4,6
    80002d2c:	0c0006b7          	lui	a3,0xc000
    80002d30:	00400637          	lui	a2,0x400
    80002d34:	0c0005b7          	lui	a1,0xc000
    80002d38:	fe843503          	ld	a0,-24(s0)
    80002d3c:	fffff097          	auipc	ra,0xfffff
    80002d40:	086080e7          	jalr	134(ra) # 80001dc2 <space_map>
    80002d44:	87aa                	mv	a5,a0
    80002d46:	cba5                	beqz	a5,80002db6 <proc_pagetable+0x216>
    80002d48:	4681                	li	a3,0
    80002d4a:	4605                	li	a2,1
    80002d4c:	100015b7          	lui	a1,0x10001
    80002d50:	fe843503          	ld	a0,-24(s0)
    80002d54:	fffff097          	auipc	ra,0xfffff
    80002d58:	162080e7          	jalr	354(ra) # 80001eb6 <space_unmap>
    80002d5c:	4681                	li	a3,0
    80002d5e:	4605                	li	a2,1
    80002d60:	100005b7          	lui	a1,0x10000
    80002d64:	fe843503          	ld	a0,-24(s0)
    80002d68:	fffff097          	auipc	ra,0xfffff
    80002d6c:	14e080e7          	jalr	334(ra) # 80001eb6 <space_unmap>
    80002d70:	4681                	li	a3,0
    80002d72:	4605                	li	a2,1
    80002d74:	040007b7          	lui	a5,0x4000
    80002d78:	17fd                	addi	a5,a5,-1 # 3ffffff <_entry-0x7c000001>
    80002d7a:	00c79593          	slli	a1,a5,0xc
    80002d7e:	fe843503          	ld	a0,-24(s0)
    80002d82:	fffff097          	auipc	ra,0xfffff
    80002d86:	134080e7          	jalr	308(ra) # 80001eb6 <space_unmap>
    80002d8a:	4681                	li	a3,0
    80002d8c:	4605                	li	a2,1
    80002d8e:	020007b7          	lui	a5,0x2000
    80002d92:	17fd                	addi	a5,a5,-1 # 1ffffff <_entry-0x7e000001>
    80002d94:	00d79593          	slli	a1,a5,0xd
    80002d98:	fe843503          	ld	a0,-24(s0)
    80002d9c:	fffff097          	auipc	ra,0xfffff
    80002da0:	11a080e7          	jalr	282(ra) # 80001eb6 <space_unmap>
    80002da4:	4581                	li	a1,0
    80002da6:	fe843503          	ld	a0,-24(s0)
    80002daa:	fffff097          	auipc	ra,0xfffff
    80002dae:	50a080e7          	jalr	1290(ra) # 800022b4 <uvmfree>
    80002db2:	4781                	li	a5,0
    80002db4:	aa59                	j	80002f4a <proc_pagetable+0x3aa>
    80002db6:	00009717          	auipc	a4,0x9
    80002dba:	24a70713          	addi	a4,a4,586 # 8000c000 <etext>
    80002dbe:	800007b7          	lui	a5,0x80000
    80002dc2:	00f70633          	add	a2,a4,a5
    80002dc6:	4729                	li	a4,10
    80002dc8:	4785                	li	a5,1
    80002dca:	01f79693          	slli	a3,a5,0x1f
    80002dce:	4785                	li	a5,1
    80002dd0:	01f79593          	slli	a1,a5,0x1f
    80002dd4:	fe843503          	ld	a0,-24(s0)
    80002dd8:	fffff097          	auipc	ra,0xfffff
    80002ddc:	fea080e7          	jalr	-22(ra) # 80001dc2 <space_map>
    80002de0:	87aa                	mv	a5,a0
    80002de2:	c3d9                	beqz	a5,80002e68 <proc_pagetable+0x2c8>
    80002de4:	4681                	li	a3,0
    80002de6:	40000613          	li	a2,1024
    80002dea:	0c0005b7          	lui	a1,0xc000
    80002dee:	fe843503          	ld	a0,-24(s0)
    80002df2:	fffff097          	auipc	ra,0xfffff
    80002df6:	0c4080e7          	jalr	196(ra) # 80001eb6 <space_unmap>
    80002dfa:	4681                	li	a3,0
    80002dfc:	4605                	li	a2,1
    80002dfe:	100015b7          	lui	a1,0x10001
    80002e02:	fe843503          	ld	a0,-24(s0)
    80002e06:	fffff097          	auipc	ra,0xfffff
    80002e0a:	0b0080e7          	jalr	176(ra) # 80001eb6 <space_unmap>
    80002e0e:	4681                	li	a3,0
    80002e10:	4605                	li	a2,1
    80002e12:	100005b7          	lui	a1,0x10000
    80002e16:	fe843503          	ld	a0,-24(s0)
    80002e1a:	fffff097          	auipc	ra,0xfffff
    80002e1e:	09c080e7          	jalr	156(ra) # 80001eb6 <space_unmap>
    80002e22:	4681                	li	a3,0
    80002e24:	4605                	li	a2,1
    80002e26:	040007b7          	lui	a5,0x4000
    80002e2a:	17fd                	addi	a5,a5,-1 # 3ffffff <_entry-0x7c000001>
    80002e2c:	00c79593          	slli	a1,a5,0xc
    80002e30:	fe843503          	ld	a0,-24(s0)
    80002e34:	fffff097          	auipc	ra,0xfffff
    80002e38:	082080e7          	jalr	130(ra) # 80001eb6 <space_unmap>
    80002e3c:	4681                	li	a3,0
    80002e3e:	4605                	li	a2,1
    80002e40:	020007b7          	lui	a5,0x2000
    80002e44:	17fd                	addi	a5,a5,-1 # 1ffffff <_entry-0x7e000001>
    80002e46:	00d79593          	slli	a1,a5,0xd
    80002e4a:	fe843503          	ld	a0,-24(s0)
    80002e4e:	fffff097          	auipc	ra,0xfffff
    80002e52:	068080e7          	jalr	104(ra) # 80001eb6 <space_unmap>
    80002e56:	4581                	li	a1,0
    80002e58:	fe843503          	ld	a0,-24(s0)
    80002e5c:	fffff097          	auipc	ra,0xfffff
    80002e60:	458080e7          	jalr	1112(ra) # 800022b4 <uvmfree>
    80002e64:	4781                	li	a5,0
    80002e66:	a0d5                	j	80002f4a <proc_pagetable+0x3aa>
    80002e68:	00009597          	auipc	a1,0x9
    80002e6c:	19858593          	addi	a1,a1,408 # 8000c000 <etext>
    80002e70:	00009797          	auipc	a5,0x9
    80002e74:	19078793          	addi	a5,a5,400 # 8000c000 <etext>
    80002e78:	4745                	li	a4,17
    80002e7a:	076e                	slli	a4,a4,0x1b
    80002e7c:	40f707b3          	sub	a5,a4,a5
    80002e80:	00009697          	auipc	a3,0x9
    80002e84:	18068693          	addi	a3,a3,384 # 8000c000 <etext>
    80002e88:	4719                	li	a4,6
    80002e8a:	863e                	mv	a2,a5
    80002e8c:	fe843503          	ld	a0,-24(s0)
    80002e90:	fffff097          	auipc	ra,0xfffff
    80002e94:	f32080e7          	jalr	-206(ra) # 80001dc2 <space_map>
    80002e98:	87aa                	mv	a5,a0
    80002e9a:	c7d5                	beqz	a5,80002f46 <proc_pagetable+0x3a6>
    80002e9c:	00009717          	auipc	a4,0x9
    80002ea0:	16470713          	addi	a4,a4,356 # 8000c000 <etext>
    80002ea4:	800007b7          	lui	a5,0x80000
    80002ea8:	97ba                	add	a5,a5,a4
    80002eaa:	83b1                	srli	a5,a5,0xc
    80002eac:	4681                	li	a3,0
    80002eae:	863e                	mv	a2,a5
    80002eb0:	4785                	li	a5,1
    80002eb2:	01f79593          	slli	a1,a5,0x1f
    80002eb6:	fe843503          	ld	a0,-24(s0)
    80002eba:	fffff097          	auipc	ra,0xfffff
    80002ebe:	ffc080e7          	jalr	-4(ra) # 80001eb6 <space_unmap>
    80002ec2:	4681                	li	a3,0
    80002ec4:	40000613          	li	a2,1024
    80002ec8:	0c0005b7          	lui	a1,0xc000
    80002ecc:	fe843503          	ld	a0,-24(s0)
    80002ed0:	fffff097          	auipc	ra,0xfffff
    80002ed4:	fe6080e7          	jalr	-26(ra) # 80001eb6 <space_unmap>
    80002ed8:	4681                	li	a3,0
    80002eda:	4605                	li	a2,1
    80002edc:	100015b7          	lui	a1,0x10001
    80002ee0:	fe843503          	ld	a0,-24(s0)
    80002ee4:	fffff097          	auipc	ra,0xfffff
    80002ee8:	fd2080e7          	jalr	-46(ra) # 80001eb6 <space_unmap>
    80002eec:	4681                	li	a3,0
    80002eee:	4605                	li	a2,1
    80002ef0:	100005b7          	lui	a1,0x10000
    80002ef4:	fe843503          	ld	a0,-24(s0)
    80002ef8:	fffff097          	auipc	ra,0xfffff
    80002efc:	fbe080e7          	jalr	-66(ra) # 80001eb6 <space_unmap>
    80002f00:	4681                	li	a3,0
    80002f02:	4605                	li	a2,1
    80002f04:	040007b7          	lui	a5,0x4000
    80002f08:	17fd                	addi	a5,a5,-1 # 3ffffff <_entry-0x7c000001>
    80002f0a:	00c79593          	slli	a1,a5,0xc
    80002f0e:	fe843503          	ld	a0,-24(s0)
    80002f12:	fffff097          	auipc	ra,0xfffff
    80002f16:	fa4080e7          	jalr	-92(ra) # 80001eb6 <space_unmap>
    80002f1a:	4681                	li	a3,0
    80002f1c:	4605                	li	a2,1
    80002f1e:	020007b7          	lui	a5,0x2000
    80002f22:	17fd                	addi	a5,a5,-1 # 1ffffff <_entry-0x7e000001>
    80002f24:	00d79593          	slli	a1,a5,0xd
    80002f28:	fe843503          	ld	a0,-24(s0)
    80002f2c:	fffff097          	auipc	ra,0xfffff
    80002f30:	f8a080e7          	jalr	-118(ra) # 80001eb6 <space_unmap>
    80002f34:	4581                	li	a1,0
    80002f36:	fe843503          	ld	a0,-24(s0)
    80002f3a:	fffff097          	auipc	ra,0xfffff
    80002f3e:	37a080e7          	jalr	890(ra) # 800022b4 <uvmfree>
    80002f42:	4781                	li	a5,0
    80002f44:	a019                	j	80002f4a <proc_pagetable+0x3aa>
    80002f46:	fe843783          	ld	a5,-24(s0)
    80002f4a:	853e                	mv	a0,a5
    80002f4c:	70a2                	ld	ra,40(sp)
    80002f4e:	7402                	ld	s0,32(sp)
    80002f50:	6145                	addi	sp,sp,48
    80002f52:	8082                	ret

0000000080002f54 <proc_freepagetable>:
    80002f54:	1101                	addi	sp,sp,-32
    80002f56:	ec06                	sd	ra,24(sp)
    80002f58:	e822                	sd	s0,16(sp)
    80002f5a:	1000                	addi	s0,sp,32
    80002f5c:	fea43423          	sd	a0,-24(s0)
    80002f60:	feb43023          	sd	a1,-32(s0)
    80002f64:	4681                	li	a3,0
    80002f66:	4605                	li	a2,1
    80002f68:	040007b7          	lui	a5,0x4000
    80002f6c:	17fd                	addi	a5,a5,-1 # 3ffffff <_entry-0x7c000001>
    80002f6e:	00c79593          	slli	a1,a5,0xc
    80002f72:	fe843503          	ld	a0,-24(s0)
    80002f76:	fffff097          	auipc	ra,0xfffff
    80002f7a:	f40080e7          	jalr	-192(ra) # 80001eb6 <space_unmap>
    80002f7e:	4681                	li	a3,0
    80002f80:	4605                	li	a2,1
    80002f82:	020007b7          	lui	a5,0x2000
    80002f86:	17fd                	addi	a5,a5,-1 # 1ffffff <_entry-0x7e000001>
    80002f88:	00d79593          	slli	a1,a5,0xd
    80002f8c:	fe843503          	ld	a0,-24(s0)
    80002f90:	fffff097          	auipc	ra,0xfffff
    80002f94:	f26080e7          	jalr	-218(ra) # 80001eb6 <space_unmap>
    80002f98:	00009597          	auipc	a1,0x9
    80002f9c:	06858593          	addi	a1,a1,104 # 8000c000 <etext>
    80002fa0:	00009797          	auipc	a5,0x9
    80002fa4:	06078793          	addi	a5,a5,96 # 8000c000 <etext>
    80002fa8:	4745                	li	a4,17
    80002faa:	076e                	slli	a4,a4,0x1b
    80002fac:	40f707b3          	sub	a5,a4,a5
    80002fb0:	83b1                	srli	a5,a5,0xc
    80002fb2:	4681                	li	a3,0
    80002fb4:	863e                	mv	a2,a5
    80002fb6:	fe843503          	ld	a0,-24(s0)
    80002fba:	fffff097          	auipc	ra,0xfffff
    80002fbe:	efc080e7          	jalr	-260(ra) # 80001eb6 <space_unmap>
    80002fc2:	00009717          	auipc	a4,0x9
    80002fc6:	03e70713          	addi	a4,a4,62 # 8000c000 <etext>
    80002fca:	800007b7          	lui	a5,0x80000
    80002fce:	97ba                	add	a5,a5,a4
    80002fd0:	83b1                	srli	a5,a5,0xc
    80002fd2:	4681                	li	a3,0
    80002fd4:	863e                	mv	a2,a5
    80002fd6:	4785                	li	a5,1
    80002fd8:	01f79593          	slli	a1,a5,0x1f
    80002fdc:	fe843503          	ld	a0,-24(s0)
    80002fe0:	fffff097          	auipc	ra,0xfffff
    80002fe4:	ed6080e7          	jalr	-298(ra) # 80001eb6 <space_unmap>
    80002fe8:	4681                	li	a3,0
    80002fea:	40000613          	li	a2,1024
    80002fee:	0c0005b7          	lui	a1,0xc000
    80002ff2:	fe843503          	ld	a0,-24(s0)
    80002ff6:	fffff097          	auipc	ra,0xfffff
    80002ffa:	ec0080e7          	jalr	-320(ra) # 80001eb6 <space_unmap>
    80002ffe:	4681                	li	a3,0
    80003000:	4605                	li	a2,1
    80003002:	100015b7          	lui	a1,0x10001
    80003006:	fe843503          	ld	a0,-24(s0)
    8000300a:	fffff097          	auipc	ra,0xfffff
    8000300e:	eac080e7          	jalr	-340(ra) # 80001eb6 <space_unmap>
    80003012:	4681                	li	a3,0
    80003014:	4605                	li	a2,1
    80003016:	100005b7          	lui	a1,0x10000
    8000301a:	fe843503          	ld	a0,-24(s0)
    8000301e:	fffff097          	auipc	ra,0xfffff
    80003022:	e98080e7          	jalr	-360(ra) # 80001eb6 <space_unmap>
    80003026:	fe043583          	ld	a1,-32(s0)
    8000302a:	fe843503          	ld	a0,-24(s0)
    8000302e:	fffff097          	auipc	ra,0xfffff
    80003032:	286080e7          	jalr	646(ra) # 800022b4 <uvmfree>
    80003036:	0001                	nop
    80003038:	60e2                	ld	ra,24(sp)
    8000303a:	6442                	ld	s0,16(sp)
    8000303c:	6105                	addi	sp,sp,32
    8000303e:	8082                	ret

0000000080003040 <userinit>:
    80003040:	1101                	addi	sp,sp,-32
    80003042:	ec06                	sd	ra,24(sp)
    80003044:	e822                	sd	s0,16(sp)
    80003046:	1000                	addi	s0,sp,32
    80003048:	00000097          	auipc	ra,0x0
    8000304c:	9a4080e7          	jalr	-1628(ra) # 800029ec <allocproc>
    80003050:	fea43423          	sd	a0,-24(s0)
    80003054:	0000a797          	auipc	a5,0xa
    80003058:	fc478793          	addi	a5,a5,-60 # 8000d018 <initproc>
    8000305c:	fe843703          	ld	a4,-24(s0)
    80003060:	e398                	sd	a4,0(a5)
    80003062:	fe843783          	ld	a5,-24(s0)
    80003066:	6bbc                	ld	a5,80(a5)
    80003068:	03400613          	li	a2,52
    8000306c:	0000a597          	auipc	a1,0xa
    80003070:	81c58593          	addi	a1,a1,-2020 # 8000c888 <initcode>
    80003074:	853e                	mv	a0,a5
    80003076:	fffff097          	auipc	ra,0xfffff
    8000307a:	f7c080e7          	jalr	-132(ra) # 80001ff2 <uvminit>
    8000307e:	fe843783          	ld	a5,-24(s0)
    80003082:	6705                	lui	a4,0x1
    80003084:	e7b8                	sd	a4,72(a5)
    80003086:	fe843783          	ld	a5,-24(s0)
    8000308a:	6fbc                	ld	a5,88(a5)
    8000308c:	0007bc23          	sd	zero,24(a5)
    80003090:	fe843783          	ld	a5,-24(s0)
    80003094:	6fbc                	ld	a5,88(a5)
    80003096:	6705                	lui	a4,0x1
    80003098:	fb98                	sd	a4,48(a5)
    8000309a:	fe843783          	ld	a5,-24(s0)
    8000309e:	15878793          	addi	a5,a5,344
    800030a2:	4641                	li	a2,16
    800030a4:	00009597          	auipc	a1,0x9
    800030a8:	15458593          	addi	a1,a1,340 # 8000c1f8 <etext+0x1f8>
    800030ac:	853e                	mv	a0,a5
    800030ae:	ffffe097          	auipc	ra,0xffffe
    800030b2:	6ee080e7          	jalr	1774(ra) # 8000179c <safestrcpy>
    800030b6:	00009517          	auipc	a0,0x9
    800030ba:	15250513          	addi	a0,a0,338 # 8000c208 <etext+0x208>
    800030be:	00003097          	auipc	ra,0x3
    800030c2:	1aa080e7          	jalr	426(ra) # 80006268 <namei>
    800030c6:	872a                	mv	a4,a0
    800030c8:	fe843783          	ld	a5,-24(s0)
    800030cc:	14e7b823          	sd	a4,336(a5)
    800030d0:	fe843783          	ld	a5,-24(s0)
    800030d4:	4709                	li	a4,2
    800030d6:	cf98                	sw	a4,24(a5)
    800030d8:	fe843783          	ld	a5,-24(s0)
    800030dc:	853e                	mv	a0,a5
    800030de:	ffffe097          	auipc	ra,0xffffe
    800030e2:	258080e7          	jalr	600(ra) # 80001336 <release>
    800030e6:	0001                	nop
    800030e8:	60e2                	ld	ra,24(sp)
    800030ea:	6442                	ld	s0,16(sp)
    800030ec:	6105                	addi	sp,sp,32
    800030ee:	8082                	ret

00000000800030f0 <growproc>:
    800030f0:	7179                	addi	sp,sp,-48
    800030f2:	f406                	sd	ra,40(sp)
    800030f4:	f022                	sd	s0,32(sp)
    800030f6:	1800                	addi	s0,sp,48
    800030f8:	87aa                	mv	a5,a0
    800030fa:	fcf42e23          	sw	a5,-36(s0)
    800030fe:	00000097          	auipc	ra,0x0
    80003102:	854080e7          	jalr	-1964(ra) # 80002952 <myproc>
    80003106:	fea43023          	sd	a0,-32(s0)
    8000310a:	fe043783          	ld	a5,-32(s0)
    8000310e:	67bc                	ld	a5,72(a5)
    80003110:	fef42623          	sw	a5,-20(s0)
    80003114:	fdc42783          	lw	a5,-36(s0)
    80003118:	2781                	sext.w	a5,a5
    8000311a:	02f05f63          	blez	a5,80003158 <growproc+0x68>
    8000311e:	fe043783          	ld	a5,-32(s0)
    80003122:	6bb8                	ld	a4,80(a5)
    80003124:	fec46683          	lwu	a3,-20(s0)
    80003128:	fdc42783          	lw	a5,-36(s0)
    8000312c:	fec42603          	lw	a2,-20(s0)
    80003130:	9fb1                	addw	a5,a5,a2
    80003132:	2781                	sext.w	a5,a5
    80003134:	1782                	slli	a5,a5,0x20
    80003136:	9381                	srli	a5,a5,0x20
    80003138:	863e                	mv	a2,a5
    8000313a:	85b6                	mv	a1,a3
    8000313c:	853a                	mv	a0,a4
    8000313e:	fffff097          	auipc	ra,0xfffff
    80003142:	f3c080e7          	jalr	-196(ra) # 8000207a <uvmalloc>
    80003146:	87aa                	mv	a5,a0
    80003148:	fef42623          	sw	a5,-20(s0)
    8000314c:	fec42783          	lw	a5,-20(s0)
    80003150:	2781                	sext.w	a5,a5
    80003152:	ef9d                	bnez	a5,80003190 <growproc+0xa0>
    80003154:	57fd                	li	a5,-1
    80003156:	a099                	j	8000319c <growproc+0xac>
    80003158:	fdc42783          	lw	a5,-36(s0)
    8000315c:	2781                	sext.w	a5,a5
    8000315e:	0207d963          	bgez	a5,80003190 <growproc+0xa0>
    80003162:	fe043783          	ld	a5,-32(s0)
    80003166:	6bb8                	ld	a4,80(a5)
    80003168:	fec46683          	lwu	a3,-20(s0)
    8000316c:	fdc42783          	lw	a5,-36(s0)
    80003170:	fec42603          	lw	a2,-20(s0)
    80003174:	9fb1                	addw	a5,a5,a2
    80003176:	2781                	sext.w	a5,a5
    80003178:	1782                	slli	a5,a5,0x20
    8000317a:	9381                	srli	a5,a5,0x20
    8000317c:	863e                	mv	a2,a5
    8000317e:	85b6                	mv	a1,a3
    80003180:	853a                	mv	a0,a4
    80003182:	fffff097          	auipc	ra,0xfffff
    80003186:	fec080e7          	jalr	-20(ra) # 8000216e <uvmdealloc>
    8000318a:	87aa                	mv	a5,a0
    8000318c:	fef42623          	sw	a5,-20(s0)
    80003190:	fec46703          	lwu	a4,-20(s0)
    80003194:	fe043783          	ld	a5,-32(s0)
    80003198:	e7b8                	sd	a4,72(a5)
    8000319a:	4781                	li	a5,0
    8000319c:	853e                	mv	a0,a5
    8000319e:	70a2                	ld	ra,40(sp)
    800031a0:	7402                	ld	s0,32(sp)
    800031a2:	6145                	addi	sp,sp,48
    800031a4:	8082                	ret

00000000800031a6 <fork>:
    800031a6:	7179                	addi	sp,sp,-48
    800031a8:	f406                	sd	ra,40(sp)
    800031aa:	f022                	sd	s0,32(sp)
    800031ac:	1800                	addi	s0,sp,48
    800031ae:	fffff097          	auipc	ra,0xfffff
    800031b2:	7a4080e7          	jalr	1956(ra) # 80002952 <myproc>
    800031b6:	fea43023          	sd	a0,-32(s0)
    800031ba:	00000097          	auipc	ra,0x0
    800031be:	832080e7          	jalr	-1998(ra) # 800029ec <allocproc>
    800031c2:	fca43c23          	sd	a0,-40(s0)
    800031c6:	fd843783          	ld	a5,-40(s0)
    800031ca:	e399                	bnez	a5,800031d0 <fork+0x2a>
    800031cc:	57fd                	li	a5,-1
    800031ce:	a281                	j	8000330e <fork+0x168>
    800031d0:	fe043783          	ld	a5,-32(s0)
    800031d4:	6bb8                	ld	a4,80(a5)
    800031d6:	fd843783          	ld	a5,-40(s0)
    800031da:	6bb4                	ld	a3,80(a5)
    800031dc:	fe043783          	ld	a5,-32(s0)
    800031e0:	67bc                	ld	a5,72(a5)
    800031e2:	863e                	mv	a2,a5
    800031e4:	85b6                	mv	a1,a3
    800031e6:	853a                	mv	a0,a4
    800031e8:	fffff097          	auipc	ra,0xfffff
    800031ec:	116080e7          	jalr	278(ra) # 800022fe <uvmcopy>
    800031f0:	87aa                	mv	a5,a0
    800031f2:	0207d163          	bgez	a5,80003214 <fork+0x6e>
    800031f6:	fd843503          	ld	a0,-40(s0)
    800031fa:	00000097          	auipc	ra,0x0
    800031fe:	908080e7          	jalr	-1784(ra) # 80002b02 <freeproc>
    80003202:	fd843783          	ld	a5,-40(s0)
    80003206:	853e                	mv	a0,a5
    80003208:	ffffe097          	auipc	ra,0xffffe
    8000320c:	12e080e7          	jalr	302(ra) # 80001336 <release>
    80003210:	57fd                	li	a5,-1
    80003212:	a8f5                	j	8000330e <fork+0x168>
    80003214:	fe043783          	ld	a5,-32(s0)
    80003218:	67b8                	ld	a4,72(a5)
    8000321a:	fd843783          	ld	a5,-40(s0)
    8000321e:	e7b8                	sd	a4,72(a5)
    80003220:	fd843783          	ld	a5,-40(s0)
    80003224:	fe043703          	ld	a4,-32(s0)
    80003228:	f398                	sd	a4,32(a5)
    8000322a:	fe043783          	ld	a5,-32(s0)
    8000322e:	6fb8                	ld	a4,88(a5)
    80003230:	fd843783          	ld	a5,-40(s0)
    80003234:	6fbc                	ld	a5,88(a5)
    80003236:	86be                	mv	a3,a5
    80003238:	12000793          	li	a5,288
    8000323c:	863e                	mv	a2,a5
    8000323e:	85ba                	mv	a1,a4
    80003240:	8536                	mv	a0,a3
    80003242:	ffffe097          	auipc	ra,0xffffe
    80003246:	416080e7          	jalr	1046(ra) # 80001658 <memcpy>
    8000324a:	fd843783          	ld	a5,-40(s0)
    8000324e:	6fbc                	ld	a5,88(a5)
    80003250:	0607b823          	sd	zero,112(a5)
    80003254:	fe042623          	sw	zero,-20(s0)
    80003258:	a0a9                	j	800032a2 <fork+0xfc>
    8000325a:	fe043703          	ld	a4,-32(s0)
    8000325e:	fec42783          	lw	a5,-20(s0)
    80003262:	07e9                	addi	a5,a5,26
    80003264:	078e                	slli	a5,a5,0x3
    80003266:	97ba                	add	a5,a5,a4
    80003268:	639c                	ld	a5,0(a5)
    8000326a:	c79d                	beqz	a5,80003298 <fork+0xf2>
    8000326c:	fe043703          	ld	a4,-32(s0)
    80003270:	fec42783          	lw	a5,-20(s0)
    80003274:	07e9                	addi	a5,a5,26
    80003276:	078e                	slli	a5,a5,0x3
    80003278:	97ba                	add	a5,a5,a4
    8000327a:	639c                	ld	a5,0(a5)
    8000327c:	853e                	mv	a0,a5
    8000327e:	00004097          	auipc	ra,0x4
    80003282:	970080e7          	jalr	-1680(ra) # 80006bee <filedup>
    80003286:	86aa                	mv	a3,a0
    80003288:	fd843703          	ld	a4,-40(s0)
    8000328c:	fec42783          	lw	a5,-20(s0)
    80003290:	07e9                	addi	a5,a5,26
    80003292:	078e                	slli	a5,a5,0x3
    80003294:	97ba                	add	a5,a5,a4
    80003296:	e394                	sd	a3,0(a5)
    80003298:	fec42783          	lw	a5,-20(s0)
    8000329c:	2785                	addiw	a5,a5,1
    8000329e:	fef42623          	sw	a5,-20(s0)
    800032a2:	fec42783          	lw	a5,-20(s0)
    800032a6:	0007871b          	sext.w	a4,a5
    800032aa:	47bd                	li	a5,15
    800032ac:	fae7d7e3          	bge	a5,a4,8000325a <fork+0xb4>
    800032b0:	fe043783          	ld	a5,-32(s0)
    800032b4:	1507b783          	ld	a5,336(a5)
    800032b8:	853e                	mv	a0,a5
    800032ba:	00002097          	auipc	ra,0x2
    800032be:	260080e7          	jalr	608(ra) # 8000551a <idup>
    800032c2:	872a                	mv	a4,a0
    800032c4:	fd843783          	ld	a5,-40(s0)
    800032c8:	14e7b823          	sd	a4,336(a5)
    800032cc:	fd843783          	ld	a5,-40(s0)
    800032d0:	15878713          	addi	a4,a5,344
    800032d4:	fe043783          	ld	a5,-32(s0)
    800032d8:	15878793          	addi	a5,a5,344
    800032dc:	4641                	li	a2,16
    800032de:	85be                	mv	a1,a5
    800032e0:	853a                	mv	a0,a4
    800032e2:	ffffe097          	auipc	ra,0xffffe
    800032e6:	4ba080e7          	jalr	1210(ra) # 8000179c <safestrcpy>
    800032ea:	fd843783          	ld	a5,-40(s0)
    800032ee:	5f9c                	lw	a5,56(a5)
    800032f0:	fcf42a23          	sw	a5,-44(s0)
    800032f4:	fd843783          	ld	a5,-40(s0)
    800032f8:	4709                	li	a4,2
    800032fa:	cf98                	sw	a4,24(a5)
    800032fc:	fd843783          	ld	a5,-40(s0)
    80003300:	853e                	mv	a0,a5
    80003302:	ffffe097          	auipc	ra,0xffffe
    80003306:	034080e7          	jalr	52(ra) # 80001336 <release>
    8000330a:	fd442783          	lw	a5,-44(s0)
    8000330e:	853e                	mv	a0,a5
    80003310:	70a2                	ld	ra,40(sp)
    80003312:	7402                	ld	s0,32(sp)
    80003314:	6145                	addi	sp,sp,48
    80003316:	8082                	ret

0000000080003318 <reparent>:
    80003318:	7179                	addi	sp,sp,-48
    8000331a:	f406                	sd	ra,40(sp)
    8000331c:	f022                	sd	s0,32(sp)
    8000331e:	1800                	addi	s0,sp,48
    80003320:	fca43c23          	sd	a0,-40(s0)
    80003324:	00013797          	auipc	a5,0x13
    80003328:	a3478793          	addi	a5,a5,-1484 # 80015d58 <proc>
    8000332c:	fef43423          	sd	a5,-24(s0)
    80003330:	a0a1                	j	80003378 <reparent+0x60>
    80003332:	fe843783          	ld	a5,-24(s0)
    80003336:	739c                	ld	a5,32(a5)
    80003338:	fd843703          	ld	a4,-40(s0)
    8000333c:	02f71863          	bne	a4,a5,8000336c <reparent+0x54>
    80003340:	fe843783          	ld	a5,-24(s0)
    80003344:	853e                	mv	a0,a5
    80003346:	ffffe097          	auipc	ra,0xffffe
    8000334a:	f8c080e7          	jalr	-116(ra) # 800012d2 <acquire>
    8000334e:	0000a797          	auipc	a5,0xa
    80003352:	cca78793          	addi	a5,a5,-822 # 8000d018 <initproc>
    80003356:	6398                	ld	a4,0(a5)
    80003358:	fe843783          	ld	a5,-24(s0)
    8000335c:	f398                	sd	a4,32(a5)
    8000335e:	fe843783          	ld	a5,-24(s0)
    80003362:	853e                	mv	a0,a5
    80003364:	ffffe097          	auipc	ra,0xffffe
    80003368:	fd2080e7          	jalr	-46(ra) # 80001336 <release>
    8000336c:	fe843783          	ld	a5,-24(s0)
    80003370:	16878793          	addi	a5,a5,360
    80003374:	fef43423          	sd	a5,-24(s0)
    80003378:	fe843703          	ld	a4,-24(s0)
    8000337c:	00018797          	auipc	a5,0x18
    80003380:	3dc78793          	addi	a5,a5,988 # 8001b758 <pid_lock>
    80003384:	faf767e3          	bltu	a4,a5,80003332 <reparent+0x1a>
    80003388:	0001                	nop
    8000338a:	0001                	nop
    8000338c:	70a2                	ld	ra,40(sp)
    8000338e:	7402                	ld	s0,32(sp)
    80003390:	6145                	addi	sp,sp,48
    80003392:	8082                	ret

0000000080003394 <exit>:
    80003394:	7139                	addi	sp,sp,-64
    80003396:	fc06                	sd	ra,56(sp)
    80003398:	f822                	sd	s0,48(sp)
    8000339a:	0080                	addi	s0,sp,64
    8000339c:	87aa                	mv	a5,a0
    8000339e:	fcf42623          	sw	a5,-52(s0)
    800033a2:	fffff097          	auipc	ra,0xfffff
    800033a6:	5b0080e7          	jalr	1456(ra) # 80002952 <myproc>
    800033aa:	fea43023          	sd	a0,-32(s0)
    800033ae:	0000a797          	auipc	a5,0xa
    800033b2:	c6a78793          	addi	a5,a5,-918 # 8000d018 <initproc>
    800033b6:	639c                	ld	a5,0(a5)
    800033b8:	fe043703          	ld	a4,-32(s0)
    800033bc:	00f71a63          	bne	a4,a5,800033d0 <exit+0x3c>
    800033c0:	00009517          	auipc	a0,0x9
    800033c4:	e5050513          	addi	a0,a0,-432 # 8000c210 <etext+0x210>
    800033c8:	ffffe097          	auipc	ra,0xffffe
    800033cc:	8d6080e7          	jalr	-1834(ra) # 80000c9e <panic>
    800033d0:	fe042623          	sw	zero,-20(s0)
    800033d4:	a881                	j	80003424 <exit+0x90>
    800033d6:	fe043703          	ld	a4,-32(s0)
    800033da:	fec42783          	lw	a5,-20(s0)
    800033de:	07e9                	addi	a5,a5,26
    800033e0:	078e                	slli	a5,a5,0x3
    800033e2:	97ba                	add	a5,a5,a4
    800033e4:	639c                	ld	a5,0(a5)
    800033e6:	cb95                	beqz	a5,8000341a <exit+0x86>
    800033e8:	fe043703          	ld	a4,-32(s0)
    800033ec:	fec42783          	lw	a5,-20(s0)
    800033f0:	07e9                	addi	a5,a5,26
    800033f2:	078e                	slli	a5,a5,0x3
    800033f4:	97ba                	add	a5,a5,a4
    800033f6:	639c                	ld	a5,0(a5)
    800033f8:	fcf43823          	sd	a5,-48(s0)
    800033fc:	fd043503          	ld	a0,-48(s0)
    80003400:	00004097          	auipc	ra,0x4
    80003404:	854080e7          	jalr	-1964(ra) # 80006c54 <fileclose>
    80003408:	fe043703          	ld	a4,-32(s0)
    8000340c:	fec42783          	lw	a5,-20(s0)
    80003410:	07e9                	addi	a5,a5,26
    80003412:	078e                	slli	a5,a5,0x3
    80003414:	97ba                	add	a5,a5,a4
    80003416:	0007b023          	sd	zero,0(a5)
    8000341a:	fec42783          	lw	a5,-20(s0)
    8000341e:	2785                	addiw	a5,a5,1
    80003420:	fef42623          	sw	a5,-20(s0)
    80003424:	fec42783          	lw	a5,-20(s0)
    80003428:	0007871b          	sext.w	a4,a5
    8000342c:	47bd                	li	a5,15
    8000342e:	fae7d4e3          	bge	a5,a4,800033d6 <exit+0x42>
    80003432:	00003097          	auipc	ra,0x3
    80003436:	18a080e7          	jalr	394(ra) # 800065bc <begin_op>
    8000343a:	fe043783          	ld	a5,-32(s0)
    8000343e:	1507b783          	ld	a5,336(a5)
    80003442:	853e                	mv	a0,a5
    80003444:	00002097          	auipc	ra,0x2
    80003448:	2b0080e7          	jalr	688(ra) # 800056f4 <iput>
    8000344c:	00003097          	auipc	ra,0x3
    80003450:	232080e7          	jalr	562(ra) # 8000667e <end_op>
    80003454:	fe043783          	ld	a5,-32(s0)
    80003458:	1407b823          	sd	zero,336(a5)
    8000345c:	0000a797          	auipc	a5,0xa
    80003460:	bbc78793          	addi	a5,a5,-1092 # 8000d018 <initproc>
    80003464:	639c                	ld	a5,0(a5)
    80003466:	853e                	mv	a0,a5
    80003468:	ffffe097          	auipc	ra,0xffffe
    8000346c:	e6a080e7          	jalr	-406(ra) # 800012d2 <acquire>
    80003470:	0000a797          	auipc	a5,0xa
    80003474:	ba878793          	addi	a5,a5,-1112 # 8000d018 <initproc>
    80003478:	639c                	ld	a5,0(a5)
    8000347a:	853e                	mv	a0,a5
    8000347c:	00000097          	auipc	ra,0x0
    80003480:	5ac080e7          	jalr	1452(ra) # 80003a28 <wakeup1>
    80003484:	0000a797          	auipc	a5,0xa
    80003488:	b9478793          	addi	a5,a5,-1132 # 8000d018 <initproc>
    8000348c:	639c                	ld	a5,0(a5)
    8000348e:	853e                	mv	a0,a5
    80003490:	ffffe097          	auipc	ra,0xffffe
    80003494:	ea6080e7          	jalr	-346(ra) # 80001336 <release>
    80003498:	fe043783          	ld	a5,-32(s0)
    8000349c:	853e                	mv	a0,a5
    8000349e:	ffffe097          	auipc	ra,0xffffe
    800034a2:	e34080e7          	jalr	-460(ra) # 800012d2 <acquire>
    800034a6:	fe043783          	ld	a5,-32(s0)
    800034aa:	739c                	ld	a5,32(a5)
    800034ac:	fcf43c23          	sd	a5,-40(s0)
    800034b0:	fe043783          	ld	a5,-32(s0)
    800034b4:	853e                	mv	a0,a5
    800034b6:	ffffe097          	auipc	ra,0xffffe
    800034ba:	e80080e7          	jalr	-384(ra) # 80001336 <release>
    800034be:	fd843783          	ld	a5,-40(s0)
    800034c2:	853e                	mv	a0,a5
    800034c4:	ffffe097          	auipc	ra,0xffffe
    800034c8:	e0e080e7          	jalr	-498(ra) # 800012d2 <acquire>
    800034cc:	fe043783          	ld	a5,-32(s0)
    800034d0:	853e                	mv	a0,a5
    800034d2:	ffffe097          	auipc	ra,0xffffe
    800034d6:	e00080e7          	jalr	-512(ra) # 800012d2 <acquire>
    800034da:	fe043503          	ld	a0,-32(s0)
    800034de:	00000097          	auipc	ra,0x0
    800034e2:	e3a080e7          	jalr	-454(ra) # 80003318 <reparent>
    800034e6:	fd843503          	ld	a0,-40(s0)
    800034ea:	00000097          	auipc	ra,0x0
    800034ee:	53e080e7          	jalr	1342(ra) # 80003a28 <wakeup1>
    800034f2:	fe043783          	ld	a5,-32(s0)
    800034f6:	fcc42703          	lw	a4,-52(s0)
    800034fa:	dbd8                	sw	a4,52(a5)
    800034fc:	fe043783          	ld	a5,-32(s0)
    80003500:	4711                	li	a4,4
    80003502:	cf98                	sw	a4,24(a5)
    80003504:	fd843783          	ld	a5,-40(s0)
    80003508:	853e                	mv	a0,a5
    8000350a:	ffffe097          	auipc	ra,0xffffe
    8000350e:	e2c080e7          	jalr	-468(ra) # 80001336 <release>
    80003512:	00000097          	auipc	ra,0x0
    80003516:	25e080e7          	jalr	606(ra) # 80003770 <sched>
    8000351a:	00009517          	auipc	a0,0x9
    8000351e:	d0650513          	addi	a0,a0,-762 # 8000c220 <etext+0x220>
    80003522:	ffffd097          	auipc	ra,0xffffd
    80003526:	77c080e7          	jalr	1916(ra) # 80000c9e <panic>

000000008000352a <wait>:
    8000352a:	7139                	addi	sp,sp,-64
    8000352c:	fc06                	sd	ra,56(sp)
    8000352e:	f822                	sd	s0,48(sp)
    80003530:	0080                	addi	s0,sp,64
    80003532:	fca43423          	sd	a0,-56(s0)
    80003536:	fffff097          	auipc	ra,0xfffff
    8000353a:	41c080e7          	jalr	1052(ra) # 80002952 <myproc>
    8000353e:	fca43c23          	sd	a0,-40(s0)
    80003542:	fd843783          	ld	a5,-40(s0)
    80003546:	853e                	mv	a0,a5
    80003548:	ffffe097          	auipc	ra,0xffffe
    8000354c:	d8a080e7          	jalr	-630(ra) # 800012d2 <acquire>
    80003550:	fe042223          	sw	zero,-28(s0)
    80003554:	00013797          	auipc	a5,0x13
    80003558:	80478793          	addi	a5,a5,-2044 # 80015d58 <proc>
    8000355c:	fef43423          	sd	a5,-24(s0)
    80003560:	a8c1                	j	80003630 <wait+0x106>
    80003562:	fe843783          	ld	a5,-24(s0)
    80003566:	739c                	ld	a5,32(a5)
    80003568:	fd843703          	ld	a4,-40(s0)
    8000356c:	0af71c63          	bne	a4,a5,80003624 <wait+0xfa>
    80003570:	fe843783          	ld	a5,-24(s0)
    80003574:	853e                	mv	a0,a5
    80003576:	ffffe097          	auipc	ra,0xffffe
    8000357a:	d5c080e7          	jalr	-676(ra) # 800012d2 <acquire>
    8000357e:	4785                	li	a5,1
    80003580:	fef42223          	sw	a5,-28(s0)
    80003584:	fe843783          	ld	a5,-24(s0)
    80003588:	4f9c                	lw	a5,24(a5)
    8000358a:	873e                	mv	a4,a5
    8000358c:	4791                	li	a5,4
    8000358e:	08f71463          	bne	a4,a5,80003616 <wait+0xec>
    80003592:	fe843783          	ld	a5,-24(s0)
    80003596:	5f9c                	lw	a5,56(a5)
    80003598:	fcf42a23          	sw	a5,-44(s0)
    8000359c:	fc843783          	ld	a5,-56(s0)
    800035a0:	c7a1                	beqz	a5,800035e8 <wait+0xbe>
    800035a2:	fd843783          	ld	a5,-40(s0)
    800035a6:	6bb8                	ld	a4,80(a5)
    800035a8:	fe843783          	ld	a5,-24(s0)
    800035ac:	03478793          	addi	a5,a5,52
    800035b0:	4691                	li	a3,4
    800035b2:	863e                	mv	a2,a5
    800035b4:	fc843583          	ld	a1,-56(s0)
    800035b8:	853a                	mv	a0,a4
    800035ba:	fffff097          	auipc	ra,0xfffff
    800035be:	eae080e7          	jalr	-338(ra) # 80002468 <copyout>
    800035c2:	87aa                	mv	a5,a0
    800035c4:	0207d263          	bgez	a5,800035e8 <wait+0xbe>
    800035c8:	fe843783          	ld	a5,-24(s0)
    800035cc:	853e                	mv	a0,a5
    800035ce:	ffffe097          	auipc	ra,0xffffe
    800035d2:	d68080e7          	jalr	-664(ra) # 80001336 <release>
    800035d6:	fd843783          	ld	a5,-40(s0)
    800035da:	853e                	mv	a0,a5
    800035dc:	ffffe097          	auipc	ra,0xffffe
    800035e0:	d5a080e7          	jalr	-678(ra) # 80001336 <release>
    800035e4:	57fd                	li	a5,-1
    800035e6:	a841                	j	80003676 <wait+0x14c>
    800035e8:	fe843503          	ld	a0,-24(s0)
    800035ec:	fffff097          	auipc	ra,0xfffff
    800035f0:	516080e7          	jalr	1302(ra) # 80002b02 <freeproc>
    800035f4:	fe843783          	ld	a5,-24(s0)
    800035f8:	853e                	mv	a0,a5
    800035fa:	ffffe097          	auipc	ra,0xffffe
    800035fe:	d3c080e7          	jalr	-708(ra) # 80001336 <release>
    80003602:	fd843783          	ld	a5,-40(s0)
    80003606:	853e                	mv	a0,a5
    80003608:	ffffe097          	auipc	ra,0xffffe
    8000360c:	d2e080e7          	jalr	-722(ra) # 80001336 <release>
    80003610:	fd442783          	lw	a5,-44(s0)
    80003614:	a08d                	j	80003676 <wait+0x14c>
    80003616:	fe843783          	ld	a5,-24(s0)
    8000361a:	853e                	mv	a0,a5
    8000361c:	ffffe097          	auipc	ra,0xffffe
    80003620:	d1a080e7          	jalr	-742(ra) # 80001336 <release>
    80003624:	fe843783          	ld	a5,-24(s0)
    80003628:	16878793          	addi	a5,a5,360
    8000362c:	fef43423          	sd	a5,-24(s0)
    80003630:	fe843703          	ld	a4,-24(s0)
    80003634:	00018797          	auipc	a5,0x18
    80003638:	12478793          	addi	a5,a5,292 # 8001b758 <pid_lock>
    8000363c:	f2f763e3          	bltu	a4,a5,80003562 <wait+0x38>
    80003640:	fe442783          	lw	a5,-28(s0)
    80003644:	2781                	sext.w	a5,a5
    80003646:	c789                	beqz	a5,80003650 <wait+0x126>
    80003648:	fd843783          	ld	a5,-40(s0)
    8000364c:	5b9c                	lw	a5,48(a5)
    8000364e:	cb91                	beqz	a5,80003662 <wait+0x138>
    80003650:	fd843783          	ld	a5,-40(s0)
    80003654:	853e                	mv	a0,a5
    80003656:	ffffe097          	auipc	ra,0xffffe
    8000365a:	ce0080e7          	jalr	-800(ra) # 80001336 <release>
    8000365e:	57fd                	li	a5,-1
    80003660:	a819                	j	80003676 <wait+0x14c>
    80003662:	fd843783          	ld	a5,-40(s0)
    80003666:	85be                	mv	a1,a5
    80003668:	fd843503          	ld	a0,-40(s0)
    8000366c:	00000097          	auipc	ra,0x0
    80003670:	2a6080e7          	jalr	678(ra) # 80003912 <sleep>
    80003674:	bdf1                	j	80003550 <wait+0x26>
    80003676:	853e                	mv	a0,a5
    80003678:	70e2                	ld	ra,56(sp)
    8000367a:	7442                	ld	s0,48(sp)
    8000367c:	6121                	addi	sp,sp,64
    8000367e:	8082                	ret

0000000080003680 <scheduler>:
    80003680:	7179                	addi	sp,sp,-48
    80003682:	f406                	sd	ra,40(sp)
    80003684:	f022                	sd	s0,32(sp)
    80003686:	1800                	addi	s0,sp,48
    80003688:	fffff097          	auipc	ra,0xfffff
    8000368c:	290080e7          	jalr	656(ra) # 80002918 <mycpu>
    80003690:	fca43c23          	sd	a0,-40(s0)
    80003694:	fd843783          	ld	a5,-40(s0)
    80003698:	0007b023          	sd	zero,0(a5)
    8000369c:	fffff097          	auipc	ra,0xfffff
    800036a0:	138080e7          	jalr	312(ra) # 800027d4 <intr_on>
    800036a4:	fe042223          	sw	zero,-28(s0)
    800036a8:	00012797          	auipc	a5,0x12
    800036ac:	6b078793          	addi	a5,a5,1712 # 80015d58 <proc>
    800036b0:	fef43423          	sd	a5,-24(s0)
    800036b4:	a859                	j	8000374a <scheduler+0xca>
    800036b6:	fe843783          	ld	a5,-24(s0)
    800036ba:	853e                	mv	a0,a5
    800036bc:	ffffe097          	auipc	ra,0xffffe
    800036c0:	c16080e7          	jalr	-1002(ra) # 800012d2 <acquire>
    800036c4:	fe843783          	ld	a5,-24(s0)
    800036c8:	4f9c                	lw	a5,24(a5)
    800036ca:	873e                	mv	a4,a5
    800036cc:	4789                	li	a5,2
    800036ce:	06f71163          	bne	a4,a5,80003730 <scheduler+0xb0>
    800036d2:	fe843783          	ld	a5,-24(s0)
    800036d6:	470d                	li	a4,3
    800036d8:	cf98                	sw	a4,24(a5)
    800036da:	fd843783          	ld	a5,-40(s0)
    800036de:	fe843703          	ld	a4,-24(s0)
    800036e2:	e398                	sd	a4,0(a5)
    800036e4:	fe843783          	ld	a5,-24(s0)
    800036e8:	6bbc                	ld	a5,80(a5)
    800036ea:	00c7d713          	srli	a4,a5,0xc
    800036ee:	57fd                	li	a5,-1
    800036f0:	17fe                	slli	a5,a5,0x3f
    800036f2:	8fd9                	or	a5,a5,a4
    800036f4:	853e                	mv	a0,a5
    800036f6:	fffff097          	auipc	ra,0xfffff
    800036fa:	0c4080e7          	jalr	196(ra) # 800027ba <w_satp>
    800036fe:	fffff097          	auipc	ra,0xfffff
    80003702:	146080e7          	jalr	326(ra) # 80002844 <sfence_vma>
    80003706:	fd843783          	ld	a5,-40(s0)
    8000370a:	00878713          	addi	a4,a5,8
    8000370e:	fe843783          	ld	a5,-24(s0)
    80003712:	06078793          	addi	a5,a5,96
    80003716:	85be                	mv	a1,a5
    80003718:	853a                	mv	a0,a4
    8000371a:	00000097          	auipc	ra,0x0
    8000371e:	5d4080e7          	jalr	1492(ra) # 80003cee <swtch>
    80003722:	fd843783          	ld	a5,-40(s0)
    80003726:	0007b023          	sd	zero,0(a5)
    8000372a:	4785                	li	a5,1
    8000372c:	fef42223          	sw	a5,-28(s0)
    80003730:	fe843783          	ld	a5,-24(s0)
    80003734:	853e                	mv	a0,a5
    80003736:	ffffe097          	auipc	ra,0xffffe
    8000373a:	c00080e7          	jalr	-1024(ra) # 80001336 <release>
    8000373e:	fe843783          	ld	a5,-24(s0)
    80003742:	16878793          	addi	a5,a5,360
    80003746:	fef43423          	sd	a5,-24(s0)
    8000374a:	fe843703          	ld	a4,-24(s0)
    8000374e:	00018797          	auipc	a5,0x18
    80003752:	00a78793          	addi	a5,a5,10 # 8001b758 <pid_lock>
    80003756:	f6f760e3          	bltu	a4,a5,800036b6 <scheduler+0x36>
    8000375a:	fe442783          	lw	a5,-28(s0)
    8000375e:	2781                	sext.w	a5,a5
    80003760:	ff95                	bnez	a5,8000369c <scheduler+0x1c>
    80003762:	fffff097          	auipc	ra,0xfffff
    80003766:	072080e7          	jalr	114(ra) # 800027d4 <intr_on>
    8000376a:	10500073          	wfi
    8000376e:	b73d                	j	8000369c <scheduler+0x1c>

0000000080003770 <sched>:
    80003770:	7179                	addi	sp,sp,-48
    80003772:	f406                	sd	ra,40(sp)
    80003774:	f022                	sd	s0,32(sp)
    80003776:	ec26                	sd	s1,24(sp)
    80003778:	1800                	addi	s0,sp,48
    8000377a:	fffff097          	auipc	ra,0xfffff
    8000377e:	1d8080e7          	jalr	472(ra) # 80002952 <myproc>
    80003782:	fca43c23          	sd	a0,-40(s0)
    80003786:	fd843783          	ld	a5,-40(s0)
    8000378a:	853e                	mv	a0,a5
    8000378c:	ffffe097          	auipc	ra,0xffffe
    80003790:	c00080e7          	jalr	-1024(ra) # 8000138c <holding>
    80003794:	87aa                	mv	a5,a0
    80003796:	eb89                	bnez	a5,800037a8 <sched+0x38>
    80003798:	00009517          	auipc	a0,0x9
    8000379c:	a9850513          	addi	a0,a0,-1384 # 8000c230 <etext+0x230>
    800037a0:	ffffd097          	auipc	ra,0xffffd
    800037a4:	4fe080e7          	jalr	1278(ra) # 80000c9e <panic>
    800037a8:	fffff097          	auipc	ra,0xfffff
    800037ac:	170080e7          	jalr	368(ra) # 80002918 <mycpu>
    800037b0:	87aa                	mv	a5,a0
    800037b2:	5fbc                	lw	a5,120(a5)
    800037b4:	873e                	mv	a4,a5
    800037b6:	4785                	li	a5,1
    800037b8:	00f70a63          	beq	a4,a5,800037cc <sched+0x5c>
    800037bc:	00009517          	auipc	a0,0x9
    800037c0:	a8450513          	addi	a0,a0,-1404 # 8000c240 <etext+0x240>
    800037c4:	ffffd097          	auipc	ra,0xffffd
    800037c8:	4da080e7          	jalr	1242(ra) # 80000c9e <panic>
    800037cc:	fd843783          	ld	a5,-40(s0)
    800037d0:	4f9c                	lw	a5,24(a5)
    800037d2:	873e                	mv	a4,a5
    800037d4:	478d                	li	a5,3
    800037d6:	00f71a63          	bne	a4,a5,800037ea <sched+0x7a>
    800037da:	00009517          	auipc	a0,0x9
    800037de:	a7650513          	addi	a0,a0,-1418 # 8000c250 <etext+0x250>
    800037e2:	ffffd097          	auipc	ra,0xffffd
    800037e6:	4bc080e7          	jalr	1212(ra) # 80000c9e <panic>
    800037ea:	fffff097          	auipc	ra,0xfffff
    800037ee:	014080e7          	jalr	20(ra) # 800027fe <intr_get>
    800037f2:	87aa                	mv	a5,a0
    800037f4:	cb89                	beqz	a5,80003806 <sched+0x96>
    800037f6:	00009517          	auipc	a0,0x9
    800037fa:	a6a50513          	addi	a0,a0,-1430 # 8000c260 <etext+0x260>
    800037fe:	ffffd097          	auipc	ra,0xffffd
    80003802:	4a0080e7          	jalr	1184(ra) # 80000c9e <panic>
    80003806:	fffff097          	auipc	ra,0xfffff
    8000380a:	112080e7          	jalr	274(ra) # 80002918 <mycpu>
    8000380e:	87aa                	mv	a5,a0
    80003810:	5ffc                	lw	a5,124(a5)
    80003812:	fcf42a23          	sw	a5,-44(s0)
    80003816:	00009797          	auipc	a5,0x9
    8000381a:	7fa78793          	addi	a5,a5,2042 # 8000d010 <g_space>
    8000381e:	639c                	ld	a5,0(a5)
    80003820:	00c7d713          	srli	a4,a5,0xc
    80003824:	57fd                	li	a5,-1
    80003826:	17fe                	slli	a5,a5,0x3f
    80003828:	8fd9                	or	a5,a5,a4
    8000382a:	853e                	mv	a0,a5
    8000382c:	fffff097          	auipc	ra,0xfffff
    80003830:	f8e080e7          	jalr	-114(ra) # 800027ba <w_satp>
    80003834:	fffff097          	auipc	ra,0xfffff
    80003838:	010080e7          	jalr	16(ra) # 80002844 <sfence_vma>
    8000383c:	fd843783          	ld	a5,-40(s0)
    80003840:	06078493          	addi	s1,a5,96
    80003844:	fffff097          	auipc	ra,0xfffff
    80003848:	0d4080e7          	jalr	212(ra) # 80002918 <mycpu>
    8000384c:	87aa                	mv	a5,a0
    8000384e:	07a1                	addi	a5,a5,8
    80003850:	85be                	mv	a1,a5
    80003852:	8526                	mv	a0,s1
    80003854:	00000097          	auipc	ra,0x0
    80003858:	49a080e7          	jalr	1178(ra) # 80003cee <swtch>
    8000385c:	fffff097          	auipc	ra,0xfffff
    80003860:	0bc080e7          	jalr	188(ra) # 80002918 <mycpu>
    80003864:	872a                	mv	a4,a0
    80003866:	fd442783          	lw	a5,-44(s0)
    8000386a:	df7c                	sw	a5,124(a4)
    8000386c:	0001                	nop
    8000386e:	70a2                	ld	ra,40(sp)
    80003870:	7402                	ld	s0,32(sp)
    80003872:	64e2                	ld	s1,24(sp)
    80003874:	6145                	addi	sp,sp,48
    80003876:	8082                	ret

0000000080003878 <yield>:
    80003878:	1101                	addi	sp,sp,-32
    8000387a:	ec06                	sd	ra,24(sp)
    8000387c:	e822                	sd	s0,16(sp)
    8000387e:	1000                	addi	s0,sp,32
    80003880:	fffff097          	auipc	ra,0xfffff
    80003884:	0d2080e7          	jalr	210(ra) # 80002952 <myproc>
    80003888:	fea43423          	sd	a0,-24(s0)
    8000388c:	fe843783          	ld	a5,-24(s0)
    80003890:	853e                	mv	a0,a5
    80003892:	ffffe097          	auipc	ra,0xffffe
    80003896:	a40080e7          	jalr	-1472(ra) # 800012d2 <acquire>
    8000389a:	fe843783          	ld	a5,-24(s0)
    8000389e:	4709                	li	a4,2
    800038a0:	cf98                	sw	a4,24(a5)
    800038a2:	00000097          	auipc	ra,0x0
    800038a6:	ece080e7          	jalr	-306(ra) # 80003770 <sched>
    800038aa:	fe843783          	ld	a5,-24(s0)
    800038ae:	853e                	mv	a0,a5
    800038b0:	ffffe097          	auipc	ra,0xffffe
    800038b4:	a86080e7          	jalr	-1402(ra) # 80001336 <release>
    800038b8:	0001                	nop
    800038ba:	60e2                	ld	ra,24(sp)
    800038bc:	6442                	ld	s0,16(sp)
    800038be:	6105                	addi	sp,sp,32
    800038c0:	8082                	ret

00000000800038c2 <forkret>:
    800038c2:	1141                	addi	sp,sp,-16
    800038c4:	e406                	sd	ra,8(sp)
    800038c6:	e022                	sd	s0,0(sp)
    800038c8:	0800                	addi	s0,sp,16
    800038ca:	fffff097          	auipc	ra,0xfffff
    800038ce:	088080e7          	jalr	136(ra) # 80002952 <myproc>
    800038d2:	87aa                	mv	a5,a0
    800038d4:	853e                	mv	a0,a5
    800038d6:	ffffe097          	auipc	ra,0xffffe
    800038da:	a60080e7          	jalr	-1440(ra) # 80001336 <release>
    800038de:	00009797          	auipc	a5,0x9
    800038e2:	f8678793          	addi	a5,a5,-122 # 8000c864 <first.1>
    800038e6:	439c                	lw	a5,0(a5)
    800038e8:	cf81                	beqz	a5,80003900 <forkret+0x3e>
    800038ea:	00009797          	auipc	a5,0x9
    800038ee:	f7a78793          	addi	a5,a5,-134 # 8000c864 <first.1>
    800038f2:	0007a023          	sw	zero,0(a5)
    800038f6:	4505                	li	a0,1
    800038f8:	00001097          	auipc	ra,0x1
    800038fc:	514080e7          	jalr	1300(ra) # 80004e0c <fsinit>
    80003900:	00000097          	auipc	ra,0x0
    80003904:	78c080e7          	jalr	1932(ra) # 8000408c <usertrapret>
    80003908:	0001                	nop
    8000390a:	60a2                	ld	ra,8(sp)
    8000390c:	6402                	ld	s0,0(sp)
    8000390e:	0141                	addi	sp,sp,16
    80003910:	8082                	ret

0000000080003912 <sleep>:
    80003912:	7179                	addi	sp,sp,-48
    80003914:	f406                	sd	ra,40(sp)
    80003916:	f022                	sd	s0,32(sp)
    80003918:	1800                	addi	s0,sp,48
    8000391a:	fca43c23          	sd	a0,-40(s0)
    8000391e:	fcb43823          	sd	a1,-48(s0)
    80003922:	fffff097          	auipc	ra,0xfffff
    80003926:	030080e7          	jalr	48(ra) # 80002952 <myproc>
    8000392a:	fea43423          	sd	a0,-24(s0)
    8000392e:	fe843783          	ld	a5,-24(s0)
    80003932:	fd043703          	ld	a4,-48(s0)
    80003936:	00f70f63          	beq	a4,a5,80003954 <sleep+0x42>
    8000393a:	fe843783          	ld	a5,-24(s0)
    8000393e:	853e                	mv	a0,a5
    80003940:	ffffe097          	auipc	ra,0xffffe
    80003944:	992080e7          	jalr	-1646(ra) # 800012d2 <acquire>
    80003948:	fd043503          	ld	a0,-48(s0)
    8000394c:	ffffe097          	auipc	ra,0xffffe
    80003950:	9ea080e7          	jalr	-1558(ra) # 80001336 <release>
    80003954:	fe843783          	ld	a5,-24(s0)
    80003958:	fd843703          	ld	a4,-40(s0)
    8000395c:	f798                	sd	a4,40(a5)
    8000395e:	fe843783          	ld	a5,-24(s0)
    80003962:	4705                	li	a4,1
    80003964:	cf98                	sw	a4,24(a5)
    80003966:	00000097          	auipc	ra,0x0
    8000396a:	e0a080e7          	jalr	-502(ra) # 80003770 <sched>
    8000396e:	fe843783          	ld	a5,-24(s0)
    80003972:	0207b423          	sd	zero,40(a5)
    80003976:	fe843783          	ld	a5,-24(s0)
    8000397a:	fd043703          	ld	a4,-48(s0)
    8000397e:	00f70f63          	beq	a4,a5,8000399c <sleep+0x8a>
    80003982:	fe843783          	ld	a5,-24(s0)
    80003986:	853e                	mv	a0,a5
    80003988:	ffffe097          	auipc	ra,0xffffe
    8000398c:	9ae080e7          	jalr	-1618(ra) # 80001336 <release>
    80003990:	fd043503          	ld	a0,-48(s0)
    80003994:	ffffe097          	auipc	ra,0xffffe
    80003998:	93e080e7          	jalr	-1730(ra) # 800012d2 <acquire>
    8000399c:	0001                	nop
    8000399e:	70a2                	ld	ra,40(sp)
    800039a0:	7402                	ld	s0,32(sp)
    800039a2:	6145                	addi	sp,sp,48
    800039a4:	8082                	ret

00000000800039a6 <wakeup>:
    800039a6:	7179                	addi	sp,sp,-48
    800039a8:	f406                	sd	ra,40(sp)
    800039aa:	f022                	sd	s0,32(sp)
    800039ac:	1800                	addi	s0,sp,48
    800039ae:	fca43c23          	sd	a0,-40(s0)
    800039b2:	00012797          	auipc	a5,0x12
    800039b6:	3a678793          	addi	a5,a5,934 # 80015d58 <proc>
    800039ba:	fef43423          	sd	a5,-24(s0)
    800039be:	a0b9                	j	80003a0c <wakeup+0x66>
    800039c0:	fe843783          	ld	a5,-24(s0)
    800039c4:	853e                	mv	a0,a5
    800039c6:	ffffe097          	auipc	ra,0xffffe
    800039ca:	90c080e7          	jalr	-1780(ra) # 800012d2 <acquire>
    800039ce:	fe843783          	ld	a5,-24(s0)
    800039d2:	4f9c                	lw	a5,24(a5)
    800039d4:	873e                	mv	a4,a5
    800039d6:	4785                	li	a5,1
    800039d8:	00f71d63          	bne	a4,a5,800039f2 <wakeup+0x4c>
    800039dc:	fe843783          	ld	a5,-24(s0)
    800039e0:	779c                	ld	a5,40(a5)
    800039e2:	fd843703          	ld	a4,-40(s0)
    800039e6:	00f71663          	bne	a4,a5,800039f2 <wakeup+0x4c>
    800039ea:	fe843783          	ld	a5,-24(s0)
    800039ee:	4709                	li	a4,2
    800039f0:	cf98                	sw	a4,24(a5)
    800039f2:	fe843783          	ld	a5,-24(s0)
    800039f6:	853e                	mv	a0,a5
    800039f8:	ffffe097          	auipc	ra,0xffffe
    800039fc:	93e080e7          	jalr	-1730(ra) # 80001336 <release>
    80003a00:	fe843783          	ld	a5,-24(s0)
    80003a04:	16878793          	addi	a5,a5,360
    80003a08:	fef43423          	sd	a5,-24(s0)
    80003a0c:	fe843703          	ld	a4,-24(s0)
    80003a10:	00018797          	auipc	a5,0x18
    80003a14:	d4878793          	addi	a5,a5,-696 # 8001b758 <pid_lock>
    80003a18:	faf764e3          	bltu	a4,a5,800039c0 <wakeup+0x1a>
    80003a1c:	0001                	nop
    80003a1e:	0001                	nop
    80003a20:	70a2                	ld	ra,40(sp)
    80003a22:	7402                	ld	s0,32(sp)
    80003a24:	6145                	addi	sp,sp,48
    80003a26:	8082                	ret

0000000080003a28 <wakeup1>:
    80003a28:	1101                	addi	sp,sp,-32
    80003a2a:	ec06                	sd	ra,24(sp)
    80003a2c:	e822                	sd	s0,16(sp)
    80003a2e:	1000                	addi	s0,sp,32
    80003a30:	fea43423          	sd	a0,-24(s0)
    80003a34:	fe843783          	ld	a5,-24(s0)
    80003a38:	853e                	mv	a0,a5
    80003a3a:	ffffe097          	auipc	ra,0xffffe
    80003a3e:	952080e7          	jalr	-1710(ra) # 8000138c <holding>
    80003a42:	87aa                	mv	a5,a0
    80003a44:	eb89                	bnez	a5,80003a56 <wakeup1+0x2e>
    80003a46:	00009517          	auipc	a0,0x9
    80003a4a:	83250513          	addi	a0,a0,-1998 # 8000c278 <etext+0x278>
    80003a4e:	ffffd097          	auipc	ra,0xffffd
    80003a52:	250080e7          	jalr	592(ra) # 80000c9e <panic>
    80003a56:	fe843783          	ld	a5,-24(s0)
    80003a5a:	779c                	ld	a5,40(a5)
    80003a5c:	fe843703          	ld	a4,-24(s0)
    80003a60:	00f71d63          	bne	a4,a5,80003a7a <wakeup1+0x52>
    80003a64:	fe843783          	ld	a5,-24(s0)
    80003a68:	4f9c                	lw	a5,24(a5)
    80003a6a:	873e                	mv	a4,a5
    80003a6c:	4785                	li	a5,1
    80003a6e:	00f71663          	bne	a4,a5,80003a7a <wakeup1+0x52>
    80003a72:	fe843783          	ld	a5,-24(s0)
    80003a76:	4709                	li	a4,2
    80003a78:	cf98                	sw	a4,24(a5)
    80003a7a:	0001                	nop
    80003a7c:	60e2                	ld	ra,24(sp)
    80003a7e:	6442                	ld	s0,16(sp)
    80003a80:	6105                	addi	sp,sp,32
    80003a82:	8082                	ret

0000000080003a84 <kill>:
    80003a84:	7179                	addi	sp,sp,-48
    80003a86:	f406                	sd	ra,40(sp)
    80003a88:	f022                	sd	s0,32(sp)
    80003a8a:	1800                	addi	s0,sp,48
    80003a8c:	87aa                	mv	a5,a0
    80003a8e:	fcf42e23          	sw	a5,-36(s0)
    80003a92:	00012797          	auipc	a5,0x12
    80003a96:	2c678793          	addi	a5,a5,710 # 80015d58 <proc>
    80003a9a:	fef43423          	sd	a5,-24(s0)
    80003a9e:	a0ad                	j	80003b08 <kill+0x84>
    80003aa0:	fe843783          	ld	a5,-24(s0)
    80003aa4:	853e                	mv	a0,a5
    80003aa6:	ffffe097          	auipc	ra,0xffffe
    80003aaa:	82c080e7          	jalr	-2004(ra) # 800012d2 <acquire>
    80003aae:	fe843783          	ld	a5,-24(s0)
    80003ab2:	5f98                	lw	a4,56(a5)
    80003ab4:	fdc42783          	lw	a5,-36(s0)
    80003ab8:	2781                	sext.w	a5,a5
    80003aba:	02e79a63          	bne	a5,a4,80003aee <kill+0x6a>
    80003abe:	fe843783          	ld	a5,-24(s0)
    80003ac2:	4705                	li	a4,1
    80003ac4:	db98                	sw	a4,48(a5)
    80003ac6:	fe843783          	ld	a5,-24(s0)
    80003aca:	4f9c                	lw	a5,24(a5)
    80003acc:	873e                	mv	a4,a5
    80003ace:	4785                	li	a5,1
    80003ad0:	00f71663          	bne	a4,a5,80003adc <kill+0x58>
    80003ad4:	fe843783          	ld	a5,-24(s0)
    80003ad8:	4709                	li	a4,2
    80003ada:	cf98                	sw	a4,24(a5)
